Archive member included to satisfy reference by file (symbol)

c:/users/luke/desktop/mcha toolchain windows/toolchain/gcc-arm-none-eabi/bin/../lib/gcc/arm-none-eabi/11.2.1/thumb/v7e-m+fp/hard\libgcc.a(_aeabi_ldivmod.o)
                              build/uart.o (__aeabi_ldivmod)
c:/users/luke/desktop/mcha toolchain windows/toolchain/gcc-arm-none-eabi/bin/../lib/gcc/arm-none-eabi/11.2.1/thumb/v7e-m+fp/hard\libgcc.a(_aeabi_uldivmod.o)
                              build/uart.o (__aeabi_uldivmod)
c:/users/luke/desktop/mcha toolchain windows/toolchain/gcc-arm-none-eabi/bin/../lib/gcc/arm-none-eabi/11.2.1/thumb/v7e-m+fp/hard\libgcc.a(_udivmoddi4.o)
                              c:/users/luke/desktop/mcha toolchain windows/toolchain/gcc-arm-none-eabi/bin/../lib/gcc/arm-none-eabi/11.2.1/thumb/v7e-m+fp/hard\libgcc.a(_aeabi_ldivmod.o) (__udivmoddi4)
c:/users/luke/desktop/mcha toolchain windows/toolchain/gcc-arm-none-eabi/bin/../lib/gcc/arm-none-eabi/11.2.1/thumb/v7e-m+fp/hard\libgcc.a(_dvmd_tls.o)
                              c:/users/luke/desktop/mcha toolchain windows/toolchain/gcc-arm-none-eabi/bin/../lib/gcc/arm-none-eabi/11.2.1/thumb/v7e-m+fp/hard\libgcc.a(_aeabi_ldivmod.o) (__aeabi_ldiv0)
c:/users/luke/desktop/mcha toolchain windows/toolchain/gcc-arm-none-eabi/bin/../lib/gcc/arm-none-eabi/11.2.1/thumb/v7e-m+fp/hard\libc_nano.a(lib_a-ctype_.o)
                              build/cmd_parser.o (_ctype_)
c:/users/luke/desktop/mcha toolchain windows/toolchain/gcc-arm-none-eabi/bin/../lib/gcc/arm-none-eabi/11.2.1/thumb/v7e-m+fp/hard\libc_nano.a(lib_a-exit.o)
                              c:/users/luke/desktop/mcha toolchain windows/toolchain/gcc-arm-none-eabi/bin/../lib/gcc/arm-none-eabi/11.2.1/thumb/v7e-m+fp/hard/crt0.o (exit)
c:/users/luke/desktop/mcha toolchain windows/toolchain/gcc-arm-none-eabi/bin/../lib/gcc/arm-none-eabi/11.2.1/thumb/v7e-m+fp/hard\libc_nano.a(lib_a-getchar.o)
                              build/cmd_line_buffer.o (getchar)
c:/users/luke/desktop/mcha toolchain windows/toolchain/gcc-arm-none-eabi/bin/../lib/gcc/arm-none-eabi/11.2.1/thumb/v7e-m+fp/hard\libc_nano.a(lib_a-getc.o)
                              c:/users/luke/desktop/mcha toolchain windows/toolchain/gcc-arm-none-eabi/bin/../lib/gcc/arm-none-eabi/11.2.1/thumb/v7e-m+fp/hard\libc_nano.a(lib_a-getchar.o) (_getc_r)
c:/users/luke/desktop/mcha toolchain windows/toolchain/gcc-arm-none-eabi/bin/../lib/gcc/arm-none-eabi/11.2.1/thumb/v7e-m+fp/hard\libc_nano.a(lib_a-impure.o)
                              c:/users/luke/desktop/mcha toolchain windows/toolchain/gcc-arm-none-eabi/bin/../lib/gcc/arm-none-eabi/11.2.1/thumb/v7e-m+fp/hard\libc_nano.a(lib_a-exit.o) (_global_impure_ptr)
c:/users/luke/desktop/mcha toolchain windows/toolchain/gcc-arm-none-eabi/bin/../lib/gcc/arm-none-eabi/11.2.1/thumb/v7e-m+fp/hard\libc_nano.a(lib_a-init.o)
                              c:/users/luke/desktop/mcha toolchain windows/toolchain/gcc-arm-none-eabi/bin/../lib/gcc/arm-none-eabi/11.2.1/thumb/v7e-m+fp/hard/crt0.o (__libc_init_array)
c:/users/luke/desktop/mcha toolchain windows/toolchain/gcc-arm-none-eabi/bin/../lib/gcc/arm-none-eabi/11.2.1/thumb/v7e-m+fp/hard\libc_nano.a(lib_a-malloc.o)
                              build/FreeRTOS/heap_useNewlib.o (malloc)
c:/users/luke/desktop/mcha toolchain windows/toolchain/gcc-arm-none-eabi/bin/../lib/gcc/arm-none-eabi/11.2.1/thumb/v7e-m+fp/hard\libc_nano.a(lib_a-memcpy-stub.o)
                              build/FreeRTOS/queue.o (memcpy)
c:/users/luke/desktop/mcha toolchain windows/toolchain/gcc-arm-none-eabi/bin/../lib/gcc/arm-none-eabi/11.2.1/thumb/v7e-m+fp/hard\libc_nano.a(lib_a-memset.o)
                              c:/users/luke/desktop/mcha toolchain windows/toolchain/gcc-arm-none-eabi/bin/../lib/gcc/arm-none-eabi/11.2.1/thumb/v7e-m+fp/hard/crt0.o (memset)
c:/users/luke/desktop/mcha toolchain windows/toolchain/gcc-arm-none-eabi/bin/../lib/gcc/arm-none-eabi/11.2.1/thumb/v7e-m+fp/hard\libc_nano.a(lib_a-mstats.o)
                              build/FreeRTOS/heap_useNewlib.o (mallinfo)
c:/users/luke/desktop/mcha toolchain windows/toolchain/gcc-arm-none-eabi/bin/../lib/gcc/arm-none-eabi/11.2.1/thumb/v7e-m+fp/hard\libc_nano.a(lib_a-nano-freer.o)
                              c:/users/luke/desktop/mcha toolchain windows/toolchain/gcc-arm-none-eabi/bin/../lib/gcc/arm-none-eabi/11.2.1/thumb/v7e-m+fp/hard\libc_nano.a(lib_a-malloc.o) (_free_r)
c:/users/luke/desktop/mcha toolchain windows/toolchain/gcc-arm-none-eabi/bin/../lib/gcc/arm-none-eabi/11.2.1/thumb/v7e-m+fp/hard\libc_nano.a(lib_a-nano-mallinfor.o)
                              c:/users/luke/desktop/mcha toolchain windows/toolchain/gcc-arm-none-eabi/bin/../lib/gcc/arm-none-eabi/11.2.1/thumb/v7e-m+fp/hard\libc_nano.a(lib_a-mstats.o) (_mallinfo_r)
c:/users/luke/desktop/mcha toolchain windows/toolchain/gcc-arm-none-eabi/bin/../lib/gcc/arm-none-eabi/11.2.1/thumb/v7e-m+fp/hard\libc_nano.a(lib_a-nano-mallocr.o)
                              c:/users/luke/desktop/mcha toolchain windows/toolchain/gcc-arm-none-eabi/bin/../lib/gcc/arm-none-eabi/11.2.1/thumb/v7e-m+fp/hard\libc_nano.a(lib_a-malloc.o) (_malloc_r)
c:/users/luke/desktop/mcha toolchain windows/toolchain/gcc-arm-none-eabi/bin/../lib/gcc/arm-none-eabi/11.2.1/thumb/v7e-m+fp/hard\libc_nano.a(lib_a-nano-malloptr.o)
                              c:/users/luke/desktop/mcha toolchain windows/toolchain/gcc-arm-none-eabi/bin/../lib/gcc/arm-none-eabi/11.2.1/thumb/v7e-m+fp/hard\libc_nano.a(lib_a-mstats.o) (_mallopt_r)
c:/users/luke/desktop/mcha toolchain windows/toolchain/gcc-arm-none-eabi/bin/../lib/gcc/arm-none-eabi/11.2.1/thumb/v7e-m+fp/hard\libc_nano.a(lib_a-nano-mallstatsr.o)
                              c:/users/luke/desktop/mcha toolchain windows/toolchain/gcc-arm-none-eabi/bin/../lib/gcc/arm-none-eabi/11.2.1/thumb/v7e-m+fp/hard\libc_nano.a(lib_a-mstats.o) (_malloc_stats_r)
c:/users/luke/desktop/mcha toolchain windows/toolchain/gcc-arm-none-eabi/bin/../lib/gcc/arm-none-eabi/11.2.1/thumb/v7e-m+fp/hard\libc_nano.a(lib_a-nano-vfprintf_float.o)
                              (_printf_float)
c:/users/luke/desktop/mcha toolchain windows/toolchain/gcc-arm-none-eabi/bin/../lib/gcc/arm-none-eabi/11.2.1/thumb/v7e-m+fp/hard\libc_nano.a(lib_a-nano-vfprintf_i.o)
                              c:/users/luke/desktop/mcha toolchain windows/toolchain/gcc-arm-none-eabi/bin/../lib/gcc/arm-none-eabi/11.2.1/thumb/v7e-m+fp/hard\libc_nano.a(lib_a-nano-vfprintf_float.o) (_printf_common)
c:/users/luke/desktop/mcha toolchain windows/toolchain/gcc-arm-none-eabi/bin/../lib/gcc/arm-none-eabi/11.2.1/thumb/v7e-m+fp/hard\libc_nano.a(lib_a-nano-vfscanf_float.o)
                              (_scanf_float)
c:/users/luke/desktop/mcha toolchain windows/toolchain/gcc-arm-none-eabi/bin/../lib/gcc/arm-none-eabi/11.2.1/thumb/v7e-m+fp/hard\libc_nano.a(lib_a-printf.o)
                              build/cmd_line_buffer.o (printf)
c:/users/luke/desktop/mcha toolchain windows/toolchain/gcc-arm-none-eabi/bin/../lib/gcc/arm-none-eabi/11.2.1/thumb/v7e-m+fp/hard\libc_nano.a(lib_a-reent.o)
                              build/FreeRTOS/tasks.o (_reclaim_reent)
c:/users/luke/desktop/mcha toolchain windows/toolchain/gcc-arm-none-eabi/bin/../lib/gcc/arm-none-eabi/11.2.1/thumb/v7e-m+fp/hard\libc_nano.a(lib_a-rget.o)
                              c:/users/luke/desktop/mcha toolchain windows/toolchain/gcc-arm-none-eabi/bin/../lib/gcc/arm-none-eabi/11.2.1/thumb/v7e-m+fp/hard\libc_nano.a(lib_a-getc.o) (__srget_r)
c:/users/luke/desktop/mcha toolchain windows/toolchain/gcc-arm-none-eabi/bin/../lib/gcc/arm-none-eabi/11.2.1/thumb/v7e-m+fp/hard\libc_nano.a(lib_a-sbrkr.o)
                              c:/users/luke/desktop/mcha toolchain windows/toolchain/gcc-arm-none-eabi/bin/../lib/gcc/arm-none-eabi/11.2.1/thumb/v7e-m+fp/hard\libc_nano.a(lib_a-nano-mallinfor.o) (_sbrk_r)
c:/users/luke/desktop/mcha toolchain windows/toolchain/gcc-arm-none-eabi/bin/../lib/gcc/arm-none-eabi/11.2.1/thumb/v7e-m+fp/hard\libc_nano.a(lib_a-setvbuf.o)
                              build/uart.o (setvbuf)
c:/users/luke/desktop/mcha toolchain windows/toolchain/gcc-arm-none-eabi/bin/../lib/gcc/arm-none-eabi/11.2.1/thumb/v7e-m+fp/hard\libc_nano.a(lib_a-sf_nan.o)
                              c:/users/luke/desktop/mcha toolchain windows/toolchain/gcc-arm-none-eabi/bin/../lib/gcc/arm-none-eabi/11.2.1/thumb/v7e-m+fp/hard\libc_nano.a(lib_a-nano-vfscanf_float.o) (nanf)
c:/users/luke/desktop/mcha toolchain windows/toolchain/gcc-arm-none-eabi/bin/../lib/gcc/arm-none-eabi/11.2.1/thumb/v7e-m+fp/hard\libc_nano.a(lib_a-sprintf.o)
                              c:/users/luke/desktop/mcha toolchain windows/toolchain/gcc-arm-none-eabi/bin/../lib/gcc/arm-none-eabi/11.2.1/thumb/v7e-m+fp/hard\libc_nano.a(lib_a-nano-vfscanf_float.o) (sprintf)
c:/users/luke/desktop/mcha toolchain windows/toolchain/gcc-arm-none-eabi/bin/../lib/gcc/arm-none-eabi/11.2.1/thumb/v7e-m+fp/hard\libc_nano.a(lib_a-strcmp.o)
                              build/cmd_parser.o (strcmp)
c:/users/luke/desktop/mcha toolchain windows/toolchain/gcc-arm-none-eabi/bin/../lib/gcc/arm-none-eabi/11.2.1/thumb/v7e-m+fp/hard\libc_nano.a(lib_a-strlen.o)
                              c:/users/luke/desktop/mcha toolchain windows/toolchain/gcc-arm-none-eabi/bin/../lib/gcc/arm-none-eabi/11.2.1/thumb/v7e-m+fp/hard\libc_nano.a(lib_a-nano-vfprintf_float.o) (strlen)
c:/users/luke/desktop/mcha toolchain windows/toolchain/gcc-arm-none-eabi/bin/../lib/gcc/arm-none-eabi/11.2.1/thumb/v7e-m+fp/hard\libc_nano.a(lib_a-strtod.o)
                              c:/users/luke/desktop/mcha toolchain windows/toolchain/gcc-arm-none-eabi/bin/../lib/gcc/arm-none-eabi/11.2.1/thumb/v7e-m+fp/hard\libc_nano.a(lib_a-nano-vfscanf_float.o) (_strtod_r)
c:/users/luke/desktop/mcha toolchain windows/toolchain/gcc-arm-none-eabi/bin/../lib/gcc/arm-none-eabi/11.2.1/thumb/v7e-m+fp/hard\libc_nano.a(lib_a-strtol.o)
                              c:/users/luke/desktop/mcha toolchain windows/toolchain/gcc-arm-none-eabi/bin/../lib/gcc/arm-none-eabi/11.2.1/thumb/v7e-m+fp/hard\libc_nano.a(lib_a-nano-vfscanf_float.o) (_strtol_r)
c:/users/luke/desktop/mcha toolchain windows/toolchain/gcc-arm-none-eabi/bin/../lib/gcc/arm-none-eabi/11.2.1/thumb/v7e-m+fp/hard\libc_nano.a(lib_a-vprintf.o)
                              build/uart.o (vprintf)
c:/users/luke/desktop/mcha toolchain windows/toolchain/gcc-arm-none-eabi/bin/../lib/gcc/arm-none-eabi/11.2.1/thumb/v7e-m+fp/hard\libc_nano.a(lib_a-dtoa.o)
                              c:/users/luke/desktop/mcha toolchain windows/toolchain/gcc-arm-none-eabi/bin/../lib/gcc/arm-none-eabi/11.2.1/thumb/v7e-m+fp/hard\libc_nano.a(lib_a-nano-vfprintf_float.o) (_dtoa_r)
c:/users/luke/desktop/mcha toolchain windows/toolchain/gcc-arm-none-eabi/bin/../lib/gcc/arm-none-eabi/11.2.1/thumb/v7e-m+fp/hard\libc_nano.a(lib_a-errno.o)
                              c:/users/luke/desktop/mcha toolchain windows/toolchain/gcc-arm-none-eabi/bin/../lib/gcc/arm-none-eabi/11.2.1/thumb/v7e-m+fp/hard\libc_nano.a(lib_a-strtol.o) (__errno)
c:/users/luke/desktop/mcha toolchain windows/toolchain/gcc-arm-none-eabi/bin/../lib/gcc/arm-none-eabi/11.2.1/thumb/v7e-m+fp/hard\libc_nano.a(lib_a-fflush.o)
                              c:/users/luke/desktop/mcha toolchain windows/toolchain/gcc-arm-none-eabi/bin/../lib/gcc/arm-none-eabi/11.2.1/thumb/v7e-m+fp/hard\libc_nano.a(lib_a-setvbuf.o) (_fflush_r)
c:/users/luke/desktop/mcha toolchain windows/toolchain/gcc-arm-none-eabi/bin/../lib/gcc/arm-none-eabi/11.2.1/thumb/v7e-m+fp/hard\libc_nano.a(lib_a-findfp.o)
                              c:/users/luke/desktop/mcha toolchain windows/toolchain/gcc-arm-none-eabi/bin/../lib/gcc/arm-none-eabi/11.2.1/thumb/v7e-m+fp/hard\libc_nano.a(lib_a-getchar.o) (__sinit)
c:/users/luke/desktop/mcha toolchain windows/toolchain/gcc-arm-none-eabi/bin/../lib/gcc/arm-none-eabi/11.2.1/thumb/v7e-m+fp/hard\libc_nano.a(lib_a-fprintf.o)
                              c:/users/luke/desktop/mcha toolchain windows/toolchain/gcc-arm-none-eabi/bin/../lib/gcc/arm-none-eabi/11.2.1/thumb/v7e-m+fp/hard\libc_nano.a(lib_a-mstats.o) (fiprintf)
c:/users/luke/desktop/mcha toolchain windows/toolchain/gcc-arm-none-eabi/bin/../lib/gcc/arm-none-eabi/11.2.1/thumb/v7e-m+fp/hard\libc_nano.a(lib_a-fwalk.o)
                              c:/users/luke/desktop/mcha toolchain windows/toolchain/gcc-arm-none-eabi/bin/../lib/gcc/arm-none-eabi/11.2.1/thumb/v7e-m+fp/hard\libc_nano.a(lib_a-findfp.o) (_fwalk)
c:/users/luke/desktop/mcha toolchain windows/toolchain/gcc-arm-none-eabi/bin/../lib/gcc/arm-none-eabi/11.2.1/thumb/v7e-m+fp/hard\libc_nano.a(lib_a-gdtoa-gethex.o)
                              c:/users/luke/desktop/mcha toolchain windows/toolchain/gcc-arm-none-eabi/bin/../lib/gcc/arm-none-eabi/11.2.1/thumb/v7e-m+fp/hard\libc_nano.a(lib_a-strtod.o) (__gethex)
c:/users/luke/desktop/mcha toolchain windows/toolchain/gcc-arm-none-eabi/bin/../lib/gcc/arm-none-eabi/11.2.1/thumb/v7e-m+fp/hard\libc_nano.a(lib_a-gdtoa-hexnan.o)
                              c:/users/luke/desktop/mcha toolchain windows/toolchain/gcc-arm-none-eabi/bin/../lib/gcc/arm-none-eabi/11.2.1/thumb/v7e-m+fp/hard\libc_nano.a(lib_a-strtod.o) (__match)
c:/users/luke/desktop/mcha toolchain windows/toolchain/gcc-arm-none-eabi/bin/../lib/gcc/arm-none-eabi/11.2.1/thumb/v7e-m+fp/hard\libc_nano.a(lib_a-lnumeric.o)
                              c:/users/luke/desktop/mcha toolchain windows/toolchain/gcc-arm-none-eabi/bin/../lib/gcc/arm-none-eabi/11.2.1/thumb/v7e-m+fp/hard\libc_nano.a(lib_a-strtod.o) (_C_numeric_locale)
c:/users/luke/desktop/mcha toolchain windows/toolchain/gcc-arm-none-eabi/bin/../lib/gcc/arm-none-eabi/11.2.1/thumb/v7e-m+fp/hard\libc_nano.a(lib_a-localeconv.o)
                              c:/users/luke/desktop/mcha toolchain windows/toolchain/gcc-arm-none-eabi/bin/../lib/gcc/arm-none-eabi/11.2.1/thumb/v7e-m+fp/hard\libc_nano.a(lib_a-nano-vfprintf_float.o) (_localeconv_r)
c:/users/luke/desktop/mcha toolchain windows/toolchain/gcc-arm-none-eabi/bin/../lib/gcc/arm-none-eabi/11.2.1/thumb/v7e-m+fp/hard\libc_nano.a(lib_a-locale.o)
                              c:/users/luke/desktop/mcha toolchain windows/toolchain/gcc-arm-none-eabi/bin/../lib/gcc/arm-none-eabi/11.2.1/thumb/v7e-m+fp/hard\libc_nano.a(lib_a-strtod.o) (__global_locale)
c:/users/luke/desktop/mcha toolchain windows/toolchain/gcc-arm-none-eabi/bin/../lib/gcc/arm-none-eabi/11.2.1/thumb/v7e-m+fp/hard\libc_nano.a(lib_a-makebuf.o)
                              c:/users/luke/desktop/mcha toolchain windows/toolchain/gcc-arm-none-eabi/bin/../lib/gcc/arm-none-eabi/11.2.1/thumb/v7e-m+fp/hard\libc_nano.a(lib_a-setvbuf.o) (__swhatbuf_r)
c:/users/luke/desktop/mcha toolchain windows/toolchain/gcc-arm-none-eabi/bin/../lib/gcc/arm-none-eabi/11.2.1/thumb/v7e-m+fp/hard\libc_nano.a(lib_a-mbtowc_r.o)
                              c:/users/luke/desktop/mcha toolchain windows/toolchain/gcc-arm-none-eabi/bin/../lib/gcc/arm-none-eabi/11.2.1/thumb/v7e-m+fp/hard\libc_nano.a(lib_a-locale.o) (__ascii_mbtowc)
c:/users/luke/desktop/mcha toolchain windows/toolchain/gcc-arm-none-eabi/bin/../lib/gcc/arm-none-eabi/11.2.1/thumb/v7e-m+fp/hard\libc_nano.a(lib_a-memchr.o)
                              c:/users/luke/desktop/mcha toolchain windows/toolchain/gcc-arm-none-eabi/bin/../lib/gcc/arm-none-eabi/11.2.1/thumb/v7e-m+fp/hard\libc_nano.a(lib_a-nano-vfprintf_i.o) (memchr)
c:/users/luke/desktop/mcha toolchain windows/toolchain/gcc-arm-none-eabi/bin/../lib/gcc/arm-none-eabi/11.2.1/thumb/v7e-m+fp/hard\libc_nano.a(lib_a-mprec.o)
                              c:/users/luke/desktop/mcha toolchain windows/toolchain/gcc-arm-none-eabi/bin/../lib/gcc/arm-none-eabi/11.2.1/thumb/v7e-m+fp/hard\libc_nano.a(lib_a-strtod.o) (_Balloc)
c:/users/luke/desktop/mcha toolchain windows/toolchain/gcc-arm-none-eabi/bin/../lib/gcc/arm-none-eabi/11.2.1/thumb/v7e-m+fp/hard\libc_nano.a(lib_a-nano-callocr.o)
                              c:/users/luke/desktop/mcha toolchain windows/toolchain/gcc-arm-none-eabi/bin/../lib/gcc/arm-none-eabi/11.2.1/thumb/v7e-m+fp/hard\libc_nano.a(lib_a-mprec.o) (_calloc_r)
c:/users/luke/desktop/mcha toolchain windows/toolchain/gcc-arm-none-eabi/bin/../lib/gcc/arm-none-eabi/11.2.1/thumb/v7e-m+fp/hard\libc_nano.a(lib_a-nano-svfprintf.o)
                              c:/users/luke/desktop/mcha toolchain windows/toolchain/gcc-arm-none-eabi/bin/../lib/gcc/arm-none-eabi/11.2.1/thumb/v7e-m+fp/hard\libc_nano.a(lib_a-sprintf.o) (_svfprintf_r)
c:/users/luke/desktop/mcha toolchain windows/toolchain/gcc-arm-none-eabi/bin/../lib/gcc/arm-none-eabi/11.2.1/thumb/v7e-m+fp/hard\libc_nano.a(lib_a-nano-vfprintf.o)
                              c:/users/luke/desktop/mcha toolchain windows/toolchain/gcc-arm-none-eabi/bin/../lib/gcc/arm-none-eabi/11.2.1/thumb/v7e-m+fp/hard\libc_nano.a(lib_a-printf.o) (_vfprintf_r)
c:/users/luke/desktop/mcha toolchain windows/toolchain/gcc-arm-none-eabi/bin/../lib/gcc/arm-none-eabi/11.2.1/thumb/v7e-m+fp/hard\libc_nano.a(lib_a-refill.o)
                              c:/users/luke/desktop/mcha toolchain windows/toolchain/gcc-arm-none-eabi/bin/../lib/gcc/arm-none-eabi/11.2.1/thumb/v7e-m+fp/hard\libc_nano.a(lib_a-rget.o) (__srefill_r)
c:/users/luke/desktop/mcha toolchain windows/toolchain/gcc-arm-none-eabi/bin/../lib/gcc/arm-none-eabi/11.2.1/thumb/v7e-m+fp/hard\libc_nano.a(lib_a-s_nan.o)
                              c:/users/luke/desktop/mcha toolchain windows/toolchain/gcc-arm-none-eabi/bin/../lib/gcc/arm-none-eabi/11.2.1/thumb/v7e-m+fp/hard\libc_nano.a(lib_a-strtod.o) (nan)
c:/users/luke/desktop/mcha toolchain windows/toolchain/gcc-arm-none-eabi/bin/../lib/gcc/arm-none-eabi/11.2.1/thumb/v7e-m+fp/hard\libc_nano.a(lib_a-stdio.o)
                              c:/users/luke/desktop/mcha toolchain windows/toolchain/gcc-arm-none-eabi/bin/../lib/gcc/arm-none-eabi/11.2.1/thumb/v7e-m+fp/hard\libc_nano.a(lib_a-findfp.o) (__sread)
c:/users/luke/desktop/mcha toolchain windows/toolchain/gcc-arm-none-eabi/bin/../lib/gcc/arm-none-eabi/11.2.1/thumb/v7e-m+fp/hard\libc_nano.a(lib_a-strncmp.o)
                              c:/users/luke/desktop/mcha toolchain windows/toolchain/gcc-arm-none-eabi/bin/../lib/gcc/arm-none-eabi/11.2.1/thumb/v7e-m+fp/hard\libc_nano.a(lib_a-strtod.o) (strncmp)
c:/users/luke/desktop/mcha toolchain windows/toolchain/gcc-arm-none-eabi/bin/../lib/gcc/arm-none-eabi/11.2.1/thumb/v7e-m+fp/hard\libc_nano.a(lib_a-wbuf.o)
                              c:/users/luke/desktop/mcha toolchain windows/toolchain/gcc-arm-none-eabi/bin/../lib/gcc/arm-none-eabi/11.2.1/thumb/v7e-m+fp/hard\libc_nano.a(lib_a-nano-vfprintf.o) (__swbuf_r)
c:/users/luke/desktop/mcha toolchain windows/toolchain/gcc-arm-none-eabi/bin/../lib/gcc/arm-none-eabi/11.2.1/thumb/v7e-m+fp/hard\libc_nano.a(lib_a-wctomb_r.o)
                              c:/users/luke/desktop/mcha toolchain windows/toolchain/gcc-arm-none-eabi/bin/../lib/gcc/arm-none-eabi/11.2.1/thumb/v7e-m+fp/hard\libc_nano.a(lib_a-locale.o) (__ascii_wctomb)
c:/users/luke/desktop/mcha toolchain windows/toolchain/gcc-arm-none-eabi/bin/../lib/gcc/arm-none-eabi/11.2.1/thumb/v7e-m+fp/hard\libc_nano.a(lib_a-writer.o)
                              c:/users/luke/desktop/mcha toolchain windows/toolchain/gcc-arm-none-eabi/bin/../lib/gcc/arm-none-eabi/11.2.1/thumb/v7e-m+fp/hard\libc_nano.a(lib_a-stdio.o) (_write_r)
c:/users/luke/desktop/mcha toolchain windows/toolchain/gcc-arm-none-eabi/bin/../lib/gcc/arm-none-eabi/11.2.1/thumb/v7e-m+fp/hard\libc_nano.a(lib_a-wsetup.o)
                              c:/users/luke/desktop/mcha toolchain windows/toolchain/gcc-arm-none-eabi/bin/../lib/gcc/arm-none-eabi/11.2.1/thumb/v7e-m+fp/hard\libc_nano.a(lib_a-nano-vfprintf.o) (__swsetup_r)
c:/users/luke/desktop/mcha toolchain windows/toolchain/gcc-arm-none-eabi/bin/../lib/gcc/arm-none-eabi/11.2.1/thumb/v7e-m+fp/hard\libc_nano.a(lib_a-assert.o)
                              c:/users/luke/desktop/mcha toolchain windows/toolchain/gcc-arm-none-eabi/bin/../lib/gcc/arm-none-eabi/11.2.1/thumb/v7e-m+fp/hard\libc_nano.a(lib_a-dtoa.o) (__assert_func)
c:/users/luke/desktop/mcha toolchain windows/toolchain/gcc-arm-none-eabi/bin/../lib/gcc/arm-none-eabi/11.2.1/thumb/v7e-m+fp/hard\libc_nano.a(lib_a-closer.o)
                              c:/users/luke/desktop/mcha toolchain windows/toolchain/gcc-arm-none-eabi/bin/../lib/gcc/arm-none-eabi/11.2.1/thumb/v7e-m+fp/hard\libc_nano.a(lib_a-stdio.o) (_close_r)
c:/users/luke/desktop/mcha toolchain windows/toolchain/gcc-arm-none-eabi/bin/../lib/gcc/arm-none-eabi/11.2.1/thumb/v7e-m+fp/hard\libc_nano.a(lib_a-fstatr.o)
                              c:/users/luke/desktop/mcha toolchain windows/toolchain/gcc-arm-none-eabi/bin/../lib/gcc/arm-none-eabi/11.2.1/thumb/v7e-m+fp/hard\libc_nano.a(lib_a-makebuf.o) (_fstat_r)
c:/users/luke/desktop/mcha toolchain windows/toolchain/gcc-arm-none-eabi/bin/../lib/gcc/arm-none-eabi/11.2.1/thumb/v7e-m+fp/hard\libc_nano.a(lib_a-fvwrite.o)
                              c:/users/luke/desktop/mcha toolchain windows/toolchain/gcc-arm-none-eabi/bin/../lib/gcc/arm-none-eabi/11.2.1/thumb/v7e-m+fp/hard\libc_nano.a(lib_a-nano-vfprintf.o) (__sfvwrite_r)
c:/users/luke/desktop/mcha toolchain windows/toolchain/gcc-arm-none-eabi/bin/../lib/gcc/arm-none-eabi/11.2.1/thumb/v7e-m+fp/hard\libc_nano.a(lib_a-isattyr.o)
                              c:/users/luke/desktop/mcha toolchain windows/toolchain/gcc-arm-none-eabi/bin/../lib/gcc/arm-none-eabi/11.2.1/thumb/v7e-m+fp/hard\libc_nano.a(lib_a-makebuf.o) (_isatty_r)
c:/users/luke/desktop/mcha toolchain windows/toolchain/gcc-arm-none-eabi/bin/../lib/gcc/arm-none-eabi/11.2.1/thumb/v7e-m+fp/hard\libc_nano.a(lib_a-lseekr.o)
                              c:/users/luke/desktop/mcha toolchain windows/toolchain/gcc-arm-none-eabi/bin/../lib/gcc/arm-none-eabi/11.2.1/thumb/v7e-m+fp/hard\libc_nano.a(lib_a-stdio.o) (_lseek_r)
c:/users/luke/desktop/mcha toolchain windows/toolchain/gcc-arm-none-eabi/bin/../lib/gcc/arm-none-eabi/11.2.1/thumb/v7e-m+fp/hard\libc_nano.a(lib_a-memmove.o)
                              c:/users/luke/desktop/mcha toolchain windows/toolchain/gcc-arm-none-eabi/bin/../lib/gcc/arm-none-eabi/11.2.1/thumb/v7e-m+fp/hard\libc_nano.a(lib_a-nano-svfprintf.o) (memmove)
c:/users/luke/desktop/mcha toolchain windows/toolchain/gcc-arm-none-eabi/bin/../lib/gcc/arm-none-eabi/11.2.1/thumb/v7e-m+fp/hard\libc_nano.a(lib_a-nano-reallocr.o)
                              c:/users/luke/desktop/mcha toolchain windows/toolchain/gcc-arm-none-eabi/bin/../lib/gcc/arm-none-eabi/11.2.1/thumb/v7e-m+fp/hard\libc_nano.a(lib_a-nano-svfprintf.o) (_realloc_r)
c:/users/luke/desktop/mcha toolchain windows/toolchain/gcc-arm-none-eabi/bin/../lib/gcc/arm-none-eabi/11.2.1/thumb/v7e-m+fp/hard\libc_nano.a(lib_a-readr.o)
                              c:/users/luke/desktop/mcha toolchain windows/toolchain/gcc-arm-none-eabi/bin/../lib/gcc/arm-none-eabi/11.2.1/thumb/v7e-m+fp/hard\libc_nano.a(lib_a-stdio.o) (_read_r)
c:/users/luke/desktop/mcha toolchain windows/toolchain/gcc-arm-none-eabi/bin/../lib/gcc/arm-none-eabi/11.2.1/thumb/v7e-m+fp/hard\libc_nano.a(lib_a-abort.o)
                              c:/users/luke/desktop/mcha toolchain windows/toolchain/gcc-arm-none-eabi/bin/../lib/gcc/arm-none-eabi/11.2.1/thumb/v7e-m+fp/hard\libc_nano.a(lib_a-assert.o) (abort)
c:/users/luke/desktop/mcha toolchain windows/toolchain/gcc-arm-none-eabi/bin/../lib/gcc/arm-none-eabi/11.2.1/thumb/v7e-m+fp/hard\libc_nano.a(lib_a-nano-msizer.o)
                              c:/users/luke/desktop/mcha toolchain windows/toolchain/gcc-arm-none-eabi/bin/../lib/gcc/arm-none-eabi/11.2.1/thumb/v7e-m+fp/hard\libc_nano.a(lib_a-nano-reallocr.o) (_malloc_usable_size_r)
c:/users/luke/desktop/mcha toolchain windows/toolchain/gcc-arm-none-eabi/bin/../lib/gcc/arm-none-eabi/11.2.1/thumb/v7e-m+fp/hard\libc_nano.a(lib_a-signal.o)
                              c:/users/luke/desktop/mcha toolchain windows/toolchain/gcc-arm-none-eabi/bin/../lib/gcc/arm-none-eabi/11.2.1/thumb/v7e-m+fp/hard\libc_nano.a(lib_a-abort.o) (raise)
c:/users/luke/desktop/mcha toolchain windows/toolchain/gcc-arm-none-eabi/bin/../lib/gcc/arm-none-eabi/11.2.1/thumb/v7e-m+fp/hard\libc_nano.a(lib_a-signalr.o)
                              c:/users/luke/desktop/mcha toolchain windows/toolchain/gcc-arm-none-eabi/bin/../lib/gcc/arm-none-eabi/11.2.1/thumb/v7e-m+fp/hard\libc_nano.a(lib_a-signal.o) (_kill_r)
c:/users/luke/desktop/mcha toolchain windows/toolchain/gcc-arm-none-eabi/bin/../lib/gcc/arm-none-eabi/11.2.1/thumb/v7e-m+fp/hard\libgcc.a(_arm_muldf3.o)
                              c:/users/luke/desktop/mcha toolchain windows/toolchain/gcc-arm-none-eabi/bin/../lib/gcc/arm-none-eabi/11.2.1/thumb/v7e-m+fp/hard\libc_nano.a(lib_a-strtod.o) (__aeabi_dmul)
c:/users/luke/desktop/mcha toolchain windows/toolchain/gcc-arm-none-eabi/bin/../lib/gcc/arm-none-eabi/11.2.1/thumb/v7e-m+fp/hard\libgcc.a(_arm_addsubdf3.o)
                              c:/users/luke/desktop/mcha toolchain windows/toolchain/gcc-arm-none-eabi/bin/../lib/gcc/arm-none-eabi/11.2.1/thumb/v7e-m+fp/hard\libc_nano.a(lib_a-strtod.o) (__aeabi_dsub)
c:/users/luke/desktop/mcha toolchain windows/toolchain/gcc-arm-none-eabi/bin/../lib/gcc/arm-none-eabi/11.2.1/thumb/v7e-m+fp/hard\libgcc.a(_arm_muldivdf3.o)
                              c:/users/luke/desktop/mcha toolchain windows/toolchain/gcc-arm-none-eabi/bin/../lib/gcc/arm-none-eabi/11.2.1/thumb/v7e-m+fp/hard\libc_nano.a(lib_a-strtod.o) (__aeabi_ddiv)
c:/users/luke/desktop/mcha toolchain windows/toolchain/gcc-arm-none-eabi/bin/../lib/gcc/arm-none-eabi/11.2.1/thumb/v7e-m+fp/hard\libgcc.a(_arm_cmpdf2.o)
                              c:/users/luke/desktop/mcha toolchain windows/toolchain/gcc-arm-none-eabi/bin/../lib/gcc/arm-none-eabi/11.2.1/thumb/v7e-m+fp/hard\libc_nano.a(lib_a-nano-vfprintf_float.o) (__aeabi_dcmpeq)
c:/users/luke/desktop/mcha toolchain windows/toolchain/gcc-arm-none-eabi/bin/../lib/gcc/arm-none-eabi/11.2.1/thumb/v7e-m+fp/hard\libgcc.a(_arm_unorddf2.o)
                              c:/users/luke/desktop/mcha toolchain windows/toolchain/gcc-arm-none-eabi/bin/../lib/gcc/arm-none-eabi/11.2.1/thumb/v7e-m+fp/hard\libc_nano.a(lib_a-nano-vfprintf_float.o) (__aeabi_dcmpun)
c:/users/luke/desktop/mcha toolchain windows/toolchain/gcc-arm-none-eabi/bin/../lib/gcc/arm-none-eabi/11.2.1/thumb/v7e-m+fp/hard\libgcc.a(_arm_fixdfsi.o)
                              c:/users/luke/desktop/mcha toolchain windows/toolchain/gcc-arm-none-eabi/bin/../lib/gcc/arm-none-eabi/11.2.1/thumb/v7e-m+fp/hard\libc_nano.a(lib_a-dtoa.o) (__aeabi_d2iz)
c:/users/luke/desktop/mcha toolchain windows/toolchain/gcc-arm-none-eabi/bin/../lib/gcc/arm-none-eabi/11.2.1/thumb/v7e-m+fp/hard\libgcc.a(_arm_fixunsdfsi.o)
                              c:/users/luke/desktop/mcha toolchain windows/toolchain/gcc-arm-none-eabi/bin/../lib/gcc/arm-none-eabi/11.2.1/thumb/v7e-m+fp/hard\libc_nano.a(lib_a-strtod.o) (__aeabi_d2uiz)
c:/users/luke/desktop/mcha toolchain windows/toolchain/gcc-arm-none-eabi/bin/../lib/gcc/arm-none-eabi/11.2.1/thumb/v7e-m+fp/hard\libgcc.a(_arm_truncdfsf2.o)
                              c:/users/luke/desktop/mcha toolchain windows/toolchain/gcc-arm-none-eabi/bin/../lib/gcc/arm-none-eabi/11.2.1/thumb/v7e-m+fp/hard\libc_nano.a(lib_a-nano-vfscanf_float.o) (__aeabi_d2f)
c:/users/luke/desktop/mcha toolchain windows/toolchain/gcc-arm-none-eabi/bin/../lib/gcc/arm-none-eabi/11.2.1/thumb/v7e-m+fp/hard\libgcc.a(_fixdfdi.o)
                              c:/users/luke/desktop/mcha toolchain windows/toolchain/gcc-arm-none-eabi/bin/../lib/gcc/arm-none-eabi/11.2.1/thumb/v7e-m+fp/hard\libc_nano.a(lib_a-strtod.o) (__aeabi_d2lz)
c:/users/luke/desktop/mcha toolchain windows/toolchain/gcc-arm-none-eabi/bin/../lib/gcc/arm-none-eabi/11.2.1/thumb/v7e-m+fp/hard\libgcc.a(_fixunsdfdi.o)
                              c:/users/luke/desktop/mcha toolchain windows/toolchain/gcc-arm-none-eabi/bin/../lib/gcc/arm-none-eabi/11.2.1/thumb/v7e-m+fp/hard\libgcc.a(_fixdfdi.o) (__aeabi_d2ulz)
c:/users/luke/desktop/mcha toolchain windows/toolchain/gcc-arm-none-eabi/bin/../lib/gcc/arm-none-eabi/11.2.1/thumb/v7e-m+fp/hard\libnosys.a(close.o)
                              c:/users/luke/desktop/mcha toolchain windows/toolchain/gcc-arm-none-eabi/bin/../lib/gcc/arm-none-eabi/11.2.1/thumb/v7e-m+fp/hard\libc_nano.a(lib_a-closer.o) (_close)
c:/users/luke/desktop/mcha toolchain windows/toolchain/gcc-arm-none-eabi/bin/../lib/gcc/arm-none-eabi/11.2.1/thumb/v7e-m+fp/hard\libnosys.a(fstat.o)
                              c:/users/luke/desktop/mcha toolchain windows/toolchain/gcc-arm-none-eabi/bin/../lib/gcc/arm-none-eabi/11.2.1/thumb/v7e-m+fp/hard\libc_nano.a(lib_a-fstatr.o) (_fstat)
c:/users/luke/desktop/mcha toolchain windows/toolchain/gcc-arm-none-eabi/bin/../lib/gcc/arm-none-eabi/11.2.1/thumb/v7e-m+fp/hard\libnosys.a(getpid.o)
                              c:/users/luke/desktop/mcha toolchain windows/toolchain/gcc-arm-none-eabi/bin/../lib/gcc/arm-none-eabi/11.2.1/thumb/v7e-m+fp/hard\libc_nano.a(lib_a-signalr.o) (_getpid)
c:/users/luke/desktop/mcha toolchain windows/toolchain/gcc-arm-none-eabi/bin/../lib/gcc/arm-none-eabi/11.2.1/thumb/v7e-m+fp/hard\libnosys.a(isatty.o)
                              c:/users/luke/desktop/mcha toolchain windows/toolchain/gcc-arm-none-eabi/bin/../lib/gcc/arm-none-eabi/11.2.1/thumb/v7e-m+fp/hard\libc_nano.a(lib_a-isattyr.o) (_isatty)
c:/users/luke/desktop/mcha toolchain windows/toolchain/gcc-arm-none-eabi/bin/../lib/gcc/arm-none-eabi/11.2.1/thumb/v7e-m+fp/hard\libnosys.a(kill.o)
                              c:/users/luke/desktop/mcha toolchain windows/toolchain/gcc-arm-none-eabi/bin/../lib/gcc/arm-none-eabi/11.2.1/thumb/v7e-m+fp/hard\libc_nano.a(lib_a-signalr.o) (_kill)
c:/users/luke/desktop/mcha toolchain windows/toolchain/gcc-arm-none-eabi/bin/../lib/gcc/arm-none-eabi/11.2.1/thumb/v7e-m+fp/hard\libnosys.a(lseek.o)
                              c:/users/luke/desktop/mcha toolchain windows/toolchain/gcc-arm-none-eabi/bin/../lib/gcc/arm-none-eabi/11.2.1/thumb/v7e-m+fp/hard\libc_nano.a(lib_a-lseekr.o) (_lseek)
c:/users/luke/desktop/mcha toolchain windows/toolchain/gcc-arm-none-eabi/bin/../lib/gcc/arm-none-eabi/11.2.1/thumb/v7e-m+fp/hard\libnosys.a(_exit.o)
                              c:/users/luke/desktop/mcha toolchain windows/toolchain/gcc-arm-none-eabi/bin/../lib/gcc/arm-none-eabi/11.2.1/thumb/v7e-m+fp/hard\libc_nano.a(lib_a-exit.o) (_exit)

Memory Configuration

Name             Origin             Length             Attributes
FLASH            0x08000000         0x00080000         xr
RAM              0x20000000         0x00020000         xrw
*default*        0x00000000         0xffffffff

Linker script and memory map

LOAD c:/users/luke/desktop/mcha toolchain windows/toolchain/gcc-arm-none-eabi/bin/../lib/gcc/arm-none-eabi/11.2.1/thumb/v7e-m+fp/hard/crti.o
LOAD c:/users/luke/desktop/mcha toolchain windows/toolchain/gcc-arm-none-eabi/bin/../lib/gcc/arm-none-eabi/11.2.1/thumb/v7e-m+fp/hard/crtbegin.o
LOAD c:/users/luke/desktop/mcha toolchain windows/toolchain/gcc-arm-none-eabi/bin/../lib/gcc/arm-none-eabi/11.2.1/thumb/v7e-m+fp/hard/crt0.o
LOAD build/stm32f4xx_it.o
LOAD build/system_stm32f4xx.o
LOAD build/cmd_line_buffer.o
LOAD build/cmd_parser.o
LOAD build/cmd_task.o
LOAD build/main.o
LOAD build/uart.o
LOAD build/heartbeat_task.o
LOAD build/heartbeat_cmd.o
LOAD build/dummy_task.o
LOAD build/startup_stm32f446xx.o
LOAD build/stm32f4_HAL/stm32f4xx_hal.o
LOAD build/stm32f4_HAL/stm32f4xx_hal_dma.o
LOAD build/stm32f4_HAL/stm32f4xx_hal_adc.o
LOAD build/stm32f4_HAL/stm32f4xx_hal_adc_ex.o
LOAD build/stm32f4_HAL/stm32f4xx_hal_gpio.o
LOAD build/stm32f4_HAL/stm32f4xx_ll_gpio.o
LOAD build/stm32f4_HAL/stm32f4xx_ll_usart.o
LOAD build/stm32f4_HAL/stm32f4xx_ll_dma.o
LOAD build/stm32f4_HAL/stm32f4xx_ll_rcc.o
LOAD build/stm32f4_HAL/stm32f4xx_hal_i2c.o
LOAD build/stm32f4_HAL/stm32f4xx_hal_i2c_ex.o
LOAD build/stm32f4_HAL/stm32f4xx_hal_tim.o
LOAD build/stm32f4_HAL/stm32f4xx_hal_tim_ex.o
LOAD build/stm32f4_HAL/stm32f4xx_hal_rtc.o
LOAD build/stm32f4_HAL/stm32f4xx_hal_rcc.o
LOAD build/stm32f4_HAL/stm32f4xx_hal_rcc_ex.o
LOAD build/stm32f4_HAL/stm32f4xx_hal_pwr.o
LOAD build/stm32f4_HAL/stm32f4xx_hal_pwr_ex.o
LOAD build/stm32f4_HAL/stm32f4xx_hal_cortex.o
LOAD build/stm32f4_HAL/stm32f4xx_hal_spi.o
LOAD build/stm32f4_HAL/stm32f4xx_hal_dac.o
LOAD build/stm32f4_HAL/stm32f4xx_hal_dac_ex.o
LOAD build/stm32f4_HAL/stm32f4xx_hal_can.o
LOAD build/FreeRTOS/croutine.o
LOAD build/FreeRTOS/event_groups.o
LOAD build/FreeRTOS/list.o
LOAD build/FreeRTOS/queue.o
LOAD build/FreeRTOS/tasks.o
LOAD build/FreeRTOS/timers.o
LOAD build/FreeRTOS/stream_buffer.o
LOAD build/FreeRTOS/cmsis_os2.o
LOAD build/FreeRTOS/clib_arm.o
LOAD build/FreeRTOS/os_systick.o
LOAD build/FreeRTOS/heap_useNewlib.o
LOAD build/FreeRTOS/port.o
LOAD c:/users/luke/desktop/mcha toolchain windows/toolchain/gcc-arm-none-eabi/bin/../lib/gcc/arm-none-eabi/11.2.1/thumb/v7e-m+fp/hard\libm.a
LOAD ../../libraries/STM32Cube_F4_FW/Drivers/CMSIS/Lib/GCC/libarm_cortexM4lf_math.a
START GROUP
LOAD c:/users/luke/desktop/mcha toolchain windows/toolchain/gcc-arm-none-eabi/bin/../lib/gcc/arm-none-eabi/11.2.1/thumb/v7e-m+fp/hard\libgcc.a
LOAD c:/users/luke/desktop/mcha toolchain windows/toolchain/gcc-arm-none-eabi/bin/../lib/gcc/arm-none-eabi/11.2.1/thumb/v7e-m+fp/hard\libc_nano.a
END GROUP
START GROUP
LOAD c:/users/luke/desktop/mcha toolchain windows/toolchain/gcc-arm-none-eabi/bin/../lib/gcc/arm-none-eabi/11.2.1/thumb/v7e-m+fp/hard\libgcc.a
LOAD c:/users/luke/desktop/mcha toolchain windows/toolchain/gcc-arm-none-eabi/bin/../lib/gcc/arm-none-eabi/11.2.1/thumb/v7e-m+fp/hard\libc_nano.a
LOAD c:/users/luke/desktop/mcha toolchain windows/toolchain/gcc-arm-none-eabi/bin/../lib/gcc/arm-none-eabi/11.2.1/thumb/v7e-m+fp/hard\libnosys.a
END GROUP
START GROUP
LOAD c:/users/luke/desktop/mcha toolchain windows/toolchain/gcc-arm-none-eabi/bin/../lib/gcc/arm-none-eabi/11.2.1/thumb/v7e-m+fp/hard\libgcc.a
LOAD c:/users/luke/desktop/mcha toolchain windows/toolchain/gcc-arm-none-eabi/bin/../lib/gcc/arm-none-eabi/11.2.1/thumb/v7e-m+fp/hard\libc_nano.a
LOAD c:/users/luke/desktop/mcha toolchain windows/toolchain/gcc-arm-none-eabi/bin/../lib/gcc/arm-none-eabi/11.2.1/thumb/v7e-m+fp/hard\libnosys.a
END GROUP
LOAD c:/users/luke/desktop/mcha toolchain windows/toolchain/gcc-arm-none-eabi/bin/../lib/gcc/arm-none-eabi/11.2.1/thumb/v7e-m+fp/hard/crtend.o
LOAD c:/users/luke/desktop/mcha toolchain windows/toolchain/gcc-arm-none-eabi/bin/../lib/gcc/arm-none-eabi/11.2.1/thumb/v7e-m+fp/hard/crtn.o
                0x20020000                _estack = 0x20020000
                0x00010000                _Min_Heap_Size = 0x10000
                0x00002000                _Min_Stack_Size = 0x2000

.isr_vector     0x08000000      0x1c4
                0x08000000                . = ALIGN (0x4)
 *(.isr_vector)
 .isr_vector    0x08000000      0x1c4 build/startup_stm32f446xx.o
                0x08000000                g_pfnVectors
                0x080001c4                . = ALIGN (0x4)

.text           0x080001d0    0x16560
                0x080001d0                . = ALIGN (0x4)
 *(.text)
 .text          0x080001d0        0x0 c:/users/luke/desktop/mcha toolchain windows/toolchain/gcc-arm-none-eabi/bin/../lib/gcc/arm-none-eabi/11.2.1/thumb/v7e-m+fp/hard/crti.o
 .text          0x080001d0        0x0 c:/users/luke/desktop/mcha toolchain windows/toolchain/gcc-arm-none-eabi/bin/../lib/gcc/arm-none-eabi/11.2.1/thumb/v7e-m+fp/hard/crtbegin.o
 .text          0x080001d0       0x7c c:/users/luke/desktop/mcha toolchain windows/toolchain/gcc-arm-none-eabi/bin/../lib/gcc/arm-none-eabi/11.2.1/thumb/v7e-m+fp/hard/crt0.o
                0x080001d0                _stack_init
                0x080001d8                _start
                0x080001d8                _mainCRTStartup
 .text          0x0800024c        0xc build/stm32f4xx_it.o
                0x0800024c                NMI_Handler
                0x0800024e                HardFault_Handler
                0x08000250                MemManage_Handler
                0x08000252                BusFault_Handler
                0x08000254                UsageFault_Handler
                0x08000256                DebugMon_Handler
 .text          0x08000258       0xb8 build/system_stm32f4xx.o
                0x08000258                SystemInit
                0x080002a4                SystemCoreClockUpdate
 .text          0x08000310      0x104 build/cmd_line_buffer.o
                0x08000310                clb_init
                0x0800031a                clb_is_empty
                0x08000324                clb_is_full
                0x08000332                clb_delc
                0x0800033c                clb_is_cmd_ready
                0x08000354                clb_putc
                0x08000374                clb_consume_char
                0x0800039c                clb_consume_str
                0x080003b6                clb_gets_at
                0x080003ce                clb_gets
                0x080003d4                clb_process
 .text          0x08000414      0x154 build/cmd_parser.o
                0x080004b0                cmd_parse
 .text          0x08000568       0x4c build/cmd_task.o
                0x08000588                cmd_task_init
 .text          0x080005b4        0x0 build/main.o
 .text          0x080005b4      0x47c build/uart.o
                0x080005b4                uart_init
                0x08000884                __wrap_printf
                0x080008bc                __io_putchar
                0x080008ec                __io_getchar
                0x08000908                _write
                0x08000926                _read
                0x0800093a                _uart_rxne_isr
                0x08000964                _uart_txe_isr
                0x0800099c                _uart_error
                0x080009f4                USART2_IRQHandler
 .text          0x08000a30       0xc4 build/heartbeat_task.o
                0x08000a4c                heartbeat_task_init
                0x08000aa8                heartbeat_task_start
                0x08000ac0                heartbeat_task_stop
                0x08000ad8                heartbeat_task_is_running
                0x08000ae4                heartbeat_task_deinit
 .text          0x08000af4       0x70 build/heartbeat_cmd.o
                0x08000af4                heartbeat_cmd
 .text          0x08000b64       0x80 build/dummy_task.o
                0x08000b70                dummy_task_init
                0x08000b98                dummy_task_start
                0x08000bb0                dummy_task_stop
                0x08000bc8                dummy_task_is_running
                0x08000bd4                dummy_task_deinit
 .text          0x08000be4       0x14 build/startup_stm32f446xx.o
 .text          0x08000bf8      0x210 build/stm32f4_HAL/stm32f4xx_hal.o
                0x08000bf8                HAL_MspInit
                0x08000bfa                HAL_MspDeInit
                0x08000bfc                HAL_DeInit
                0x08000c28                HAL_InitTick
                0x08000c6c                HAL_Init
                0x08000ca0                HAL_IncTick
                0x08000cb8                HAL_GetTick
                0x08000cc4                HAL_GetTickPrio
                0x08000cd0                HAL_SetTickFreq
                0x08000cf0                HAL_GetTickFreq
                0x08000cfc                HAL_Delay
                0x08000d24                HAL_SuspendTick
                0x08000d32                HAL_ResumeTick
                0x08000d40                HAL_GetHalVersion
                0x08000d48                HAL_GetREVID
                0x08000d54                HAL_GetDEVID
                0x08000d64                HAL_DBGMCU_EnableDBGSleepMode
                0x08000d74                HAL_DBGMCU_DisableDBGSleepMode
                0x08000d84                HAL_DBGMCU_EnableDBGStopMode
                0x08000d94                HAL_DBGMCU_DisableDBGStopMode
                0x08000da4                HAL_DBGMCU_EnableDBGStandbyMode
                0x08000db4                HAL_DBGMCU_DisableDBGStandbyMode
                0x08000dc4                HAL_EnableCompensationCell
                0x08000dd4                HAL_DisableCompensationCell
                0x08000de4                HAL_GetUIDw0
                0x08000df0                HAL_GetUIDw1
                0x08000dfc                HAL_GetUIDw2
 .text          0x08000e08      0x62c build/stm32f4_HAL/stm32f4xx_hal_dma.o
                0x08000e34                HAL_DMA_Init
                0x08000f30                HAL_DMA_DeInit
                0x08000f84                HAL_DMA_Start
                0x08000fd8                HAL_DMA_Start_IT
                0x0800104c                HAL_DMA_Abort
                0x080010d4                HAL_DMA_Abort_IT
                0x080010f8                HAL_DMA_PollForTransfer
                0x08001206                HAL_DMA_IRQHandler
                0x08001380                HAL_DMA_RegisterCallback
                0x080013c8                HAL_DMA_UnRegisterCallback
                0x0800142a                HAL_DMA_GetState
                0x08001430                HAL_DMA_GetError
 .text          0x08001434      0x9c4 build/stm32f4_HAL/stm32f4xx_hal_adc.o
                0x08001434                HAL_ADC_MspInit
                0x08001436                HAL_ADC_Init
                0x08001584                HAL_ADC_MspDeInit
                0x08001586                HAL_ADC_DeInit
                0x080015ba                HAL_ADC_Start
                0x080016a4                HAL_ADC_Stop
                0x080016da                HAL_ADC_PollForConversion
                0x08001778                HAL_ADC_PollForEvent
                0x080017de                HAL_ADC_Start_IT
                0x080018d4                HAL_ADC_Stop_IT
                0x0800191c                HAL_ADC_Start_DMA
                0x08001a40                HAL_ADC_Stop_DMA
                0x08001a9a                HAL_ADC_GetValue
                0x08001aa0                HAL_ADC_ConvCpltCallback
                0x08001aa2                HAL_ADC_ConvHalfCpltCallback
                0x08001aae                HAL_ADC_LevelOutOfWindowCallback
                0x08001ab0                HAL_ADC_ErrorCallback
                0x08001ab2                HAL_ADC_IRQHandler
                0x08001c5c                HAL_ADC_ConfigChannel
                0x08001d90                HAL_ADC_AnalogWDGConfig
                0x08001dee                HAL_ADC_GetState
                0x08001df2                HAL_ADC_GetError
 .text          0x08001df8      0x6a8 build/stm32f4_HAL/stm32f4xx_hal_adc_ex.o
                0x08001e68                HAL_ADCEx_InjectedStart
                0x08001f1c                HAL_ADCEx_InjectedStart_IT
                0x08001fd8                HAL_ADCEx_InjectedStop
                0x08002032                HAL_ADCEx_InjectedPollForConversion
                0x080020ba                HAL_ADCEx_InjectedStop_IT
                0x0800211c                HAL_ADCEx_InjectedGetValue
                0x0800214e                HAL_ADCEx_MultiModeStart_DMA
                0x08002248                HAL_ADCEx_MultiModeStop_DMA
                0x080022a8                HAL_ADCEx_MultiModeGetValue
                0x080022b4                HAL_ADCEx_InjectedConvCpltCallback
                0x080022b6                HAL_ADCEx_InjectedConfigChannel
                0x08002450                HAL_ADCEx_MultiModeConfigChannel
 .text          0x080024a0      0x32c build/stm32f4_HAL/stm32f4xx_hal_gpio.o
                0x080024a0                HAL_GPIO_Init
                0x0800264c                HAL_GPIO_DeInit
                0x08002764                HAL_GPIO_ReadPin
                0x08002770                HAL_GPIO_WritePin
                0x0800277a                HAL_GPIO_TogglePin
                0x08002788                HAL_GPIO_LockPin
                0x080027b2                HAL_GPIO_EXTI_Callback
                0x080027b4                HAL_GPIO_EXTI_IRQHandler
 .text          0x080027cc      0x220 build/stm32f4_HAL/stm32f4xx_ll_gpio.o
                0x080027ec                LL_GPIO_DeInit
                0x08002898                LL_GPIO_Init
                0x080029d4                LL_GPIO_StructInit
 .text          0x080029ec      0x21c build/stm32f4_HAL/stm32f4xx_ll_usart.o
                0x080029ec                LL_USART_DeInit
                0x08002aac                LL_USART_Init
                0x08002ba8                LL_USART_StructInit
                0x08002bc0                LL_USART_ClockInit
                0x08002bfa                LL_USART_ClockStructInit
 .text          0x08002c08      0x22c build/stm32f4_HAL/stm32f4xx_ll_dma.o
                0x08002c08                LL_DMA_DeInit
                0x08002d8c                LL_DMA_Init
                0x08002e10                LL_DMA_StructInit
 .text          0x08002e34      0x60c build/stm32f4_HAL/stm32f4xx_ll_rcc.o
                0x08002e44                LL_RCC_DeInit
                0x08002ef4                LL_RCC_GetCECClockFreq
                0x08002f20                RCC_GetHCLKClockFreq
                0x08002f38                RCC_GetPCLK1ClockFreq
                0x08002f50                RCC_GetPCLK2ClockFreq
                0x08002f68                RCC_PLL_GetFreqDomain_SYS
                0x08002fb0                RCC_GetSystemClockFreq
                0x08002fe0                LL_RCC_GetSystemClocksFreq
                0x08003002                LL_RCC_GetFMPI2CClockFreq
                0x08003054                RCC_PLL_GetFreqDomain_48M
                0x08003090                RCC_PLL_GetFreqDomain_I2S
                0x080030cc                RCC_PLL_GetFreqDomain_SPDIFRX
                0x080030d0                RCC_PLL_GetFreqDomain_SAI
                0x080030d4                RCC_PLLSAI_GetFreqDomain_SAI
                0x08003124                RCC_PLLSAI_GetFreqDomain_48M
                0x08003168                LL_RCC_GetSDIOClockFreq
                0x080031b0                LL_RCC_GetUSBClockFreq
                0x080031e4                RCC_PLLI2S_GetFreqDomain_SAI
                0x08003234                LL_RCC_GetSAIClockFreq
                0x080032ec                RCC_PLLI2S_GetFreqDomain_SPDIFRX
                0x08003330                LL_RCC_GetSPDIFRXClockFreq
                0x08003364                RCC_PLLI2S_GetFreqDomain_I2S
                0x080033a8                LL_RCC_GetI2SClockFreq
 .text          0x08003440     0x3208 build/stm32f4_HAL/stm32f4xx_hal_i2c.o
                0x08003864                HAL_I2C_MspInit
                0x08003866                HAL_I2C_Init
                0x080039b4                HAL_I2C_MspDeInit
                0x080039b6                HAL_I2C_DeInit
                0x080039e8                HAL_I2C_Master_Transmit
                0x08003b98                HAL_I2C_Master_Receive
                0x08003e78                HAL_I2C_Slave_Transmit
                0x08003fd8                HAL_I2C_Slave_Receive
                0x08004154                HAL_I2C_Master_Transmit_IT
                0x08004204                HAL_I2C_Master_Receive_IT
                0x080042bc                HAL_I2C_Slave_Transmit_IT
                0x0800432c                HAL_I2C_Slave_Receive_IT
                0x0800439c                HAL_I2C_Master_Transmit_DMA
                0x080044c8                HAL_I2C_Master_Receive_DMA
                0x080045f0                HAL_I2C_Slave_Transmit_DMA
                0x080046b0                HAL_I2C_Slave_Receive_DMA
                0x08004770                HAL_I2C_Mem_Write
                0x08004890                HAL_I2C_Mem_Read
                0x08004aa0                HAL_I2C_Mem_Write_IT
                0x08004b5c                HAL_I2C_Mem_Read_IT
                0x08004c28                HAL_I2C_Mem_Write_DMA
                0x08004d7c                HAL_I2C_Mem_Read_DMA
                0x08004f08                HAL_I2C_IsDeviceReady
                0x08005068                HAL_I2C_Master_Seq_Transmit_IT
                0x08005138                HAL_I2C_Master_Seq_Transmit_DMA
                0x080052b0                HAL_I2C_Master_Seq_Receive_IT
                0x080053bc                HAL_I2C_Master_Seq_Receive_DMA
                0x08005588                HAL_I2C_Slave_Seq_Transmit_IT
                0x080055fe                HAL_I2C_Slave_Seq_Transmit_DMA
                0x0800573c                HAL_I2C_Slave_Seq_Receive_IT
                0x080057b2                HAL_I2C_Slave_Seq_Receive_DMA
                0x080058f0                HAL_I2C_EnableListen_IT
                0x08005926                HAL_I2C_DisableListen_IT
                0x08005964                HAL_I2C_MasterTxCpltCallback
                0x08005966                HAL_I2C_MasterRxCpltCallback
                0x08005968                HAL_I2C_SlaveTxCpltCallback
                0x0800596a                HAL_I2C_SlaveRxCpltCallback
                0x0800596c                HAL_I2C_AddrCallback
                0x0800596e                HAL_I2C_ListenCpltCallback
                0x08005970                HAL_I2C_MemTxCpltCallback
                0x08005972                HAL_I2C_MemRxCpltCallback
                0x08005974                HAL_I2C_ErrorCallback
                0x08005ac2                HAL_I2C_AbortCpltCallback
                0x08005c94                HAL_I2C_Master_Abort_IT
                0x08005ce0                HAL_I2C_EV_IRQHandler
                0x08006508                HAL_I2C_ER_IRQHandler
                0x08006638                HAL_I2C_GetState
                0x0800663e                HAL_I2C_GetMode
                0x08006644                HAL_I2C_GetError
 .text          0x08006648       0x7c build/stm32f4_HAL/stm32f4xx_hal_i2c_ex.o
                0x08006648                HAL_I2CEx_ConfigAnalogFilter
                0x08006686                HAL_I2CEx_ConfigDigitalFilter
 .text          0x080066c4     0x1db4 build/stm32f4_HAL/stm32f4xx_hal_tim.o
                0x080067e0                HAL_TIM_Base_MspInit
                0x080067e2                HAL_TIM_Base_MspDeInit
                0x080067e4                HAL_TIM_Base_DeInit
                0x0800681e                HAL_TIM_Base_Start
                0x08006842                HAL_TIM_Base_Stop
                0x08006870                HAL_TIM_Base_Start_IT
                0x08006890                HAL_TIM_Base_Stop_IT
                0x080068ba                HAL_TIM_Base_Start_DMA
                0x08006924                HAL_TIM_Base_Stop_DMA
                0x08006960                HAL_TIM_OC_MspInit
                0x08006962                HAL_TIM_OC_MspDeInit
                0x08006964                HAL_TIM_OC_DeInit
                0x0800699e                HAL_TIM_PWM_MspInit
                0x080069a0                HAL_TIM_PWM_MspDeInit
                0x080069a2                HAL_TIM_PWM_DeInit
                0x080069dc                HAL_TIM_IC_MspInit
                0x080069de                HAL_TIM_IC_MspDeInit
                0x080069e0                HAL_TIM_IC_DeInit
                0x08006a1a                HAL_TIM_OnePulse_MspInit
                0x08006a1c                HAL_TIM_OnePulse_MspDeInit
                0x08006a1e                HAL_TIM_OnePulse_DeInit
                0x08006a58                HAL_TIM_OnePulse_Start
                0x08006a98                HAL_TIM_OnePulse_Stop
                0x08006b00                HAL_TIM_OnePulse_Start_IT
                0x08006b50                HAL_TIM_OnePulse_Stop_IT
                0x08006bc8                HAL_TIM_Encoder_MspInit
                0x08006bca                HAL_TIM_Encoder_MspDeInit
                0x08006bcc                HAL_TIM_Encoder_DeInit
                0x08006c06                HAL_TIM_Encoder_Start
                0x08006c4a                HAL_TIM_Encoder_Stop
                0x08006c92                HAL_TIM_Encoder_Start_IT
                0x08006d00                HAL_TIM_Encoder_Stop_IT
                0x08006d74                HAL_TIM_Encoder_Start_DMA
                0x08006eb4                HAL_TIM_Encoder_Stop_DMA
                0x08006f46                HAL_TIM_DMABurst_WriteStart
                0x08007024                HAL_TIM_DMABurst_WriteStop
                0x08007088                HAL_TIM_DMABurst_ReadStart
                0x0800716c                HAL_TIM_DMABurst_ReadStop
                0x08007170                HAL_TIM_GenerateEvent
                0x08007194                HAL_TIM_ConfigTI1Input
                0x080071a4                HAL_TIM_ReadCapturedValue
                0x080071d0                HAL_TIM_PeriodElapsedCallback
                0x080071e2                HAL_TIM_PeriodElapsedHalfCpltCallback
                0x080071f4                HAL_TIM_OC_DelayElapsedCallback
                0x080071f6                HAL_TIM_IC_CaptureCallback
                0x080071f8                TIM_DMACaptureCplt
                0x08007234                HAL_TIM_IC_CaptureHalfCpltCallback
                0x08007236                TIM_DMACaptureHalfCplt
                0x08007272                HAL_TIM_PWM_PulseFinishedCallback
                0x08007274                TIM_DMADelayPulseCplt
                0x080072b0                HAL_TIM_PWM_PulseFinishedHalfCpltCallback
                0x080072b2                TIM_DMADelayPulseHalfCplt
                0x080072ee                HAL_TIM_TriggerCallback
                0x080072f0                HAL_TIM_IRQHandler
                0x08007444                HAL_TIM_TriggerHalfCpltCallback
                0x08007456                HAL_TIM_ErrorCallback
                0x08007458                TIM_DMAError
                0x08007468                HAL_TIM_Base_GetState
                0x0800746e                HAL_TIM_OC_GetState
                0x08007474                HAL_TIM_PWM_GetState
                0x0800747a                HAL_TIM_IC_GetState
                0x08007480                HAL_TIM_OnePulse_GetState
                0x08007486                HAL_TIM_Encoder_GetState
                0x0800748c                TIM_Base_SetConfig
                0x08007558                HAL_TIM_Base_Init
                0x0800758c                HAL_TIM_OC_Init
                0x080075c0                HAL_TIM_PWM_Init
                0x080075f4                HAL_TIM_IC_Init
                0x08007628                HAL_TIM_OnePulse_Init
                0x0800766e                HAL_TIM_Encoder_Init
                0x08007702                TIM_OC2_SetConfig
                0x08007770                HAL_TIM_OC_ConfigChannel
                0x080077c2                HAL_TIM_PWM_ConfigChannel
                0x0800787a                TIM_TI1_SetConfig
                0x080078f0                HAL_TIM_IC_ConfigChannel
                0x080079fa                HAL_TIM_OnePulse_ConfigChannel
                0x08007b00                TIM_ETR_SetConfig
                0x08007b14                HAL_TIM_ConfigOCrefClear
                0x08007bdc                HAL_TIM_ConfigClockSource
                0x08007da4                HAL_TIM_SlaveConfigSynchro_IT
                0x08007df2                HAL_TIM_SlaveConfigSynchro
                0x08007e40                TIM_CCxChannelCmd
                0x08007e5c                HAL_TIM_OC_Start
                0x08007e98                HAL_TIM_PWM_Start
                0x08007e9c                HAL_TIM_OC_Stop
                0x08007ef4                HAL_TIM_OC_Start_IT
                0x08007f60                HAL_TIM_PWM_Start_IT
                0x08007f64                HAL_TIM_OC_Stop_IT
                0x08007ff0                HAL_TIM_PWM_Stop_IT
                0x08007ff4                HAL_TIM_OC_Start_DMA
                0x08008100                HAL_TIM_PWM_Start_DMA
                0x08008104                HAL_TIM_OC_Stop_DMA
                0x080081b0                HAL_TIM_PWM_Stop_DMA
                0x080081b4                HAL_TIM_PWM_Stop
                0x08008214                HAL_TIM_IC_Start
                0x08008234                HAL_TIM_IC_Stop
                0x0800825e                HAL_TIM_IC_Start_IT
                0x080082b0                HAL_TIM_IC_Stop_IT
                0x0800830c                HAL_TIM_IC_Start_DMA
                0x080083fc                HAL_TIM_IC_Stop_DMA
 .text          0x08008478      0x7f4 build/stm32f4_HAL/stm32f4xx_hal_tim_ex.o
                0x08008494                HAL_TIMEx_HallSensor_MspInit
                0x08008496                HAL_TIMEx_HallSensor_Init
                0x08008544                HAL_TIMEx_HallSensor_MspDeInit
                0x08008546                HAL_TIMEx_HallSensor_DeInit
                0x08008580                HAL_TIMEx_HallSensor_Start
                0x080085a6                HAL_TIMEx_HallSensor_Stop
                0x080085d6                HAL_TIMEx_HallSensor_Start_IT
                0x08008604                HAL_TIMEx_HallSensor_Stop_IT
                0x0800863c                HAL_TIMEx_HallSensor_Start_DMA
                0x080086b8                HAL_TIMEx_HallSensor_Stop_DMA
                0x080086f8                HAL_TIMEx_OCN_Start
                0x08008720                HAL_TIMEx_OCN_Stop
                0x08008766                HAL_TIMEx_OCN_Start_IT
                0x080087b8                HAL_TIMEx_OCN_Stop_IT
                0x08008832                HAL_TIMEx_OCN_Start_DMA
                0x08008900                HAL_TIMEx_OCN_Stop_DMA
                0x08008984                HAL_TIMEx_PWMN_Start
                0x08008988                HAL_TIMEx_PWMN_Stop
                0x0800898c                HAL_TIMEx_PWMN_Start_IT
                0x08008990                HAL_TIMEx_PWMN_Stop_IT
                0x08008994                HAL_TIMEx_PWMN_Start_DMA
                0x08008998                HAL_TIMEx_PWMN_Stop_DMA
                0x0800899c                HAL_TIMEx_OnePulseN_Start
                0x080089b2                HAL_TIMEx_OnePulseN_Stop
                0x080089b6                HAL_TIMEx_OnePulseN_Start_IT
                0x080089dc                HAL_TIMEx_OnePulseN_Stop_IT
                0x08008a32                HAL_TIMEx_ConfigCommutEvent
                0x08008a8c                HAL_TIMEx_ConfigCommutEvent_IT
                0x08008ae6                HAL_TIMEx_ConfigCommutEvent_DMA
                0x08008b5c                HAL_TIMEx_MasterConfigSynchronization
                0x08008bd8                HAL_TIMEx_ConfigBreakDeadTime
                0x08008c24                HAL_TIMEx_RemapConfig
                0x08008c3e                HAL_TIMEx_CommutCallback
                0x08008c40                TIMEx_DMACommutationCplt
                0x08008c50                HAL_TIMEx_CommutHalfCpltCallback
                0x08008c52                TIMEx_DMACommutationHalfCplt
                0x08008c62                HAL_TIMEx_BreakCallback
                0x08008c64                HAL_TIMEx_HallSensor_GetState
 .text          0x08008c6c        0x0 build/stm32f4_HAL/stm32f4xx_hal_rtc.o
 .text          0x08008c6c      0x6b8 build/stm32f4_HAL/stm32f4xx_hal_rcc.o
                0x08008fbc                HAL_RCC_MCOConfig
                0x08009054                HAL_RCC_EnableCSS
                0x08009060                HAL_RCC_DisableCSS
                0x080090c8                HAL_RCC_ClockConfig
                0x080091fc                HAL_RCC_GetHCLKFreq
                0x08009208                HAL_RCC_GetPCLK1Freq
                0x08009228                HAL_RCC_GetPCLK2Freq
                0x080092cc                HAL_RCC_GetClockConfig
                0x08009308                HAL_RCC_CSSCallback
                0x0800930a                HAL_RCC_NMI_IRQHandler
 .text          0x08009324      0xdc4 build/stm32f4_HAL/stm32f4xx_hal_rcc_ex.o
                0x08009324                HAL_RCCEx_PeriphCLKConfig
                0x08009738                HAL_RCCEx_GetPeriphCLKConfig
                0x08009834                HAL_RCCEx_GetPeriphCLKFreq
                0x080099dc                HAL_RCCEx_SelectLSEMode
                0x080099f4                HAL_RCCEx_EnablePLLI2S
                0x08009a68                HAL_RCCEx_DisablePLLI2S
                0x08009a9c                HAL_RCCEx_EnablePLLSAI
                0x08009b0c                HAL_RCCEx_DisablePLLSAI
                0x08009b40                HAL_RCC_GetSysClockFreq
                0x08009bd0                HAL_RCC_DeInit
                0x08009d24                HAL_RCC_OscConfig
                0x0800a05c                HAL_RCC_GetOscConfig
 .text          0x0800a0e8      0x1ac build/stm32f4_HAL/stm32f4xx_hal_pwr.o
                0x0800a0e8                HAL_PWR_DeInit
                0x0800a100                HAL_PWR_EnableBkUpAccess
                0x0800a10c                HAL_PWR_DisableBkUpAccess
                0x0800a118                HAL_PWR_ConfigPVD
                0x0800a188                HAL_PWR_EnablePVD
                0x0800a194                HAL_PWR_DisablePVD
                0x0800a1a0                HAL_PWR_EnableWakeUpPin
                0x0800a1b0                HAL_PWR_DisableWakeUpPin
                0x0800a1c0                HAL_PWR_EnterSLEEPMode
                0x0800a1e0                HAL_PWR_EnterSTOPMode
                0x0800a218                HAL_PWR_EnterSTANDBYMode
                0x0800a238                HAL_PWR_PVDCallback
                0x0800a23a                HAL_PWR_PVD_IRQHandler
                0x0800a254                HAL_PWR_EnableSleepOnExit
                0x0800a264                HAL_PWR_DisableSleepOnExit
                0x0800a274                HAL_PWR_EnableSEVOnPend
                0x0800a284                HAL_PWR_DisableSEVOnPend
 .text          0x0800a294      0x294 build/stm32f4_HAL/stm32f4xx_hal_pwr_ex.o
                0x0800a294                HAL_PWREx_EnableBkUpReg
                0x0800a2c8                HAL_PWREx_DisableBkUpReg
                0x0800a300                HAL_PWREx_EnableFlashPowerDown
                0x0800a30c                HAL_PWREx_DisableFlashPowerDown
                0x0800a318                HAL_PWREx_GetVoltageRange
                0x0800a328                HAL_PWREx_ControlVoltageScaling
                0x0800a3d8                HAL_PWREx_EnableOverDrive
                0x0800a44c                HAL_PWREx_DisableOverDrive
                0x0800a4c0                HAL_PWREx_EnterUnderDriveSTOPMode
 .text          0x0800a528      0x2b0 build/stm32f4_HAL/stm32f4xx_hal_cortex.o
                0x0800a528                HAL_NVIC_SetPriorityGrouping
                0x0800a54c                HAL_NVIC_SetPriority
                0x0800a5b0                HAL_NVIC_EnableIRQ
                0x0800a5cc                HAL_NVIC_DisableIRQ
                0x0800a5f0                HAL_NVIC_SystemReset
                0x0800a614                HAL_SYSTICK_Config
                0x0800a63c                HAL_MPU_Disable
                0x0800a658                HAL_MPU_Enable
                0x0800a678                HAL_MPU_ConfigRegion
                0x0800a6d0                HAL_NVIC_GetPriorityGrouping
                0x0800a6e0                HAL_NVIC_GetPriority
                0x0800a738                HAL_NVIC_SetPendingIRQ
                0x0800a754                HAL_NVIC_GetPendingIRQ
                0x0800a778                HAL_NVIC_ClearPendingIRQ
                0x0800a794                HAL_NVIC_GetActive
                0x0800a7b8                HAL_SYSTICK_CLKSourceConfig
                0x0800a7ce                HAL_SYSTICK_Callback
                0x0800a7d0                HAL_SYSTICK_IRQHandler
 .text          0x0800a7d8     0x1814 build/stm32f4_HAL/stm32f4xx_hal_spi.o
                0x0800a97c                HAL_SPI_MspInit
                0x0800a97e                HAL_SPI_Init
                0x0800aa02                HAL_SPI_MspDeInit
                0x0800aa04                HAL_SPI_DeInit
                0x0800aa30                HAL_SPI_Transmit
                0x0800abaa                HAL_SPI_TransmitReceive
                0x0800ae2e                HAL_SPI_Receive
                0x0800afec                HAL_SPI_Transmit_IT
                0x0800b090                HAL_SPI_TransmitReceive_IT
                0x0800b15c                HAL_SPI_Receive_IT
                0x0800b224                HAL_SPI_Transmit_DMA
                0x0800b2fc                HAL_SPI_TransmitReceive_DMA
                0x0800b420                HAL_SPI_Receive_DMA
                0x0800b51c                HAL_SPI_Abort
                0x0800b644                HAL_SPI_DMAPause
                0x0800b664                HAL_SPI_DMAResume
                0x0800b684                HAL_SPI_DMAStop
                0x0800b6ca                HAL_SPI_TxCpltCallback
                0x0800b6cc                HAL_SPI_RxCpltCallback
                0x0800b6ce                HAL_SPI_TxRxCpltCallback
                0x0800b6d0                HAL_SPI_TxHalfCpltCallback
                0x0800b6dc                HAL_SPI_RxHalfCpltCallback
                0x0800b6e8                HAL_SPI_TxRxHalfCpltCallback
                0x0800b6f4                HAL_SPI_ErrorCallback
                0x0800bcb6                HAL_SPI_IRQHandler
                0x0800bdc0                HAL_SPI_AbortCpltCallback
                0x0800bdc2                HAL_SPI_Abort_IT
                0x0800bfe0                HAL_SPI_GetState
                0x0800bfe6                HAL_SPI_GetError
 .text          0x0800bfec        0x0 build/stm32f4_HAL/stm32f4xx_hal_dac.o
 .text          0x0800bfec        0x0 build/stm32f4_HAL/stm32f4xx_hal_dac_ex.o
 .text          0x0800bfec        0x0 build/stm32f4_HAL/stm32f4xx_hal_can.o
 .text          0x0800bfec        0x0 build/FreeRTOS/croutine.o
 .text          0x0800bfec      0x264 build/FreeRTOS/event_groups.o
                0x0800bfec                xEventGroupCreateStatic
                0x0800c004                xEventGroupCreate
                0x0800c020                xEventGroupWaitBits
                0x0800c0d6                xEventGroupClearBits
                0x0800c0f0                vEventGroupClearBitsCallback
                0x0800c0f4                xEventGroupClearBitsFromISR
                0x0800c104                xEventGroupGetBitsFromISR
                0x0800c120                xEventGroupSetBits
                0x0800c17c                xEventGroupSync
                0x0800c206                vEventGroupSetBitsCallback
                0x0800c20a                vEventGroupDelete
                0x0800c234                xEventGroupSetBitsFromISR
                0x0800c244                uxEventGroupGetNumber
                0x0800c24a                vEventGroupSetNumber
 .text          0x0800c250       0x82 build/FreeRTOS/list.o
                0x0800c250                vListInitialise
                0x0800c266                vListInitialiseItem
                0x0800c26c                vListInsertEnd
                0x0800c284                vListInsert
                0x0800c2b2                uxListRemove
 .text          0x0800c2d2      0x8f2 build/FreeRTOS/queue.o
                0x0800c3ee                xQueueGenericReset
                0x0800c458                xQueueGenericCreateStatic
                0x0800c484                xQueueGenericCreate
                0x0800c4be                xQueueGetMutexHolder
                0x0800c4d8                xQueueGetMutexHolderFromISR
                0x0800c4e4                xQueueCreateCountingSemaphoreStatic
                0x0800c4fe                xQueueCreateCountingSemaphore
                0x0800c510                xQueueGenericSend
                0x0800c614                xQueueCreateMutexStatic
                0x0800c63e                xQueueGiveMutexRecursive
                0x0800c666                xQueueCreateMutex
                0x0800c68a                xQueueGenericSendFromISR
                0x0800c6f4                xQueueGiveFromISR
                0x0800c750                xQueueReceive
                0x0800c83e                xQueueSemaphoreTake
                0x0800c964                xQueueTakeMutexRecursive
                0x0800c994                xQueuePeek
                0x0800ca82                xQueueReceiveFromISR
                0x0800caea                xQueuePeekFromISR
                0x0800cb1a                uxQueueMessagesWaiting
                0x0800cb30                uxQueueSpacesAvailable
                0x0800cb4a                uxQueueMessagesWaitingFromISR
                0x0800cb4e                vQueueDelete
                0x0800cb5a                uxQueueGetQueueNumber
                0x0800cb5e                vQueueSetQueueNumber
                0x0800cb62                ucQueueGetQueueType
                0x0800cb68                xQueueIsQueueEmptyFromISR
                0x0800cb72                xQueueIsQueueFullFromISR
                0x0800cb7e                vQueueWaitForMessageRestricted
 .text          0x0800cbc4     0x12c0 build/FreeRTOS/tasks.o
                0x0800ce84                xTaskCreateStatic
                0x0800ceb8                xTaskCreate
                0x0800cf14                vTaskDelete
                0x0800cf98                eTaskGetState
                0x0800d000                uxTaskPriorityGet
                0x0800d020                uxTaskPriorityGetFromISR
                0x0800d048                vTaskPrioritySet
                0x0800d0f8                vTaskResume
                0x0800d17c                xTaskResumeFromISR
                0x0800d204                vTaskStartScheduler
                0x0800d280                vTaskEndScheduler
                0x0800d2a0                vTaskSuspendAll
                0x0800d2b4                xTaskGetTickCount
                0x0800d2c0                xTaskGetTickCountFromISR
                0x0800d2cc                uxTaskGetNumberOfTasks
                0x0800d2d8                pcTaskGetName
                0x0800d2e8                xTaskIncrementTick
                0x0800d3c8                xTaskResumeAll
                0x0800d48c                vTaskDelayUntil
                0x0800d4dc                vTaskDelay
                0x0800d50a                xTaskCatchUpTicks
                0x0800d528                vTaskSwitchContext
                0x0800d58c                vTaskSuspend
                0x0800d61c                vTaskPlaceOnEventList
                0x0800d63c                vTaskPlaceOnUnorderedEventList
                0x0800d664                vTaskPlaceOnEventListRestricted
                0x0800d68c                xTaskRemoveFromEventList
                0x0800d6f4                vTaskRemoveFromUnorderedEventList
                0x0800d748                vTaskSetTimeOutState
                0x0800d76c                vTaskInternalSetTimeOutState
                0x0800d780                xTaskCheckForTimeOut
                0x0800d7d0                vTaskMissedYield
                0x0800d7e0                uxTaskGetTaskNumber
                0x0800d7e6                vTaskSetTaskNumber
                0x0800d7ec                vTaskGetInfo
                0x0800d8c2                uxTaskGetSystemState
                0x0800d95c                uxTaskGetStackHighWaterMark
                0x0800d97c                xTaskGetCurrentTaskHandle
                0x0800d988                xTaskGetSchedulerState
                0x0800d9a8                xTaskPriorityInherit
                0x0800da28                xTaskPriorityDisinherit
                0x0800da84                vTaskPriorityDisinheritAfterTimeout
                0x0800daf4                uxTaskResetEventItemValue
                0x0800db0c                pvTaskIncrementMutexHeldCount
                0x0800db24                ulTaskNotifyTake
                0x0800db90                xTaskNotifyWait
                0x0800dc24                xTaskGenericNotify
                0x0800dcd4                xTaskGenericNotifyFromISR
                0x0800dd94                vTaskNotifyGiveFromISR
                0x0800de24                xTaskNotifyStateClear
                0x0800de50                ulTaskNotifyValueClear
 .text          0x0800de84      0x4a8 build/FreeRTOS/timers.o
                0x0800df00                xTimerCreateTimerTask
                0x0800df50                xTimerCreate
                0x0800df96                xTimerCreateStatic
                0x0800dfd6                xTimerGenericCommand
                0x0800e234                xTimerGetTimerDaemonTaskHandle
                0x0800e240                xTimerGetPeriod
                0x0800e244                vTimerSetReloadMode
                0x0800e26a                uxTimerGetReloadMode
                0x0800e286                xTimerGetExpiryTime
                0x0800e28a                pcTimerGetName
                0x0800e28e                xTimerIsTimerActive
                0x0800e2aa                pvTimerGetTimerID
                0x0800e2c0                vTimerSetTimerID
                0x0800e2d4                xTimerPendFunctionCallFromISR
                0x0800e2fc                xTimerPendFunctionCall
                0x0800e324                uxTimerGetTimerNumber
                0x0800e328                vTimerSetTimerNumber
 .text          0x0800e32c      0x52a build/FreeRTOS/stream_buffer.o
                0x0800e3cc                xStreamBufferGenericCreate
                0x0800e408                xStreamBufferGenericCreateStatic
                0x0800e448                vStreamBufferDelete
                0x0800e45a                xStreamBufferReset
                0x0800e4a0                xStreamBufferSetTriggerLevel
                0x0800e4b4                xStreamBufferSpacesAvailable
                0x0800e4c8                xStreamBufferBytesAvailable
                0x0800e4ca                xStreamBufferSend
                0x0800e5a8                xStreamBufferSendFromISR
                0x0800e640                xStreamBufferReceive
                0x0800e6f4                xStreamBufferNextMessageLengthBytes
                0x0800e722                xStreamBufferReceiveFromISR
                0x0800e7b2                xStreamBufferIsEmpty
                0x0800e7be                xStreamBufferIsFull
                0x0800e7d6                xStreamBufferSendCompletedFromISR
                0x0800e80e                xStreamBufferReceiveCompletedFromISR
                0x0800e846                uxStreamBufferGetStreamBufferNumber
                0x0800e84a                vStreamBufferSetStreamBufferNumber
                0x0800e84e                ucStreamBufferGetStreamBufferType
 *fill*         0x0800e856        0x2 
 .text          0x0800e858     0x1140 build/FreeRTOS/cmsis_os2.o
                0x0800e896                SysTick_Handler
                0x0800e8b0                osKernelInitialize
                0x0800e8dc                osKernelGetInfo
                0x0800e908                osKernelGetState
                0x0800e928                osKernelStart
                0x0800e968                osKernelLock
                0x0800e994                osKernelUnlock
                0x0800e9cc                osKernelRestoreLock
                0x0800ea10                osKernelGetTickCount
                0x0800ea28                osKernelGetTickFreq
                0x0800ea2e                osKernelGetSysTimerCount
                0x0800ea6e                osKernelGetSysTimerFreq
                0x0800ea78                osThreadNew
                0x0800eb0c                osThreadGetName
                0x0800eb26                osThreadGetId
                0x0800eb2a                osThreadGetState
                0x0800eb54                osThreadGetStackSpace
                0x0800eb6e                osThreadSetPriority
                0x0800eb9c                osThreadGetPriority
                0x0800ebb8                osThreadYield
                0x0800ebdc                osThreadSuspend
                0x0800ec00                osThreadResume
                0x0800ec24                osThreadExit
                0x0800ec2e                osThreadTerminate
                0x0800ec62                osThreadGetCount
                0x0800ec76                osThreadEnumerate
                0x0800ece0                osThreadFlagsSet
                0x0800ed5e                osThreadFlagsClear
                0x0800edae                osThreadFlagsGet
                0x0800eddc                osThreadFlagsWait
                0x0800ee76                osDelay
                0x0800ee94                osDelayUntil
                0x0800eec4                osTimerNew
                0x0800ef3c                osTimerGetName
                0x0800ef56                osTimerStart
                0x0800ef8c                osTimerStop
                0x0800efce                osTimerIsRunning
                0x0800efe8                osTimerDelete
                0x0800f02e                osEventFlagsNew
                0x0800f05a                osEventFlagsSet
                0x0800f0b4                osEventFlagsClear
                0x0800f0fa                osEventFlagsGet
                0x0800f11c                osEventFlagsWait
                0x0800f180                osEventFlagsDelete
                0x0800f1a4                osMutexNew
                0x0800f1fc                osMutexAcquire
                0x0800f242                osMutexRelease
                0x0800f282                osMutexGetOwner
                0x0800f29e                osMutexDelete
                0x0800f2c4                osSemaphoreNew
                0x0800f352                osSemaphoreAcquire
                0x0800f3b4                osSemaphoreRelease
                0x0800f40c                osSemaphoreGetCount
                0x0800f42e                osSemaphoreDelete
                0x0800f452                osMessageQueueNew
                0x0800f4b6                osMessageQueuePut
                0x0800f524                osMessageQueueGet
                0x0800f58e                osMessageQueueGetCapacity
                0x0800f594                osMessageQueueGetMsgSize
                0x0800f59a                osMessageQueueGetCount
                0x0800f59e                osMessageQueueGetSpace
                0x0800f5d4                osMessageQueueReset
                0x0800f5fa                osMessageQueueDelete
                0x0800f5fe                osMemoryPoolNew
                0x0800f6ec                osMemoryPoolGetName
                0x0800f702                osMemoryPoolAlloc
                0x0800f7b8                osMemoryPoolFree
                0x0800f874                osMemoryPoolGetCapacity
                0x0800f88c                osMemoryPoolGetBlockSize
                0x0800f8a4                osMemoryPoolGetCount
                0x0800f8d4                osMemoryPoolGetSpace
                0x0800f904                osMemoryPoolDelete
                0x0800f960                vApplicationGetIdleTaskMemory
                0x0800f97c                vApplicationGetTimerTaskMemory
 .text          0x0800f998        0x2 build/FreeRTOS/clib_arm.o
                0x0800f998                software_init_hook
 *fill*         0x0800f99a        0x2 
 .text          0x0800f99c       0xd0 build/FreeRTOS/os_systick.o
                0x0800f99c                OS_Tick_Setup
                0x0800f9dc                OS_Tick_Enable
                0x0800fa04                OS_Tick_Disable
                0x0800fa30                OS_Tick_AcknowledgeIRQ
                0x0800fa38                OS_Tick_GetIRQn
                0x0800fa3e                OS_Tick_GetClock
                0x0800fa48                OS_Tick_GetInterval
                0x0800fa52                OS_Tick_GetCount
                0x0800fa5e                OS_Tick_GetOverflow
 .text          0x0800fa6c       0x8c build/FreeRTOS/heap_useNewlib.o
                0x0800fa6c                sbrk
                0x0800fabc                _sbrk
                0x0800fac0                __malloc_lock
                0x0800fac4                __malloc_unlock
                0x0800fac8                __env_lock
                0x0800facc                __env_unlock
                0x0800fad0                pvPortMalloc
                0x0800fad4                vPortFree
                0x0800fad8                xPortGetFreeHeapSize
                0x0800faf4                vPortInitialiseBlocks
 *fill*         0x0800faf8        0x8 
 .text          0x0800fb00      0x1ec build/FreeRTOS/port.o
                0x0800fb50                pxPortInitialiseStack
                0x0800fb7c                SVC_Handler
                0x0800fba4                vPortEndScheduler
                0x0800fba6                vPortEnterCritical
                0x0800fbc4                vPortExitCritical
                0x0800fbd8                PendSV_Handler
                0x0800fc44                xPortSysTickHandler
                0x0800fc74                vPortSetupTimerInterrupt
                0x0800fc98                xPortStartScheduler
 .text          0x0800fcec       0xa0 c:/users/luke/desktop/mcha toolchain windows/toolchain/gcc-arm-none-eabi/bin/../lib/gcc/arm-none-eabi/11.2.1/thumb/v7e-m+fp/hard\libgcc.a(_aeabi_ldivmod.o)
                0x0800fcec                __aeabi_ldivmod
 .text          0x0800fd8c       0x30 c:/users/luke/desktop/mcha toolchain windows/toolchain/gcc-arm-none-eabi/bin/../lib/gcc/arm-none-eabi/11.2.1/thumb/v7e-m+fp/hard\libgcc.a(_aeabi_uldivmod.o)
                0x0800fd8c                __aeabi_uldivmod
 .text          0x0800fdbc        0x0 c:/users/luke/desktop/mcha toolchain windows/toolchain/gcc-arm-none-eabi/bin/../lib/gcc/arm-none-eabi/11.2.1/thumb/v7e-m+fp/hard\libgcc.a(_udivmoddi4.o)
 .text          0x0800fdbc        0x4 c:/users/luke/desktop/mcha toolchain windows/toolchain/gcc-arm-none-eabi/bin/../lib/gcc/arm-none-eabi/11.2.1/thumb/v7e-m+fp/hard\libgcc.a(_dvmd_tls.o)
                0x0800fdbc                __aeabi_idiv0
                0x0800fdbc                __aeabi_ldiv0
 .text          0x0800fdc0        0x0 c:/users/luke/desktop/mcha toolchain windows/toolchain/gcc-arm-none-eabi/bin/../lib/gcc/arm-none-eabi/11.2.1/thumb/v7e-m+fp/hard\libc_nano.a(lib_a-ctype_.o)
 .text          0x0800fdc0        0x0 c:/users/luke/desktop/mcha toolchain windows/toolchain/gcc-arm-none-eabi/bin/../lib/gcc/arm-none-eabi/11.2.1/thumb/v7e-m+fp/hard\libc_nano.a(lib_a-exit.o)
 .text          0x0800fdc0        0x0 c:/users/luke/desktop/mcha toolchain windows/toolchain/gcc-arm-none-eabi/bin/../lib/gcc/arm-none-eabi/11.2.1/thumb/v7e-m+fp/hard\libc_nano.a(lib_a-getchar.o)
 .text          0x0800fdc0        0x0 c:/users/luke/desktop/mcha toolchain windows/toolchain/gcc-arm-none-eabi/bin/../lib/gcc/arm-none-eabi/11.2.1/thumb/v7e-m+fp/hard\libc_nano.a(lib_a-getc.o)
 .text          0x0800fdc0        0x0 c:/users/luke/desktop/mcha toolchain windows/toolchain/gcc-arm-none-eabi/bin/../lib/gcc/arm-none-eabi/11.2.1/thumb/v7e-m+fp/hard\libc_nano.a(lib_a-impure.o)
 .text          0x0800fdc0        0x0 c:/users/luke/desktop/mcha toolchain windows/toolchain/gcc-arm-none-eabi/bin/../lib/gcc/arm-none-eabi/11.2.1/thumb/v7e-m+fp/hard\libc_nano.a(lib_a-init.o)
 .text          0x0800fdc0        0x0 c:/users/luke/desktop/mcha toolchain windows/toolchain/gcc-arm-none-eabi/bin/../lib/gcc/arm-none-eabi/11.2.1/thumb/v7e-m+fp/hard\libc_nano.a(lib_a-malloc.o)
 .text          0x0800fdc0        0x0 c:/users/luke/desktop/mcha toolchain windows/toolchain/gcc-arm-none-eabi/bin/../lib/gcc/arm-none-eabi/11.2.1/thumb/v7e-m+fp/hard\libc_nano.a(lib_a-memcpy-stub.o)
 .text          0x0800fdc0        0x0 c:/users/luke/desktop/mcha toolchain windows/toolchain/gcc-arm-none-eabi/bin/../lib/gcc/arm-none-eabi/11.2.1/thumb/v7e-m+fp/hard\libc_nano.a(lib_a-memset.o)
 .text          0x0800fdc0        0x0 c:/users/luke/desktop/mcha toolchain windows/toolchain/gcc-arm-none-eabi/bin/../lib/gcc/arm-none-eabi/11.2.1/thumb/v7e-m+fp/hard\libc_nano.a(lib_a-mstats.o)
 .text          0x0800fdc0        0x0 c:/users/luke/desktop/mcha toolchain windows/toolchain/gcc-arm-none-eabi/bin/../lib/gcc/arm-none-eabi/11.2.1/thumb/v7e-m+fp/hard\libc_nano.a(lib_a-nano-freer.o)
 .text          0x0800fdc0        0x0 c:/users/luke/desktop/mcha toolchain windows/toolchain/gcc-arm-none-eabi/bin/../lib/gcc/arm-none-eabi/11.2.1/thumb/v7e-m+fp/hard\libc_nano.a(lib_a-nano-mallinfor.o)
 .text          0x0800fdc0        0x0 c:/users/luke/desktop/mcha toolchain windows/toolchain/gcc-arm-none-eabi/bin/../lib/gcc/arm-none-eabi/11.2.1/thumb/v7e-m+fp/hard\libc_nano.a(lib_a-nano-mallocr.o)
 .text          0x0800fdc0        0x0 c:/users/luke/desktop/mcha toolchain windows/toolchain/gcc-arm-none-eabi/bin/../lib/gcc/arm-none-eabi/11.2.1/thumb/v7e-m+fp/hard\libc_nano.a(lib_a-nano-malloptr.o)
 .text          0x0800fdc0        0x0 c:/users/luke/desktop/mcha toolchain windows/toolchain/gcc-arm-none-eabi/bin/../lib/gcc/arm-none-eabi/11.2.1/thumb/v7e-m+fp/hard\libc_nano.a(lib_a-nano-mallstatsr.o)
 .text          0x0800fdc0        0x0 c:/users/luke/desktop/mcha toolchain windows/toolchain/gcc-arm-none-eabi/bin/../lib/gcc/arm-none-eabi/11.2.1/thumb/v7e-m+fp/hard\libc_nano.a(lib_a-nano-vfprintf_float.o)
 .text          0x0800fdc0        0x0 c:/users/luke/desktop/mcha toolchain windows/toolchain/gcc-arm-none-eabi/bin/../lib/gcc/arm-none-eabi/11.2.1/thumb/v7e-m+fp/hard\libc_nano.a(lib_a-nano-vfprintf_i.o)
 .text          0x0800fdc0        0x0 c:/users/luke/desktop/mcha toolchain windows/toolchain/gcc-arm-none-eabi/bin/../lib/gcc/arm-none-eabi/11.2.1/thumb/v7e-m+fp/hard\libc_nano.a(lib_a-nano-vfscanf_float.o)
 .text          0x0800fdc0        0x0 c:/users/luke/desktop/mcha toolchain windows/toolchain/gcc-arm-none-eabi/bin/../lib/gcc/arm-none-eabi/11.2.1/thumb/v7e-m+fp/hard\libc_nano.a(lib_a-printf.o)
 .text          0x0800fdc0        0x0 c:/users/luke/desktop/mcha toolchain windows/toolchain/gcc-arm-none-eabi/bin/../lib/gcc/arm-none-eabi/11.2.1/thumb/v7e-m+fp/hard\libc_nano.a(lib_a-reent.o)
 .text          0x0800fdc0        0x0 c:/users/luke/desktop/mcha toolchain windows/toolchain/gcc-arm-none-eabi/bin/../lib/gcc/arm-none-eabi/11.2.1/thumb/v7e-m+fp/hard\libc_nano.a(lib_a-rget.o)
 .text          0x0800fdc0        0x0 c:/users/luke/desktop/mcha toolchain windows/toolchain/gcc-arm-none-eabi/bin/../lib/gcc/arm-none-eabi/11.2.1/thumb/v7e-m+fp/hard\libc_nano.a(lib_a-sbrkr.o)
 .text          0x0800fdc0        0x0 c:/users/luke/desktop/mcha toolchain windows/toolchain/gcc-arm-none-eabi/bin/../lib/gcc/arm-none-eabi/11.2.1/thumb/v7e-m+fp/hard\libc_nano.a(lib_a-setvbuf.o)
 .text          0x0800fdc0        0x0 c:/users/luke/desktop/mcha toolchain windows/toolchain/gcc-arm-none-eabi/bin/../lib/gcc/arm-none-eabi/11.2.1/thumb/v7e-m+fp/hard\libc_nano.a(lib_a-sf_nan.o)
 .text          0x0800fdc0        0x0 c:/users/luke/desktop/mcha toolchain windows/toolchain/gcc-arm-none-eabi/bin/../lib/gcc/arm-none-eabi/11.2.1/thumb/v7e-m+fp/hard\libc_nano.a(lib_a-sprintf.o)
 .text          0x0800fdc0       0x14 c:/users/luke/desktop/mcha toolchain windows/toolchain/gcc-arm-none-eabi/bin/../lib/gcc/arm-none-eabi/11.2.1/thumb/v7e-m+fp/hard\libc_nano.a(lib_a-strcmp.o)
                0x0800fdc0                strcmp
 .text          0x0800fdd4       0x10 c:/users/luke/desktop/mcha toolchain windows/toolchain/gcc-arm-none-eabi/bin/../lib/gcc/arm-none-eabi/11.2.1/thumb/v7e-m+fp/hard\libc_nano.a(lib_a-strlen.o)
                0x0800fdd4                strlen
 .text          0x0800fde4        0x0 c:/users/luke/desktop/mcha toolchain windows/toolchain/gcc-arm-none-eabi/bin/../lib/gcc/arm-none-eabi/11.2.1/thumb/v7e-m+fp/hard\libc_nano.a(lib_a-strtod.o)
 .text          0x0800fde4        0x0 c:/users/luke/desktop/mcha toolchain windows/toolchain/gcc-arm-none-eabi/bin/../lib/gcc/arm-none-eabi/11.2.1/thumb/v7e-m+fp/hard\libc_nano.a(lib_a-strtol.o)
 .text          0x0800fde4        0x0 c:/users/luke/desktop/mcha toolchain windows/toolchain/gcc-arm-none-eabi/bin/../lib/gcc/arm-none-eabi/11.2.1/thumb/v7e-m+fp/hard\libc_nano.a(lib_a-vprintf.o)
 .text          0x0800fde4        0x0 c:/users/luke/desktop/mcha toolchain windows/toolchain/gcc-arm-none-eabi/bin/../lib/gcc/arm-none-eabi/11.2.1/thumb/v7e-m+fp/hard\libc_nano.a(lib_a-dtoa.o)
 .text          0x0800fde4        0x0 c:/users/luke/desktop/mcha toolchain windows/toolchain/gcc-arm-none-eabi/bin/../lib/gcc/arm-none-eabi/11.2.1/thumb/v7e-m+fp/hard\libc_nano.a(lib_a-errno.o)
 .text          0x0800fde4        0x0 c:/users/luke/desktop/mcha toolchain windows/toolchain/gcc-arm-none-eabi/bin/../lib/gcc/arm-none-eabi/11.2.1/thumb/v7e-m+fp/hard\libc_nano.a(lib_a-fflush.o)
 .text          0x0800fde4        0x0 c:/users/luke/desktop/mcha toolchain windows/toolchain/gcc-arm-none-eabi/bin/../lib/gcc/arm-none-eabi/11.2.1/thumb/v7e-m+fp/hard\libc_nano.a(lib_a-findfp.o)
 .text          0x0800fde4        0x0 c:/users/luke/desktop/mcha toolchain windows/toolchain/gcc-arm-none-eabi/bin/../lib/gcc/arm-none-eabi/11.2.1/thumb/v7e-m+fp/hard\libc_nano.a(lib_a-fprintf.o)
 .text          0x0800fde4        0x0 c:/users/luke/desktop/mcha toolchain windows/toolchain/gcc-arm-none-eabi/bin/../lib/gcc/arm-none-eabi/11.2.1/thumb/v7e-m+fp/hard\libc_nano.a(lib_a-fwalk.o)
 .text          0x0800fde4        0x0 c:/users/luke/desktop/mcha toolchain windows/toolchain/gcc-arm-none-eabi/bin/../lib/gcc/arm-none-eabi/11.2.1/thumb/v7e-m+fp/hard\libc_nano.a(lib_a-gdtoa-gethex.o)
 .text          0x0800fde4        0x0 c:/users/luke/desktop/mcha toolchain windows/toolchain/gcc-arm-none-eabi/bin/../lib/gcc/arm-none-eabi/11.2.1/thumb/v7e-m+fp/hard\libc_nano.a(lib_a-gdtoa-hexnan.o)
 .text          0x0800fde4        0x0 c:/users/luke/desktop/mcha toolchain windows/toolchain/gcc-arm-none-eabi/bin/../lib/gcc/arm-none-eabi/11.2.1/thumb/v7e-m+fp/hard\libc_nano.a(lib_a-lnumeric.o)
 .text          0x0800fde4        0x0 c:/users/luke/desktop/mcha toolchain windows/toolchain/gcc-arm-none-eabi/bin/../lib/gcc/arm-none-eabi/11.2.1/thumb/v7e-m+fp/hard\libc_nano.a(lib_a-localeconv.o)
 .text          0x0800fde4        0x0 c:/users/luke/desktop/mcha toolchain windows/toolchain/gcc-arm-none-eabi/bin/../lib/gcc/arm-none-eabi/11.2.1/thumb/v7e-m+fp/hard\libc_nano.a(lib_a-locale.o)
 .text          0x0800fde4        0x0 c:/users/luke/desktop/mcha toolchain windows/toolchain/gcc-arm-none-eabi/bin/../lib/gcc/arm-none-eabi/11.2.1/thumb/v7e-m+fp/hard\libc_nano.a(lib_a-makebuf.o)
 .text          0x0800fde4        0x0 c:/users/luke/desktop/mcha toolchain windows/toolchain/gcc-arm-none-eabi/bin/../lib/gcc/arm-none-eabi/11.2.1/thumb/v7e-m+fp/hard\libc_nano.a(lib_a-mbtowc_r.o)
 *fill*         0x0800fde4        0xc 
 .text          0x0800fdf0       0xa0 c:/users/luke/desktop/mcha toolchain windows/toolchain/gcc-arm-none-eabi/bin/../lib/gcc/arm-none-eabi/11.2.1/thumb/v7e-m+fp/hard\libc_nano.a(lib_a-memchr.o)
                0x0800fdf0                memchr
 .text          0x0800fe90        0x0 c:/users/luke/desktop/mcha toolchain windows/toolchain/gcc-arm-none-eabi/bin/../lib/gcc/arm-none-eabi/11.2.1/thumb/v7e-m+fp/hard\libc_nano.a(lib_a-mprec.o)
 .text          0x0800fe90        0x0 c:/users/luke/desktop/mcha toolchain windows/toolchain/gcc-arm-none-eabi/bin/../lib/gcc/arm-none-eabi/11.2.1/thumb/v7e-m+fp/hard\libc_nano.a(lib_a-nano-callocr.o)
 .text          0x0800fe90        0x0 c:/users/luke/desktop/mcha toolchain windows/toolchain/gcc-arm-none-eabi/bin/../lib/gcc/arm-none-eabi/11.2.1/thumb/v7e-m+fp/hard\libc_nano.a(lib_a-nano-svfprintf.o)
 .text          0x0800fe90        0x0 c:/users/luke/desktop/mcha toolchain windows/toolchain/gcc-arm-none-eabi/bin/../lib/gcc/arm-none-eabi/11.2.1/thumb/v7e-m+fp/hard\libc_nano.a(lib_a-nano-vfprintf.o)
 .text          0x0800fe90        0x0 c:/users/luke/desktop/mcha toolchain windows/toolchain/gcc-arm-none-eabi/bin/../lib/gcc/arm-none-eabi/11.2.1/thumb/v7e-m+fp/hard\libc_nano.a(lib_a-refill.o)
 .text          0x0800fe90        0x0 c:/users/luke/desktop/mcha toolchain windows/toolchain/gcc-arm-none-eabi/bin/../lib/gcc/arm-none-eabi/11.2.1/thumb/v7e-m+fp/hard\libc_nano.a(lib_a-s_nan.o)
 .text          0x0800fe90        0x0 c:/users/luke/desktop/mcha toolchain windows/toolchain/gcc-arm-none-eabi/bin/../lib/gcc/arm-none-eabi/11.2.1/thumb/v7e-m+fp/hard\libc_nano.a(lib_a-stdio.o)
 .text          0x0800fe90        0x0 c:/users/luke/desktop/mcha toolchain windows/toolchain/gcc-arm-none-eabi/bin/../lib/gcc/arm-none-eabi/11.2.1/thumb/v7e-m+fp/hard\libc_nano.a(lib_a-strncmp.o)
 .text          0x0800fe90        0x0 c:/users/luke/desktop/mcha toolchain windows/toolchain/gcc-arm-none-eabi/bin/../lib/gcc/arm-none-eabi/11.2.1/thumb/v7e-m+fp/hard\libc_nano.a(lib_a-wbuf.o)
 .text          0x0800fe90        0x0 c:/users/luke/desktop/mcha toolchain windows/toolchain/gcc-arm-none-eabi/bin/../lib/gcc/arm-none-eabi/11.2.1/thumb/v7e-m+fp/hard\libc_nano.a(lib_a-wctomb_r.o)
 .text          0x0800fe90        0x0 c:/users/luke/desktop/mcha toolchain windows/toolchain/gcc-arm-none-eabi/bin/../lib/gcc/arm-none-eabi/11.2.1/thumb/v7e-m+fp/hard\libc_nano.a(lib_a-writer.o)
 .text          0x0800fe90        0x0 c:/users/luke/desktop/mcha toolchain windows/toolchain/gcc-arm-none-eabi/bin/../lib/gcc/arm-none-eabi/11.2.1/thumb/v7e-m+fp/hard\libc_nano.a(lib_a-wsetup.o)
 .text          0x0800fe90        0x0 c:/users/luke/desktop/mcha toolchain windows/toolchain/gcc-arm-none-eabi/bin/../lib/gcc/arm-none-eabi/11.2.1/thumb/v7e-m+fp/hard\libc_nano.a(lib_a-assert.o)
 .text          0x0800fe90        0x0 c:/users/luke/desktop/mcha toolchain windows/toolchain/gcc-arm-none-eabi/bin/../lib/gcc/arm-none-eabi/11.2.1/thumb/v7e-m+fp/hard\libc_nano.a(lib_a-closer.o)
 .text          0x0800fe90        0x0 c:/users/luke/desktop/mcha toolchain windows/toolchain/gcc-arm-none-eabi/bin/../lib/gcc/arm-none-eabi/11.2.1/thumb/v7e-m+fp/hard\libc_nano.a(lib_a-fstatr.o)
 .text          0x0800fe90        0x0 c:/users/luke/desktop/mcha toolchain windows/toolchain/gcc-arm-none-eabi/bin/../lib/gcc/arm-none-eabi/11.2.1/thumb/v7e-m+fp/hard\libc_nano.a(lib_a-fvwrite.o)
 .text          0x0800fe90        0x0 c:/users/luke/desktop/mcha toolchain windows/toolchain/gcc-arm-none-eabi/bin/../lib/gcc/arm-none-eabi/11.2.1/thumb/v7e-m+fp/hard\libc_nano.a(lib_a-isattyr.o)
 .text          0x0800fe90        0x0 c:/users/luke/desktop/mcha toolchain windows/toolchain/gcc-arm-none-eabi/bin/../lib/gcc/arm-none-eabi/11.2.1/thumb/v7e-m+fp/hard\libc_nano.a(lib_a-lseekr.o)
 .text          0x0800fe90        0x0 c:/users/luke/desktop/mcha toolchain windows/toolchain/gcc-arm-none-eabi/bin/../lib/gcc/arm-none-eabi/11.2.1/thumb/v7e-m+fp/hard\libc_nano.a(lib_a-memmove.o)
 .text          0x0800fe90        0x0 c:/users/luke/desktop/mcha toolchain windows/toolchain/gcc-arm-none-eabi/bin/../lib/gcc/arm-none-eabi/11.2.1/thumb/v7e-m+fp/hard\libc_nano.a(lib_a-nano-reallocr.o)
 .text          0x0800fe90        0x0 c:/users/luke/desktop/mcha toolchain windows/toolchain/gcc-arm-none-eabi/bin/../lib/gcc/arm-none-eabi/11.2.1/thumb/v7e-m+fp/hard\libc_nano.a(lib_a-readr.o)
 .text          0x0800fe90        0x0 c:/users/luke/desktop/mcha toolchain windows/toolchain/gcc-arm-none-eabi/bin/../lib/gcc/arm-none-eabi/11.2.1/thumb/v7e-m+fp/hard\libc_nano.a(lib_a-abort.o)
 .text          0x0800fe90        0x0 c:/users/luke/desktop/mcha toolchain windows/toolchain/gcc-arm-none-eabi/bin/../lib/gcc/arm-none-eabi/11.2.1/thumb/v7e-m+fp/hard\libc_nano.a(lib_a-nano-msizer.o)
 .text          0x0800fe90        0x0 c:/users/luke/desktop/mcha toolchain windows/toolchain/gcc-arm-none-eabi/bin/../lib/gcc/arm-none-eabi/11.2.1/thumb/v7e-m+fp/hard\libc_nano.a(lib_a-signal.o)
 .text          0x0800fe90        0x0 c:/users/luke/desktop/mcha toolchain windows/toolchain/gcc-arm-none-eabi/bin/../lib/gcc/arm-none-eabi/11.2.1/thumb/v7e-m+fp/hard\libc_nano.a(lib_a-signalr.o)
 .text          0x0800fe90      0x254 c:/users/luke/desktop/mcha toolchain windows/toolchain/gcc-arm-none-eabi/bin/../lib/gcc/arm-none-eabi/11.2.1/thumb/v7e-m+fp/hard\libgcc.a(_arm_muldf3.o)
 .text          0x080100e4      0x378 c:/users/luke/desktop/mcha toolchain windows/toolchain/gcc-arm-none-eabi/bin/../lib/gcc/arm-none-eabi/11.2.1/thumb/v7e-m+fp/hard\libgcc.a(_arm_addsubdf3.o)
                0x080100e4                __aeabi_drsub
                0x080100ec                __aeabi_dsub
                0x080100ec                __subdf3
                0x080100f0                __aeabi_dadd
                0x080100f0                __adddf3
                0x08010368                __floatunsidf
                0x08010368                __aeabi_ui2d
                0x08010388                __floatsidf
                0x08010388                __aeabi_i2d
                0x080103ac                __aeabi_f2d
                0x080103ac                __extendsfdf2
                0x080103f0                __floatundidf
                0x080103f0                __aeabi_ul2d
                0x08010400                __floatdidf
                0x08010400                __aeabi_l2d
 .text          0x0801045c      0x424 c:/users/luke/desktop/mcha toolchain windows/toolchain/gcc-arm-none-eabi/bin/../lib/gcc/arm-none-eabi/11.2.1/thumb/v7e-m+fp/hard\libgcc.a(_arm_muldivdf3.o)
                0x0801045c                __aeabi_dmul
                0x0801045c                __muldf3
                0x080106b0                __divdf3
                0x080106b0                __aeabi_ddiv
 .text          0x08010880      0x110 c:/users/luke/desktop/mcha toolchain windows/toolchain/gcc-arm-none-eabi/bin/../lib/gcc/arm-none-eabi/11.2.1/thumb/v7e-m+fp/hard\libgcc.a(_arm_cmpdf2.o)
                0x08010880                __gtdf2
                0x08010880                __gedf2
                0x08010888                __ltdf2
                0x08010888                __ledf2
                0x08010890                __nedf2
                0x08010890                __eqdf2
                0x08010890                __cmpdf2
                0x0801090c                __aeabi_cdrcmple
                0x0801091c                __aeabi_cdcmpeq
                0x0801091c                __aeabi_cdcmple
                0x0801092c                __aeabi_dcmpeq
                0x08010940                __aeabi_dcmplt
                0x08010954                __aeabi_dcmple
                0x08010968                __aeabi_dcmpge
                0x0801097c                __aeabi_dcmpgt
 .text          0x08010990       0x2c c:/users/luke/desktop/mcha toolchain windows/toolchain/gcc-arm-none-eabi/bin/../lib/gcc/arm-none-eabi/11.2.1/thumb/v7e-m+fp/hard\libgcc.a(_arm_unorddf2.o)
                0x08010990                __unorddf2
                0x08010990                __aeabi_dcmpun
 .text          0x080109bc       0x50 c:/users/luke/desktop/mcha toolchain windows/toolchain/gcc-arm-none-eabi/bin/../lib/gcc/arm-none-eabi/11.2.1/thumb/v7e-m+fp/hard\libgcc.a(_arm_fixdfsi.o)
                0x080109bc                __aeabi_d2iz
                0x080109bc                __fixdfsi
 .text          0x08010a0c       0x40 c:/users/luke/desktop/mcha toolchain windows/toolchain/gcc-arm-none-eabi/bin/../lib/gcc/arm-none-eabi/11.2.1/thumb/v7e-m+fp/hard\libgcc.a(_arm_fixunsdfsi.o)
                0x08010a0c                __aeabi_d2uiz
                0x08010a0c                __fixunsdfsi
 .text          0x08010a4c       0xa0 c:/users/luke/desktop/mcha toolchain windows/toolchain/gcc-arm-none-eabi/bin/../lib/gcc/arm-none-eabi/11.2.1/thumb/v7e-m+fp/hard\libgcc.a(_arm_truncdfsf2.o)
                0x08010a4c                __truncdfsf2
                0x08010a4c                __aeabi_d2f
 .text          0x08010aec        0x0 c:/users/luke/desktop/mcha toolchain windows/toolchain/gcc-arm-none-eabi/bin/../lib/gcc/arm-none-eabi/11.2.1/thumb/v7e-m+fp/hard\libgcc.a(_fixdfdi.o)
 .text          0x08010aec        0x0 c:/users/luke/desktop/mcha toolchain windows/toolchain/gcc-arm-none-eabi/bin/../lib/gcc/arm-none-eabi/11.2.1/thumb/v7e-m+fp/hard\libgcc.a(_fixunsdfdi.o)
 .text          0x08010aec        0x0 c:/users/luke/desktop/mcha toolchain windows/toolchain/gcc-arm-none-eabi/bin/../lib/gcc/arm-none-eabi/11.2.1/thumb/v7e-m+fp/hard\libnosys.a(close.o)
 .text          0x08010aec        0x0 c:/users/luke/desktop/mcha toolchain windows/toolchain/gcc-arm-none-eabi/bin/../lib/gcc/arm-none-eabi/11.2.1/thumb/v7e-m+fp/hard\libnosys.a(fstat.o)
 .text          0x08010aec        0x0 c:/users/luke/desktop/mcha toolchain windows/toolchain/gcc-arm-none-eabi/bin/../lib/gcc/arm-none-eabi/11.2.1/thumb/v7e-m+fp/hard\libnosys.a(getpid.o)
 .text          0x08010aec        0x0 c:/users/luke/desktop/mcha toolchain windows/toolchain/gcc-arm-none-eabi/bin/../lib/gcc/arm-none-eabi/11.2.1/thumb/v7e-m+fp/hard\libnosys.a(isatty.o)
 .text          0x08010aec        0x0 c:/users/luke/desktop/mcha toolchain windows/toolchain/gcc-arm-none-eabi/bin/../lib/gcc/arm-none-eabi/11.2.1/thumb/v7e-m+fp/hard\libnosys.a(kill.o)
 .text          0x08010aec        0x0 c:/users/luke/desktop/mcha toolchain windows/toolchain/gcc-arm-none-eabi/bin/../lib/gcc/arm-none-eabi/11.2.1/thumb/v7e-m+fp/hard\libnosys.a(lseek.o)
 .text          0x08010aec        0x0 c:/users/luke/desktop/mcha toolchain windows/toolchain/gcc-arm-none-eabi/bin/../lib/gcc/arm-none-eabi/11.2.1/thumb/v7e-m+fp/hard\libnosys.a(_exit.o)
 .text          0x08010aec        0x0 c:/users/luke/desktop/mcha toolchain windows/toolchain/gcc-arm-none-eabi/bin/../lib/gcc/arm-none-eabi/11.2.1/thumb/v7e-m+fp/hard/crtend.o
 .text          0x08010aec        0x0 c:/users/luke/desktop/mcha toolchain windows/toolchain/gcc-arm-none-eabi/bin/../lib/gcc/arm-none-eabi/11.2.1/thumb/v7e-m+fp/hard/crtn.o
 *(.text*)
 .text.deregister_tm_clones
                0x08010aec       0x1c c:/users/luke/desktop/mcha toolchain windows/toolchain/gcc-arm-none-eabi/bin/../lib/gcc/arm-none-eabi/11.2.1/thumb/v7e-m+fp/hard/crtbegin.o
 .text.register_tm_clones
                0x08010b08       0x24 c:/users/luke/desktop/mcha toolchain windows/toolchain/gcc-arm-none-eabi/bin/../lib/gcc/arm-none-eabi/11.2.1/thumb/v7e-m+fp/hard/crtbegin.o
 .text.__do_global_dtors_aux
                0x08010b2c       0x28 c:/users/luke/desktop/mcha toolchain windows/toolchain/gcc-arm-none-eabi/bin/../lib/gcc/arm-none-eabi/11.2.1/thumb/v7e-m+fp/hard/crtbegin.o
 .text.frame_dummy
                0x08010b54       0x24 c:/users/luke/desktop/mcha toolchain windows/toolchain/gcc-arm-none-eabi/bin/../lib/gcc/arm-none-eabi/11.2.1/thumb/v7e-m+fp/hard/crtbegin.o
 .text.startup  0x08010b78       0xa4 build/main.o
                0x08010b78                main
 .text.Reset_Handler
                0x08010c1c       0x50 build/startup_stm32f446xx.o
                0x08010c1c                Reset_Handler
 .text.Default_Handler
                0x08010c6c        0x2 build/startup_stm32f446xx.o
                0x08010c6c                RTC_Alarm_IRQHandler
                0x08010c6c                EXTI2_IRQHandler
                0x08010c6c                TIM8_CC_IRQHandler
                0x08010c6c                SPI4_IRQHandler
                0x08010c6c                TIM1_CC_IRQHandler
                0x08010c6c                DMA2_Stream5_IRQHandler
                0x08010c6c                DMA1_Stream5_IRQHandler
                0x08010c6c                PVD_IRQHandler
                0x08010c6c                SDIO_IRQHandler
                0x08010c6c                TAMP_STAMP_IRQHandler
                0x08010c6c                CAN2_RX1_IRQHandler
                0x08010c6c                EXTI3_IRQHandler
                0x08010c6c                TIM8_TRG_COM_TIM14_IRQHandler
                0x08010c6c                TIM1_UP_TIM10_IRQHandler
                0x08010c6c                TIM8_UP_TIM13_IRQHandler
                0x08010c6c                I2C3_ER_IRQHandler
                0x08010c6c                FMPI2C1_Event_IRQHandler
                0x08010c6c                EXTI0_IRQHandler
                0x08010c6c                I2C2_EV_IRQHandler
                0x08010c6c                DMA1_Stream2_IRQHandler
                0x08010c6c                CAN1_RX0_IRQHandler
                0x08010c6c                FPU_IRQHandler
                0x08010c6c                OTG_HS_WKUP_IRQHandler
                0x08010c6c                CAN2_SCE_IRQHandler
                0x08010c6c                DMA2_Stream2_IRQHandler
                0x08010c6c                SPI1_IRQHandler
                0x08010c6c                TIM6_DAC_IRQHandler
                0x08010c6c                TIM1_BRK_TIM9_IRQHandler
                0x08010c6c                DCMI_IRQHandler
                0x08010c6c                CAN2_RX0_IRQHandler
                0x08010c6c                DMA2_Stream3_IRQHandler
                0x08010c6c                SAI2_IRQHandler
                0x08010c6c                USART6_IRQHandler
                0x08010c6c                USART3_IRQHandler
                0x08010c6c                CAN1_RX1_IRQHandler
                0x08010c6c                UART5_IRQHandler
                0x08010c6c                DMA2_Stream0_IRQHandler
                0x08010c6c                TIM4_IRQHandler
                0x08010c6c                QUADSPI_IRQHandler
                0x08010c6c                I2C1_EV_IRQHandler
                0x08010c6c                DMA1_Stream6_IRQHandler
                0x08010c6c                DMA1_Stream1_IRQHandler
                0x08010c6c                UART4_IRQHandler
                0x08010c6c                TIM3_IRQHandler
                0x08010c6c                RCC_IRQHandler
                0x08010c6c                TIM8_BRK_TIM12_IRQHandler
                0x08010c6c                Default_Handler
                0x08010c6c                CEC_IRQHandler
                0x08010c6c                EXTI15_10_IRQHandler
                0x08010c6c                ADC_IRQHandler
                0x08010c6c                DMA1_Stream7_IRQHandler
                0x08010c6c                TIM7_IRQHandler
                0x08010c6c                CAN2_TX_IRQHandler
                0x08010c6c                TIM5_IRQHandler
                0x08010c6c                DMA2_Stream7_IRQHandler
                0x08010c6c                I2C3_EV_IRQHandler
                0x08010c6c                EXTI9_5_IRQHandler
                0x08010c6c                RTC_WKUP_IRQHandler
                0x08010c6c                SPDIF_RX_IRQHandler
                0x08010c6c                SPI2_IRQHandler
                0x08010c6c                OTG_HS_EP1_IN_IRQHandler
                0x08010c6c                DMA1_Stream0_IRQHandler
                0x08010c6c                CAN1_TX_IRQHandler
                0x08010c6c                EXTI4_IRQHandler
                0x08010c6c                OTG_HS_EP1_OUT_IRQHandler
                0x08010c6c                WWDG_IRQHandler
                0x08010c6c                TIM2_IRQHandler
                0x08010c6c                OTG_FS_WKUP_IRQHandler
                0x08010c6c                TIM1_TRG_COM_TIM11_IRQHandler
                0x08010c6c                OTG_HS_IRQHandler
                0x08010c6c                EXTI1_IRQHandler
                0x08010c6c                I2C2_ER_IRQHandler
                0x08010c6c                DMA2_Stream1_IRQHandler
                0x08010c6c                CAN1_SCE_IRQHandler
                0x08010c6c                FLASH_IRQHandler
                0x08010c6c                DMA2_Stream4_IRQHandler
                0x08010c6c                USART1_IRQHandler
                0x08010c6c                OTG_FS_IRQHandler
                0x08010c6c                SPI3_IRQHandler
                0x08010c6c                DMA1_Stream4_IRQHandler
                0x08010c6c                I2C1_ER_IRQHandler
                0x08010c6c                FMC_IRQHandler
                0x08010c6c                DMA2_Stream6_IRQHandler
                0x08010c6c                SAI1_IRQHandler
                0x08010c6c                DMA1_Stream3_IRQHandler
                0x08010c6c                FMPI2C1_Error_IRQHandler
 *fill*         0x08010c6e        0x2 
 .text.__udivmoddi4
                0x08010c70      0x2c8 c:/users/luke/desktop/mcha toolchain windows/toolchain/gcc-arm-none-eabi/bin/../lib/gcc/arm-none-eabi/11.2.1/thumb/v7e-m+fp/hard\libgcc.a(_udivmoddi4.o)
                0x08010c70                __udivmoddi4
 .text.exit     0x08010f38       0x28 c:/users/luke/desktop/mcha toolchain windows/toolchain/gcc-arm-none-eabi/bin/../lib/gcc/arm-none-eabi/11.2.1/thumb/v7e-m+fp/hard\libc_nano.a(lib_a-exit.o)
                0x08010f38                exit
 .text._getchar_r
                0x08010f60       0x1a c:/users/luke/desktop/mcha toolchain windows/toolchain/gcc-arm-none-eabi/bin/../lib/gcc/arm-none-eabi/11.2.1/thumb/v7e-m+fp/hard\libc_nano.a(lib_a-getchar.o)
                0x08010f60                _getchar_r
 *fill*         0x08010f7a        0x2 
 .text.getchar  0x08010f7c       0x24 c:/users/luke/desktop/mcha toolchain windows/toolchain/gcc-arm-none-eabi/bin/../lib/gcc/arm-none-eabi/11.2.1/thumb/v7e-m+fp/hard\libc_nano.a(lib_a-getchar.o)
                0x08010f7c                getchar
 .text._getc_r  0x08010fa0       0x58 c:/users/luke/desktop/mcha toolchain windows/toolchain/gcc-arm-none-eabi/bin/../lib/gcc/arm-none-eabi/11.2.1/thumb/v7e-m+fp/hard\libc_nano.a(lib_a-getc.o)
                0x08010fa0                _getc_r
 .text.getc     0x08010ff8       0x60 c:/users/luke/desktop/mcha toolchain windows/toolchain/gcc-arm-none-eabi/bin/../lib/gcc/arm-none-eabi/11.2.1/thumb/v7e-m+fp/hard\libc_nano.a(lib_a-getc.o)
                0x08010ff8                getc
 .text.__libc_init_array
                0x08011058       0x48 c:/users/luke/desktop/mcha toolchain windows/toolchain/gcc-arm-none-eabi/bin/../lib/gcc/arm-none-eabi/11.2.1/thumb/v7e-m+fp/hard\libc_nano.a(lib_a-init.o)
                0x08011058                __libc_init_array
 .text.malloc   0x080110a0       0x10 c:/users/luke/desktop/mcha toolchain windows/toolchain/gcc-arm-none-eabi/bin/../lib/gcc/arm-none-eabi/11.2.1/thumb/v7e-m+fp/hard\libc_nano.a(lib_a-malloc.o)
                0x080110a0                malloc
 .text.free     0x080110b0       0x10 c:/users/luke/desktop/mcha toolchain windows/toolchain/gcc-arm-none-eabi/bin/../lib/gcc/arm-none-eabi/11.2.1/thumb/v7e-m+fp/hard\libc_nano.a(lib_a-malloc.o)
                0x080110b0                free
 .text.memcpy   0x080110c0       0x1c c:/users/luke/desktop/mcha toolchain windows/toolchain/gcc-arm-none-eabi/bin/../lib/gcc/arm-none-eabi/11.2.1/thumb/v7e-m+fp/hard\libc_nano.a(lib_a-memcpy-stub.o)
                0x080110c0                memcpy
 .text.memset   0x080110dc       0x10 c:/users/luke/desktop/mcha toolchain windows/toolchain/gcc-arm-none-eabi/bin/../lib/gcc/arm-none-eabi/11.2.1/thumb/v7e-m+fp/hard\libc_nano.a(lib_a-memset.o)
                0x080110dc                memset
 .text.mallinfo
                0x080110ec       0x14 c:/users/luke/desktop/mcha toolchain windows/toolchain/gcc-arm-none-eabi/bin/../lib/gcc/arm-none-eabi/11.2.1/thumb/v7e-m+fp/hard\libc_nano.a(lib_a-mstats.o)
                0x080110ec                mallinfo
 .text.malloc_stats
                0x08011100        0xc c:/users/luke/desktop/mcha toolchain windows/toolchain/gcc-arm-none-eabi/bin/../lib/gcc/arm-none-eabi/11.2.1/thumb/v7e-m+fp/hard\libc_nano.a(lib_a-mstats.o)
                0x08011100                malloc_stats
 .text.mallopt  0x0801110c       0x10 c:/users/luke/desktop/mcha toolchain windows/toolchain/gcc-arm-none-eabi/bin/../lib/gcc/arm-none-eabi/11.2.1/thumb/v7e-m+fp/hard\libc_nano.a(lib_a-mstats.o)
                0x0801110c                mallopt
 .text._mstats_r
                0x0801111c       0x2c c:/users/luke/desktop/mcha toolchain windows/toolchain/gcc-arm-none-eabi/bin/../lib/gcc/arm-none-eabi/11.2.1/thumb/v7e-m+fp/hard\libc_nano.a(lib_a-mstats.o)
                0x0801111c                _mstats_r
 .text.mstats   0x08011148       0x10 c:/users/luke/desktop/mcha toolchain windows/toolchain/gcc-arm-none-eabi/bin/../lib/gcc/arm-none-eabi/11.2.1/thumb/v7e-m+fp/hard\libc_nano.a(lib_a-mstats.o)
                0x08011148                mstats
 .text._free_r  0x08011158       0x98 c:/users/luke/desktop/mcha toolchain windows/toolchain/gcc-arm-none-eabi/bin/../lib/gcc/arm-none-eabi/11.2.1/thumb/v7e-m+fp/hard\libc_nano.a(lib_a-nano-freer.o)
                0x08011158                _free_r
 .text._mallinfo_r
                0x080111f0       0x68 c:/users/luke/desktop/mcha toolchain windows/toolchain/gcc-arm-none-eabi/bin/../lib/gcc/arm-none-eabi/11.2.1/thumb/v7e-m+fp/hard\libc_nano.a(lib_a-nano-mallinfor.o)
                0x080111f0                _mallinfo_r
 .text.sbrk_aligned
                0x08011258       0x40 c:/users/luke/desktop/mcha toolchain windows/toolchain/gcc-arm-none-eabi/bin/../lib/gcc/arm-none-eabi/11.2.1/thumb/v7e-m+fp/hard\libc_nano.a(lib_a-nano-mallocr.o)
 .text._malloc_r
                0x08011298       0xe8 c:/users/luke/desktop/mcha toolchain windows/toolchain/gcc-arm-none-eabi/bin/../lib/gcc/arm-none-eabi/11.2.1/thumb/v7e-m+fp/hard\libc_nano.a(lib_a-nano-mallocr.o)
                0x08011298                _malloc_r
 .text._mallopt_r
                0x08011380        0x4 c:/users/luke/desktop/mcha toolchain windows/toolchain/gcc-arm-none-eabi/bin/../lib/gcc/arm-none-eabi/11.2.1/thumb/v7e-m+fp/hard\libc_nano.a(lib_a-nano-malloptr.o)
                0x08011380                _mallopt_r
 .text._malloc_stats_r
                0x08011384       0x50 c:/users/luke/desktop/mcha toolchain windows/toolchain/gcc-arm-none-eabi/bin/../lib/gcc/arm-none-eabi/11.2.1/thumb/v7e-m+fp/hard\libc_nano.a(lib_a-nano-mallstatsr.o)
                0x08011384                _malloc_stats_r
 .text.__cvt    0x080113d4       0xc4 c:/users/luke/desktop/mcha toolchain windows/toolchain/gcc-arm-none-eabi/bin/../lib/gcc/arm-none-eabi/11.2.1/thumb/v7e-m+fp/hard\libc_nano.a(lib_a-nano-vfprintf_float.o)
                0x080113d4                __cvt
 .text.__exponent
                0x08011498       0x7c c:/users/luke/desktop/mcha toolchain windows/toolchain/gcc-arm-none-eabi/bin/../lib/gcc/arm-none-eabi/11.2.1/thumb/v7e-m+fp/hard\libc_nano.a(lib_a-nano-vfprintf_float.o)
                0x08011498                __exponent
 .text._printf_float
                0x08011514      0x46c c:/users/luke/desktop/mcha toolchain windows/toolchain/gcc-arm-none-eabi/bin/../lib/gcc/arm-none-eabi/11.2.1/thumb/v7e-m+fp/hard\libc_nano.a(lib_a-nano-vfprintf_float.o)
                0x08011514                _printf_float
 .text._printf_common
                0x08011980       0xda c:/users/luke/desktop/mcha toolchain windows/toolchain/gcc-arm-none-eabi/bin/../lib/gcc/arm-none-eabi/11.2.1/thumb/v7e-m+fp/hard\libc_nano.a(lib_a-nano-vfprintf_i.o)
                0x08011980                _printf_common
 *fill*         0x08011a5a        0x2 
 .text._printf_i
                0x08011a5c      0x244 c:/users/luke/desktop/mcha toolchain windows/toolchain/gcc-arm-none-eabi/bin/../lib/gcc/arm-none-eabi/11.2.1/thumb/v7e-m+fp/hard\libc_nano.a(lib_a-nano-vfprintf_i.o)
                0x08011a5c                _printf_i
 .text._scanf_float
                0x08011ca0      0x424 c:/users/luke/desktop/mcha toolchain windows/toolchain/gcc-arm-none-eabi/bin/../lib/gcc/arm-none-eabi/11.2.1/thumb/v7e-m+fp/hard\libc_nano.a(lib_a-nano-vfscanf_float.o)
                0x08011ca0                _scanf_float
 .text._printf_r
                0x080120c4       0x28 c:/users/luke/desktop/mcha toolchain windows/toolchain/gcc-arm-none-eabi/bin/../lib/gcc/arm-none-eabi/11.2.1/thumb/v7e-m+fp/hard\libc_nano.a(lib_a-printf.o)
                0x080120c4                _iprintf_r
                0x080120c4                _printf_r
 .text.printf   0x080120ec       0x30 c:/users/luke/desktop/mcha toolchain windows/toolchain/gcc-arm-none-eabi/bin/../lib/gcc/arm-none-eabi/11.2.1/thumb/v7e-m+fp/hard\libc_nano.a(lib_a-printf.o)
                0x080120ec                iprintf
                0x080120ec                printf
 .text.cleanup_glue
                0x0801211c       0x1a c:/users/luke/desktop/mcha toolchain windows/toolchain/gcc-arm-none-eabi/bin/../lib/gcc/arm-none-eabi/11.2.1/thumb/v7e-m+fp/hard\libc_nano.a(lib_a-reent.o)
                0x0801211c                cleanup_glue
 *fill*         0x08012136        0x2 
 .text._reclaim_reent
                0x08012138       0xb8 c:/users/luke/desktop/mcha toolchain windows/toolchain/gcc-arm-none-eabi/bin/../lib/gcc/arm-none-eabi/11.2.1/thumb/v7e-m+fp/hard\libc_nano.a(lib_a-reent.o)
                0x08012138                _reclaim_reent
 .text.__srget_r
                0x080121f0       0x58 c:/users/luke/desktop/mcha toolchain windows/toolchain/gcc-arm-none-eabi/bin/../lib/gcc/arm-none-eabi/11.2.1/thumb/v7e-m+fp/hard\libc_nano.a(lib_a-rget.o)
                0x080121f0                __srget_r
 .text.__srget  0x08012248       0x10 c:/users/luke/desktop/mcha toolchain windows/toolchain/gcc-arm-none-eabi/bin/../lib/gcc/arm-none-eabi/11.2.1/thumb/v7e-m+fp/hard\libc_nano.a(lib_a-rget.o)
                0x08012248                __srget
 .text._sbrk_r  0x08012258       0x20 c:/users/luke/desktop/mcha toolchain windows/toolchain/gcc-arm-none-eabi/bin/../lib/gcc/arm-none-eabi/11.2.1/thumb/v7e-m+fp/hard\libc_nano.a(lib_a-sbrkr.o)
                0x08012258                _sbrk_r
 .text.setvbuf  0x08012278      0x15c c:/users/luke/desktop/mcha toolchain windows/toolchain/gcc-arm-none-eabi/bin/../lib/gcc/arm-none-eabi/11.2.1/thumb/v7e-m+fp/hard\libc_nano.a(lib_a-setvbuf.o)
                0x08012278                setvbuf
 .text.nanf     0x080123d4        0xc c:/users/luke/desktop/mcha toolchain windows/toolchain/gcc-arm-none-eabi/bin/../lib/gcc/arm-none-eabi/11.2.1/thumb/v7e-m+fp/hard\libc_nano.a(lib_a-sf_nan.o)
                0x080123d4                nanf
 .text._sprintf_r
                0x080123e0       0x38 c:/users/luke/desktop/mcha toolchain windows/toolchain/gcc-arm-none-eabi/bin/../lib/gcc/arm-none-eabi/11.2.1/thumb/v7e-m+fp/hard\libc_nano.a(lib_a-sprintf.o)
                0x080123e0                _sprintf_r
                0x080123e0                _siprintf_r
 .text.sprintf  0x08012418       0x40 c:/users/luke/desktop/mcha toolchain windows/toolchain/gcc-arm-none-eabi/bin/../lib/gcc/arm-none-eabi/11.2.1/thumb/v7e-m+fp/hard\libc_nano.a(lib_a-sprintf.o)
                0x08012418                siprintf
                0x08012418                sprintf
 .text.sulp     0x08012458       0x38 c:/users/luke/desktop/mcha toolchain windows/toolchain/gcc-arm-none-eabi/bin/../lib/gcc/arm-none-eabi/11.2.1/thumb/v7e-m+fp/hard\libc_nano.a(lib_a-strtod.o)
 .text._strtod_l
                0x08012490      0xbe0 c:/users/luke/desktop/mcha toolchain windows/toolchain/gcc-arm-none-eabi/bin/../lib/gcc/arm-none-eabi/11.2.1/thumb/v7e-m+fp/hard\libc_nano.a(lib_a-strtod.o)
                0x08012490                _strtod_l
 .text._strtod_r
                0x08013070        0xc c:/users/luke/desktop/mcha toolchain windows/toolchain/gcc-arm-none-eabi/bin/../lib/gcc/arm-none-eabi/11.2.1/thumb/v7e-m+fp/hard\libc_nano.a(lib_a-strtod.o)
                0x08013070                _strtod_r
 .text.strtod_l
                0x0801307c       0x14 c:/users/luke/desktop/mcha toolchain windows/toolchain/gcc-arm-none-eabi/bin/../lib/gcc/arm-none-eabi/11.2.1/thumb/v7e-m+fp/hard\libc_nano.a(lib_a-strtod.o)
                0x0801307c                strtod_l
 .text.strtod   0x08013090       0x18 c:/users/luke/desktop/mcha toolchain windows/toolchain/gcc-arm-none-eabi/bin/../lib/gcc/arm-none-eabi/11.2.1/thumb/v7e-m+fp/hard\libc_nano.a(lib_a-strtod.o)
                0x08013090                strtod
 .text.strtof_l
                0x080130a8       0xb4 c:/users/luke/desktop/mcha toolchain windows/toolchain/gcc-arm-none-eabi/bin/../lib/gcc/arm-none-eabi/11.2.1/thumb/v7e-m+fp/hard\libc_nano.a(lib_a-strtod.o)
                0x080130a8                strtof_l
 .text.strtof   0x0801315c       0xb8 c:/users/luke/desktop/mcha toolchain windows/toolchain/gcc-arm-none-eabi/bin/../lib/gcc/arm-none-eabi/11.2.1/thumb/v7e-m+fp/hard\libc_nano.a(lib_a-strtod.o)
                0x0801315c                strtof
 .text._strtol_l.constprop.0
                0x08013214      0x104 c:/users/luke/desktop/mcha toolchain windows/toolchain/gcc-arm-none-eabi/bin/../lib/gcc/arm-none-eabi/11.2.1/thumb/v7e-m+fp/hard\libc_nano.a(lib_a-strtol.o)
 .text._strtol_r
                0x08013318        0x4 c:/users/luke/desktop/mcha toolchain windows/toolchain/gcc-arm-none-eabi/bin/../lib/gcc/arm-none-eabi/11.2.1/thumb/v7e-m+fp/hard\libc_nano.a(lib_a-strtol.o)
                0x08013318                _strtol_r
 .text.strtol_l
                0x0801331c       0x14 c:/users/luke/desktop/mcha toolchain windows/toolchain/gcc-arm-none-eabi/bin/../lib/gcc/arm-none-eabi/11.2.1/thumb/v7e-m+fp/hard\libc_nano.a(lib_a-strtol.o)
                0x0801331c                strtol_l
 .text.strtol   0x08013330       0x14 c:/users/luke/desktop/mcha toolchain windows/toolchain/gcc-arm-none-eabi/bin/../lib/gcc/arm-none-eabi/11.2.1/thumb/v7e-m+fp/hard\libc_nano.a(lib_a-strtol.o)
                0x08013330                strtol
 .text.vprintf  0x08013344       0x30 c:/users/luke/desktop/mcha toolchain windows/toolchain/gcc-arm-none-eabi/bin/../lib/gcc/arm-none-eabi/11.2.1/thumb/v7e-m+fp/hard\libc_nano.a(lib_a-vprintf.o)
                0x08013344                viprintf
                0x08013344                vprintf
 .text._vprintf_r
                0x08013374       0x26 c:/users/luke/desktop/mcha toolchain windows/toolchain/gcc-arm-none-eabi/bin/../lib/gcc/arm-none-eabi/11.2.1/thumb/v7e-m+fp/hard\libc_nano.a(lib_a-vprintf.o)
                0x08013374                _vprintf_r
                0x08013374                _viprintf_r
 .text.quorem   0x0801339a      0x110 c:/users/luke/desktop/mcha toolchain windows/toolchain/gcc-arm-none-eabi/bin/../lib/gcc/arm-none-eabi/11.2.1/thumb/v7e-m+fp/hard\libc_nano.a(lib_a-dtoa.o)
 *fill*         0x080134aa        0x6 
 .text._dtoa_r  0x080134b0      0xbe4 c:/users/luke/desktop/mcha toolchain windows/toolchain/gcc-arm-none-eabi/bin/../lib/gcc/arm-none-eabi/11.2.1/thumb/v7e-m+fp/hard\libc_nano.a(lib_a-dtoa.o)
                0x080134b0                _dtoa_r
 .text.__errno  0x08014094        0xc c:/users/luke/desktop/mcha toolchain windows/toolchain/gcc-arm-none-eabi/bin/../lib/gcc/arm-none-eabi/11.2.1/thumb/v7e-m+fp/hard\libc_nano.a(lib_a-errno.o)
                0x08014094                __errno
 .text.__sflush_r
                0x080140a0      0x10c c:/users/luke/desktop/mcha toolchain windows/toolchain/gcc-arm-none-eabi/bin/../lib/gcc/arm-none-eabi/11.2.1/thumb/v7e-m+fp/hard\libc_nano.a(lib_a-fflush.o)
                0x080140a0                __sflush_r
 .text._fflush_r
                0x080141ac       0x54 c:/users/luke/desktop/mcha toolchain windows/toolchain/gcc-arm-none-eabi/bin/../lib/gcc/arm-none-eabi/11.2.1/thumb/v7e-m+fp/hard\libc_nano.a(lib_a-fflush.o)
                0x080141ac                _fflush_r
 .text.fflush   0x08014200       0x24 c:/users/luke/desktop/mcha toolchain windows/toolchain/gcc-arm-none-eabi/bin/../lib/gcc/arm-none-eabi/11.2.1/thumb/v7e-m+fp/hard\libc_nano.a(lib_a-fflush.o)
                0x08014200                fflush
 .text.__fp_lock
                0x08014224        0x4 c:/users/luke/desktop/mcha toolchain windows/toolchain/gcc-arm-none-eabi/bin/../lib/gcc/arm-none-eabi/11.2.1/thumb/v7e-m+fp/hard\libc_nano.a(lib_a-findfp.o)
 .text.std      0x08014228       0x48 c:/users/luke/desktop/mcha toolchain windows/toolchain/gcc-arm-none-eabi/bin/../lib/gcc/arm-none-eabi/11.2.1/thumb/v7e-m+fp/hard\libc_nano.a(lib_a-findfp.o)
 .text._cleanup_r
                0x08014270        0xc c:/users/luke/desktop/mcha toolchain windows/toolchain/gcc-arm-none-eabi/bin/../lib/gcc/arm-none-eabi/11.2.1/thumb/v7e-m+fp/hard\libc_nano.a(lib_a-findfp.o)
                0x08014270                _cleanup_r
 .text.__fp_unlock
                0x0801427c        0x4 c:/users/luke/desktop/mcha toolchain windows/toolchain/gcc-arm-none-eabi/bin/../lib/gcc/arm-none-eabi/11.2.1/thumb/v7e-m+fp/hard\libc_nano.a(lib_a-findfp.o)
 .text.__sfmoreglue
                0x08014280       0x2c c:/users/luke/desktop/mcha toolchain windows/toolchain/gcc-arm-none-eabi/bin/../lib/gcc/arm-none-eabi/11.2.1/thumb/v7e-m+fp/hard\libc_nano.a(lib_a-findfp.o)
                0x08014280                __sfmoreglue
 .text._cleanup
                0x080142ac        0xc c:/users/luke/desktop/mcha toolchain windows/toolchain/gcc-arm-none-eabi/bin/../lib/gcc/arm-none-eabi/11.2.1/thumb/v7e-m+fp/hard\libc_nano.a(lib_a-findfp.o)
                0x080142ac                _cleanup
 .text.__sinit  0x080142b8       0x60 c:/users/luke/desktop/mcha toolchain windows/toolchain/gcc-arm-none-eabi/bin/../lib/gcc/arm-none-eabi/11.2.1/thumb/v7e-m+fp/hard\libc_nano.a(lib_a-findfp.o)
                0x080142b8                __sinit
 .text.__sfp    0x08014318       0x78 c:/users/luke/desktop/mcha toolchain windows/toolchain/gcc-arm-none-eabi/bin/../lib/gcc/arm-none-eabi/11.2.1/thumb/v7e-m+fp/hard\libc_nano.a(lib_a-findfp.o)
                0x08014318                __sfp
 .text.__sfp_lock_acquire
                0x08014390        0x2 c:/users/luke/desktop/mcha toolchain windows/toolchain/gcc-arm-none-eabi/bin/../lib/gcc/arm-none-eabi/11.2.1/thumb/v7e-m+fp/hard\libc_nano.a(lib_a-findfp.o)
                0x08014390                __sfp_lock_acquire
 .text.__sfp_lock_release
                0x08014392        0x2 c:/users/luke/desktop/mcha toolchain windows/toolchain/gcc-arm-none-eabi/bin/../lib/gcc/arm-none-eabi/11.2.1/thumb/v7e-m+fp/hard\libc_nano.a(lib_a-findfp.o)
                0x08014392                __sfp_lock_release
 .text.__sinit_lock_acquire
                0x08014394        0x2 c:/users/luke/desktop/mcha toolchain windows/toolchain/gcc-arm-none-eabi/bin/../lib/gcc/arm-none-eabi/11.2.1/thumb/v7e-m+fp/hard\libc_nano.a(lib_a-findfp.o)
                0x08014394                __sinit_lock_acquire
 .text.__sinit_lock_release
                0x08014396        0x2 c:/users/luke/desktop/mcha toolchain windows/toolchain/gcc-arm-none-eabi/bin/../lib/gcc/arm-none-eabi/11.2.1/thumb/v7e-m+fp/hard\libc_nano.a(lib_a-findfp.o)
                0x08014396                __sinit_lock_release
 .text.__fp_lock_all
                0x08014398       0x14 c:/users/luke/desktop/mcha toolchain windows/toolchain/gcc-arm-none-eabi/bin/../lib/gcc/arm-none-eabi/11.2.1/thumb/v7e-m+fp/hard\libc_nano.a(lib_a-findfp.o)
                0x08014398                __fp_lock_all
 .text.__fp_unlock_all
                0x080143ac       0x14 c:/users/luke/desktop/mcha toolchain windows/toolchain/gcc-arm-none-eabi/bin/../lib/gcc/arm-none-eabi/11.2.1/thumb/v7e-m+fp/hard\libc_nano.a(lib_a-findfp.o)
                0x080143ac                __fp_unlock_all
 .text._fprintf_r
                0x080143c0       0x1a c:/users/luke/desktop/mcha toolchain windows/toolchain/gcc-arm-none-eabi/bin/../lib/gcc/arm-none-eabi/11.2.1/thumb/v7e-m+fp/hard\libc_nano.a(lib_a-fprintf.o)
                0x080143c0                _fiprintf_r
                0x080143c0                _fprintf_r
 *fill*         0x080143da        0x2 
 .text.fprintf  0x080143dc       0x24 c:/users/luke/desktop/mcha toolchain windows/toolchain/gcc-arm-none-eabi/bin/../lib/gcc/arm-none-eabi/11.2.1/thumb/v7e-m+fp/hard\libc_nano.a(lib_a-fprintf.o)
                0x080143dc                fiprintf
                0x080143dc                fprintf
 .text._fwalk   0x08014400       0x3a c:/users/luke/desktop/mcha toolchain windows/toolchain/gcc-arm-none-eabi/bin/../lib/gcc/arm-none-eabi/11.2.1/thumb/v7e-m+fp/hard\libc_nano.a(lib_a-fwalk.o)
                0x08014400                _fwalk
 .text._fwalk_reent
                0x0801443a       0x3e c:/users/luke/desktop/mcha toolchain windows/toolchain/gcc-arm-none-eabi/bin/../lib/gcc/arm-none-eabi/11.2.1/thumb/v7e-m+fp/hard\libc_nano.a(lib_a-fwalk.o)
                0x0801443a                _fwalk_reent
 .text.rshift   0x08014478       0xa4 c:/users/luke/desktop/mcha toolchain windows/toolchain/gcc-arm-none-eabi/bin/../lib/gcc/arm-none-eabi/11.2.1/thumb/v7e-m+fp/hard\libc_nano.a(lib_a-gdtoa-gethex.o)
 .text.__hexdig_fun
                0x0801451c       0x2a c:/users/luke/desktop/mcha toolchain windows/toolchain/gcc-arm-none-eabi/bin/../lib/gcc/arm-none-eabi/11.2.1/thumb/v7e-m+fp/hard\libc_nano.a(lib_a-gdtoa-gethex.o)
                0x0801451c                __hexdig_fun
 *fill*         0x08014546        0x2 
 .text.__gethex
                0x08014548      0x488 c:/users/luke/desktop/mcha toolchain windows/toolchain/gcc-arm-none-eabi/bin/../lib/gcc/arm-none-eabi/11.2.1/thumb/v7e-m+fp/hard\libc_nano.a(lib_a-gdtoa-gethex.o)
                0x08014548                __gethex
 .text.L_shift  0x080149d0       0x24 c:/users/luke/desktop/mcha toolchain windows/toolchain/gcc-arm-none-eabi/bin/../lib/gcc/arm-none-eabi/11.2.1/thumb/v7e-m+fp/hard\libc_nano.a(lib_a-gdtoa-hexnan.o)
 .text.__match  0x080149f4       0x28 c:/users/luke/desktop/mcha toolchain windows/toolchain/gcc-arm-none-eabi/bin/../lib/gcc/arm-none-eabi/11.2.1/thumb/v7e-m+fp/hard\libc_nano.a(lib_a-gdtoa-hexnan.o)
                0x080149f4                __match
 .text.__hexnan
                0x08014a1c      0x136 c:/users/luke/desktop/mcha toolchain windows/toolchain/gcc-arm-none-eabi/bin/../lib/gcc/arm-none-eabi/11.2.1/thumb/v7e-m+fp/hard\libc_nano.a(lib_a-gdtoa-hexnan.o)
                0x08014a1c                __hexnan
 .text.__numeric_load_locale
                0x08014b52        0x4 c:/users/luke/desktop/mcha toolchain windows/toolchain/gcc-arm-none-eabi/bin/../lib/gcc/arm-none-eabi/11.2.1/thumb/v7e-m+fp/hard\libc_nano.a(lib_a-lnumeric.o)
                0x08014b52                __numeric_load_locale
 .text.__localeconv_l
                0x08014b56        0x4 c:/users/luke/desktop/mcha toolchain windows/toolchain/gcc-arm-none-eabi/bin/../lib/gcc/arm-none-eabi/11.2.1/thumb/v7e-m+fp/hard\libc_nano.a(lib_a-localeconv.o)
                0x08014b56                __localeconv_l
 *fill*         0x08014b5a        0x2 
 .text._localeconv_r
                0x08014b5c        0x8 c:/users/luke/desktop/mcha toolchain windows/toolchain/gcc-arm-none-eabi/bin/../lib/gcc/arm-none-eabi/11.2.1/thumb/v7e-m+fp/hard\libc_nano.a(lib_a-localeconv.o)
                0x08014b5c                _localeconv_r
 .text.localeconv
                0x08014b64        0x8 c:/users/luke/desktop/mcha toolchain windows/toolchain/gcc-arm-none-eabi/bin/../lib/gcc/arm-none-eabi/11.2.1/thumb/v7e-m+fp/hard\libc_nano.a(lib_a-localeconv.o)
                0x08014b64                localeconv
 .text._setlocale_r
                0x08014b6c       0x40 c:/users/luke/desktop/mcha toolchain windows/toolchain/gcc-arm-none-eabi/bin/../lib/gcc/arm-none-eabi/11.2.1/thumb/v7e-m+fp/hard\libc_nano.a(lib_a-locale.o)
                0x08014b6c                _setlocale_r
 .text.__locale_mb_cur_max
                0x08014bac        0xc c:/users/luke/desktop/mcha toolchain windows/toolchain/gcc-arm-none-eabi/bin/../lib/gcc/arm-none-eabi/11.2.1/thumb/v7e-m+fp/hard\libc_nano.a(lib_a-locale.o)
                0x08014bac                __locale_mb_cur_max
 .text.setlocale
                0x08014bb8       0x10 c:/users/luke/desktop/mcha toolchain windows/toolchain/gcc-arm-none-eabi/bin/../lib/gcc/arm-none-eabi/11.2.1/thumb/v7e-m+fp/hard\libc_nano.a(lib_a-locale.o)
                0x08014bb8                setlocale
 .text.__swhatbuf_r
                0x08014bc8       0x4c c:/users/luke/desktop/mcha toolchain windows/toolchain/gcc-arm-none-eabi/bin/../lib/gcc/arm-none-eabi/11.2.1/thumb/v7e-m+fp/hard\libc_nano.a(lib_a-makebuf.o)
                0x08014bc8                __swhatbuf_r
 .text.__smakebuf_r
                0x08014c14       0x80 c:/users/luke/desktop/mcha toolchain windows/toolchain/gcc-arm-none-eabi/bin/../lib/gcc/arm-none-eabi/11.2.1/thumb/v7e-m+fp/hard\libc_nano.a(lib_a-makebuf.o)
                0x08014c14                __smakebuf_r
 .text._mbtowc_r
                0x08014c94       0x14 c:/users/luke/desktop/mcha toolchain windows/toolchain/gcc-arm-none-eabi/bin/../lib/gcc/arm-none-eabi/11.2.1/thumb/v7e-m+fp/hard\libc_nano.a(lib_a-mbtowc_r.o)
                0x08014c94                _mbtowc_r
 .text.__ascii_mbtowc
                0x08014ca8       0x24 c:/users/luke/desktop/mcha toolchain windows/toolchain/gcc-arm-none-eabi/bin/../lib/gcc/arm-none-eabi/11.2.1/thumb/v7e-m+fp/hard\libc_nano.a(lib_a-mbtowc_r.o)
                0x08014ca8                __ascii_mbtowc
 .text._Balloc  0x08014ccc       0x80 c:/users/luke/desktop/mcha toolchain windows/toolchain/gcc-arm-none-eabi/bin/../lib/gcc/arm-none-eabi/11.2.1/thumb/v7e-m+fp/hard\libc_nano.a(lib_a-mprec.o)
                0x08014ccc                _Balloc
 .text._Bfree   0x08014d4c       0x44 c:/users/luke/desktop/mcha toolchain windows/toolchain/gcc-arm-none-eabi/bin/../lib/gcc/arm-none-eabi/11.2.1/thumb/v7e-m+fp/hard\libc_nano.a(lib_a-mprec.o)
                0x08014d4c                _Bfree
 .text.__multadd
                0x08014d90       0x8c c:/users/luke/desktop/mcha toolchain windows/toolchain/gcc-arm-none-eabi/bin/../lib/gcc/arm-none-eabi/11.2.1/thumb/v7e-m+fp/hard\libc_nano.a(lib_a-mprec.o)
                0x08014d90                __multadd
 .text.__s2b    0x08014e1c       0x94 c:/users/luke/desktop/mcha toolchain windows/toolchain/gcc-arm-none-eabi/bin/../lib/gcc/arm-none-eabi/11.2.1/thumb/v7e-m+fp/hard\libc_nano.a(lib_a-mprec.o)
                0x08014e1c                __s2b
 .text.__hi0bits
                0x08014eb0       0x40 c:/users/luke/desktop/mcha toolchain windows/toolchain/gcc-arm-none-eabi/bin/../lib/gcc/arm-none-eabi/11.2.1/thumb/v7e-m+fp/hard\libc_nano.a(lib_a-mprec.o)
                0x08014eb0                __hi0bits
 .text.__lo0bits
                0x08014ef0       0x5a c:/users/luke/desktop/mcha toolchain windows/toolchain/gcc-arm-none-eabi/bin/../lib/gcc/arm-none-eabi/11.2.1/thumb/v7e-m+fp/hard\libc_nano.a(lib_a-mprec.o)
                0x08014ef0                __lo0bits
 *fill*         0x08014f4a        0x2 
 .text.__i2b    0x08014f4c       0x2c c:/users/luke/desktop/mcha toolchain windows/toolchain/gcc-arm-none-eabi/bin/../lib/gcc/arm-none-eabi/11.2.1/thumb/v7e-m+fp/hard\libc_nano.a(lib_a-mprec.o)
                0x08014f4c                __i2b
 .text.__multiply
                0x08014f78      0x154 c:/users/luke/desktop/mcha toolchain windows/toolchain/gcc-arm-none-eabi/bin/../lib/gcc/arm-none-eabi/11.2.1/thumb/v7e-m+fp/hard\libc_nano.a(lib_a-mprec.o)
                0x08014f78                __multiply
 .text.__pow5mult
                0x080150cc       0xb4 c:/users/luke/desktop/mcha toolchain windows/toolchain/gcc-arm-none-eabi/bin/../lib/gcc/arm-none-eabi/11.2.1/thumb/v7e-m+fp/hard\libc_nano.a(lib_a-mprec.o)
                0x080150cc                __pow5mult
 .text.__lshift
                0x08015180       0xd8 c:/users/luke/desktop/mcha toolchain windows/toolchain/gcc-arm-none-eabi/bin/../lib/gcc/arm-none-eabi/11.2.1/thumb/v7e-m+fp/hard\libc_nano.a(lib_a-mprec.o)
                0x08015180                __lshift
 .text.__mcmp   0x08015258       0x38 c:/users/luke/desktop/mcha toolchain windows/toolchain/gcc-arm-none-eabi/bin/../lib/gcc/arm-none-eabi/11.2.1/thumb/v7e-m+fp/hard\libc_nano.a(lib_a-mprec.o)
                0x08015258                __mcmp
 .text.__mdiff  0x08015290      0x114 c:/users/luke/desktop/mcha toolchain windows/toolchain/gcc-arm-none-eabi/bin/../lib/gcc/arm-none-eabi/11.2.1/thumb/v7e-m+fp/hard\libc_nano.a(lib_a-mprec.o)
                0x08015290                __mdiff
 .text.__ulp    0x080153a4       0x4c c:/users/luke/desktop/mcha toolchain windows/toolchain/gcc-arm-none-eabi/bin/../lib/gcc/arm-none-eabi/11.2.1/thumb/v7e-m+fp/hard\libc_nano.a(lib_a-mprec.o)
                0x080153a4                __ulp
 .text.__b2d    0x080153f0       0x94 c:/users/luke/desktop/mcha toolchain windows/toolchain/gcc-arm-none-eabi/bin/../lib/gcc/arm-none-eabi/11.2.1/thumb/v7e-m+fp/hard\libc_nano.a(lib_a-mprec.o)
                0x080153f0                __b2d
 .text.__d2b    0x08015484       0xb4 c:/users/luke/desktop/mcha toolchain windows/toolchain/gcc-arm-none-eabi/bin/../lib/gcc/arm-none-eabi/11.2.1/thumb/v7e-m+fp/hard\libc_nano.a(lib_a-mprec.o)
                0x08015484                __d2b
 .text.__ratio  0x08015538       0x66 c:/users/luke/desktop/mcha toolchain windows/toolchain/gcc-arm-none-eabi/bin/../lib/gcc/arm-none-eabi/11.2.1/thumb/v7e-m+fp/hard\libc_nano.a(lib_a-mprec.o)
                0x08015538                __ratio
 *fill*         0x0801559e        0x2 
 .text._mprec_log10
                0x080155a0       0x3c c:/users/luke/desktop/mcha toolchain windows/toolchain/gcc-arm-none-eabi/bin/../lib/gcc/arm-none-eabi/11.2.1/thumb/v7e-m+fp/hard\libc_nano.a(lib_a-mprec.o)
                0x080155a0                _mprec_log10
 .text.__copybits
                0x080155dc       0x46 c:/users/luke/desktop/mcha toolchain windows/toolchain/gcc-arm-none-eabi/bin/../lib/gcc/arm-none-eabi/11.2.1/thumb/v7e-m+fp/hard\libc_nano.a(lib_a-mprec.o)
                0x080155dc                __copybits
 .text.__any_on
                0x08015622       0x42 c:/users/luke/desktop/mcha toolchain windows/toolchain/gcc-arm-none-eabi/bin/../lib/gcc/arm-none-eabi/11.2.1/thumb/v7e-m+fp/hard\libc_nano.a(lib_a-mprec.o)
                0x08015622                __any_on
 .text._calloc_r
                0x08015664       0x2c c:/users/luke/desktop/mcha toolchain windows/toolchain/gcc-arm-none-eabi/bin/../lib/gcc/arm-none-eabi/11.2.1/thumb/v7e-m+fp/hard\libc_nano.a(lib_a-nano-callocr.o)
                0x08015664                _calloc_r
 .text.__ssputs_r
                0x08015690       0xb4 c:/users/luke/desktop/mcha toolchain windows/toolchain/gcc-arm-none-eabi/bin/../lib/gcc/arm-none-eabi/11.2.1/thumb/v7e-m+fp/hard\libc_nano.a(lib_a-nano-svfprintf.o)
                0x08015690                __ssputs_r
 .text.__ssprint_r
                0x08015744       0xfa c:/users/luke/desktop/mcha toolchain windows/toolchain/gcc-arm-none-eabi/bin/../lib/gcc/arm-none-eabi/11.2.1/thumb/v7e-m+fp/hard\libc_nano.a(lib_a-nano-svfprintf.o)
                0x08015744                __ssprint_r
 *fill*         0x0801583e        0x2 
 .text._svfprintf_r
                0x08015840      0x1fc c:/users/luke/desktop/mcha toolchain windows/toolchain/gcc-arm-none-eabi/bin/../lib/gcc/arm-none-eabi/11.2.1/thumb/v7e-m+fp/hard\libc_nano.a(lib_a-nano-svfprintf.o)
                0x08015840                _svfiprintf_r
                0x08015840                _svfprintf_r
 .text.__sfputc_r
                0x08015a3c       0x2e c:/users/luke/desktop/mcha toolchain windows/toolchain/gcc-arm-none-eabi/bin/../lib/gcc/arm-none-eabi/11.2.1/thumb/v7e-m+fp/hard\libc_nano.a(lib_a-nano-vfprintf.o)
 .text.__sfputs_r
                0x08015a6a       0x24 c:/users/luke/desktop/mcha toolchain windows/toolchain/gcc-arm-none-eabi/bin/../lib/gcc/arm-none-eabi/11.2.1/thumb/v7e-m+fp/hard\libc_nano.a(lib_a-nano-vfprintf.o)
                0x08015a6a                __sfputs_r
 .text.__sprint_r
                0x08015a8e       0x1a c:/users/luke/desktop/mcha toolchain windows/toolchain/gcc-arm-none-eabi/bin/../lib/gcc/arm-none-eabi/11.2.1/thumb/v7e-m+fp/hard\libc_nano.a(lib_a-nano-vfprintf.o)
                0x08015a8e                __sprint_r
 .text._vfprintf_r
                0x08015aa8      0x228 c:/users/luke/desktop/mcha toolchain windows/toolchain/gcc-arm-none-eabi/bin/../lib/gcc/arm-none-eabi/11.2.1/thumb/v7e-m+fp/hard\libc_nano.a(lib_a-nano-vfprintf.o)
                0x08015aa8                _vfprintf_r
                0x08015aa8                _vfiprintf_r
 .text.vfprintf
                0x08015cd0       0x14 c:/users/luke/desktop/mcha toolchain windows/toolchain/gcc-arm-none-eabi/bin/../lib/gcc/arm-none-eabi/11.2.1/thumb/v7e-m+fp/hard\libc_nano.a(lib_a-nano-vfprintf.o)
                0x08015cd0                vfprintf
                0x08015cd0                vfiprintf
 .text.lflush   0x08015ce4       0x12 c:/users/luke/desktop/mcha toolchain windows/toolchain/gcc-arm-none-eabi/bin/../lib/gcc/arm-none-eabi/11.2.1/thumb/v7e-m+fp/hard\libc_nano.a(lib_a-refill.o)
 *fill*         0x08015cf6        0x2 
 .text.__srefill_r
                0x08015cf8      0x114 c:/users/luke/desktop/mcha toolchain windows/toolchain/gcc-arm-none-eabi/bin/../lib/gcc/arm-none-eabi/11.2.1/thumb/v7e-m+fp/hard\libc_nano.a(lib_a-refill.o)
                0x08015cf8                __srefill_r
 *fill*         0x08015e0c        0x4 
 .text.nan      0x08015e10       0x10 c:/users/luke/desktop/mcha toolchain windows/toolchain/gcc-arm-none-eabi/bin/../lib/gcc/arm-none-eabi/11.2.1/thumb/v7e-m+fp/hard\libc_nano.a(lib_a-s_nan.o)
                0x08015e10                nan
 .text.__sread  0x08015e20       0x22 c:/users/luke/desktop/mcha toolchain windows/toolchain/gcc-arm-none-eabi/bin/../lib/gcc/arm-none-eabi/11.2.1/thumb/v7e-m+fp/hard\libc_nano.a(lib_a-stdio.o)
                0x08015e20                __sread
 .text.__seofread
                0x08015e42        0x4 c:/users/luke/desktop/mcha toolchain windows/toolchain/gcc-arm-none-eabi/bin/../lib/gcc/arm-none-eabi/11.2.1/thumb/v7e-m+fp/hard\libc_nano.a(lib_a-stdio.o)
                0x08015e42                __seofread
 .text.__swrite
                0x08015e46       0x38 c:/users/luke/desktop/mcha toolchain windows/toolchain/gcc-arm-none-eabi/bin/../lib/gcc/arm-none-eabi/11.2.1/thumb/v7e-m+fp/hard\libc_nano.a(lib_a-stdio.o)
                0x08015e46                __swrite
 .text.__sseek  0x08015e7e       0x24 c:/users/luke/desktop/mcha toolchain windows/toolchain/gcc-arm-none-eabi/bin/../lib/gcc/arm-none-eabi/11.2.1/thumb/v7e-m+fp/hard\libc_nano.a(lib_a-stdio.o)
                0x08015e7e                __sseek
 .text.__sclose
                0x08015ea2        0x8 c:/users/luke/desktop/mcha toolchain windows/toolchain/gcc-arm-none-eabi/bin/../lib/gcc/arm-none-eabi/11.2.1/thumb/v7e-m+fp/hard\libc_nano.a(lib_a-stdio.o)
                0x08015ea2                __sclose
 .text.strncmp  0x08015eaa       0x24 c:/users/luke/desktop/mcha toolchain windows/toolchain/gcc-arm-none-eabi/bin/../lib/gcc/arm-none-eabi/11.2.1/thumb/v7e-m+fp/hard\libc_nano.a(lib_a-strncmp.o)
                0x08015eaa                strncmp
 *fill*         0x08015ece        0x2 
 .text.__swbuf_r
                0x08015ed0       0xa4 c:/users/luke/desktop/mcha toolchain windows/toolchain/gcc-arm-none-eabi/bin/../lib/gcc/arm-none-eabi/11.2.1/thumb/v7e-m+fp/hard\libc_nano.a(lib_a-wbuf.o)
                0x08015ed0                __swbuf_r
 .text.__swbuf  0x08015f74       0x10 c:/users/luke/desktop/mcha toolchain windows/toolchain/gcc-arm-none-eabi/bin/../lib/gcc/arm-none-eabi/11.2.1/thumb/v7e-m+fp/hard\libc_nano.a(lib_a-wbuf.o)
                0x08015f74                __swbuf
 .text._wctomb_r
                0x08015f84       0x14 c:/users/luke/desktop/mcha toolchain windows/toolchain/gcc-arm-none-eabi/bin/../lib/gcc/arm-none-eabi/11.2.1/thumb/v7e-m+fp/hard\libc_nano.a(lib_a-wctomb_r.o)
                0x08015f84                _wctomb_r
 .text.__ascii_wctomb
                0x08015f98       0x1a c:/users/luke/desktop/mcha toolchain windows/toolchain/gcc-arm-none-eabi/bin/../lib/gcc/arm-none-eabi/11.2.1/thumb/v7e-m+fp/hard\libc_nano.a(lib_a-wctomb_r.o)
                0x08015f98                __ascii_wctomb
 *fill*         0x08015fb2        0x2 
 .text._write_r
                0x08015fb4       0x24 c:/users/luke/desktop/mcha toolchain windows/toolchain/gcc-arm-none-eabi/bin/../lib/gcc/arm-none-eabi/11.2.1/thumb/v7e-m+fp/hard\libc_nano.a(lib_a-writer.o)
                0x08015fb4                _write_r
 .text.__swsetup_r
                0x08015fd8       0xdc c:/users/luke/desktop/mcha toolchain windows/toolchain/gcc-arm-none-eabi/bin/../lib/gcc/arm-none-eabi/11.2.1/thumb/v7e-m+fp/hard\libc_nano.a(lib_a-wsetup.o)
                0x08015fd8                __swsetup_r
 .text.__assert_func
                0x080160b4       0x3c c:/users/luke/desktop/mcha toolchain windows/toolchain/gcc-arm-none-eabi/bin/../lib/gcc/arm-none-eabi/11.2.1/thumb/v7e-m+fp/hard\libc_nano.a(lib_a-assert.o)
                0x080160b4                __assert_func
 .text.__assert
                0x080160f0        0xa c:/users/luke/desktop/mcha toolchain windows/toolchain/gcc-arm-none-eabi/bin/../lib/gcc/arm-none-eabi/11.2.1/thumb/v7e-m+fp/hard\libc_nano.a(lib_a-assert.o)
                0x080160f0                __assert
 *fill*         0x080160fa        0x2 
 .text._close_r
                0x080160fc       0x20 c:/users/luke/desktop/mcha toolchain windows/toolchain/gcc-arm-none-eabi/bin/../lib/gcc/arm-none-eabi/11.2.1/thumb/v7e-m+fp/hard\libc_nano.a(lib_a-closer.o)
                0x080160fc                _close_r
 .text._fstat_r
                0x0801611c       0x24 c:/users/luke/desktop/mcha toolchain windows/toolchain/gcc-arm-none-eabi/bin/../lib/gcc/arm-none-eabi/11.2.1/thumb/v7e-m+fp/hard\libc_nano.a(lib_a-fstatr.o)
                0x0801611c                _fstat_r
 .text.__sfvwrite_r
                0x08016140      0x294 c:/users/luke/desktop/mcha toolchain windows/toolchain/gcc-arm-none-eabi/bin/../lib/gcc/arm-none-eabi/11.2.1/thumb/v7e-m+fp/hard\libc_nano.a(lib_a-fvwrite.o)
                0x08016140                __sfvwrite_r
 .text._isatty_r
                0x080163d4       0x20 c:/users/luke/desktop/mcha toolchain windows/toolchain/gcc-arm-none-eabi/bin/../lib/gcc/arm-none-eabi/11.2.1/thumb/v7e-m+fp/hard\libc_nano.a(lib_a-isattyr.o)
                0x080163d4                _isatty_r
 .text._lseek_r
                0x080163f4       0x24 c:/users/luke/desktop/mcha toolchain windows/toolchain/gcc-arm-none-eabi/bin/../lib/gcc/arm-none-eabi/11.2.1/thumb/v7e-m+fp/hard\libc_nano.a(lib_a-lseekr.o)
                0x080163f4                _lseek_r
 .text.memmove  0x08016418       0x34 c:/users/luke/desktop/mcha toolchain windows/toolchain/gcc-arm-none-eabi/bin/../lib/gcc/arm-none-eabi/11.2.1/thumb/v7e-m+fp/hard\libc_nano.a(lib_a-memmove.o)
                0x08016418                memmove
 .text._realloc_r
                0x0801644c       0x5e c:/users/luke/desktop/mcha toolchain windows/toolchain/gcc-arm-none-eabi/bin/../lib/gcc/arm-none-eabi/11.2.1/thumb/v7e-m+fp/hard\libc_nano.a(lib_a-nano-reallocr.o)
                0x0801644c                _realloc_r
 *fill*         0x080164aa        0x2 
 .text._read_r  0x080164ac       0x24 c:/users/luke/desktop/mcha toolchain windows/toolchain/gcc-arm-none-eabi/bin/../lib/gcc/arm-none-eabi/11.2.1/thumb/v7e-m+fp/hard\libc_nano.a(lib_a-readr.o)
                0x080164ac                _read_r
 .text.abort    0x080164d0        0xe c:/users/luke/desktop/mcha toolchain windows/toolchain/gcc-arm-none-eabi/bin/../lib/gcc/arm-none-eabi/11.2.1/thumb/v7e-m+fp/hard\libc_nano.a(lib_a-abort.o)
                0x080164d0                abort
 .text._malloc_usable_size_r
                0x080164de       0x10 c:/users/luke/desktop/mcha toolchain windows/toolchain/gcc-arm-none-eabi/bin/../lib/gcc/arm-none-eabi/11.2.1/thumb/v7e-m+fp/hard\libc_nano.a(lib_a-nano-msizer.o)
                0x080164de                _malloc_usable_size_r
 .text._init_signal_r
                0x080164ee       0x28 c:/users/luke/desktop/mcha toolchain windows/toolchain/gcc-arm-none-eabi/bin/../lib/gcc/arm-none-eabi/11.2.1/thumb/v7e-m+fp/hard\libc_nano.a(lib_a-signal.o)
                0x080164ee                _init_signal_r
 .text._signal_r
                0x08016516       0x30 c:/users/luke/desktop/mcha toolchain windows/toolchain/gcc-arm-none-eabi/bin/../lib/gcc/arm-none-eabi/11.2.1/thumb/v7e-m+fp/hard\libc_nano.a(lib_a-signal.o)
                0x08016516                _signal_r
 .text._raise_r
                0x08016546       0x50 c:/users/luke/desktop/mcha toolchain windows/toolchain/gcc-arm-none-eabi/bin/../lib/gcc/arm-none-eabi/11.2.1/thumb/v7e-m+fp/hard\libc_nano.a(lib_a-signal.o)
                0x08016546                _raise_r
 .text.__sigtramp_r
                0x08016596       0x48 c:/users/luke/desktop/mcha toolchain windows/toolchain/gcc-arm-none-eabi/bin/../lib/gcc/arm-none-eabi/11.2.1/thumb/v7e-m+fp/hard\libc_nano.a(lib_a-signal.o)
                0x08016596                __sigtramp_r
 *fill*         0x080165de        0x2 
 .text.raise    0x080165e0       0x10 c:/users/luke/desktop/mcha toolchain windows/toolchain/gcc-arm-none-eabi/bin/../lib/gcc/arm-none-eabi/11.2.1/thumb/v7e-m+fp/hard\libc_nano.a(lib_a-signal.o)
                0x080165e0                raise
 .text.signal   0x080165f0       0x10 c:/users/luke/desktop/mcha toolchain windows/toolchain/gcc-arm-none-eabi/bin/../lib/gcc/arm-none-eabi/11.2.1/thumb/v7e-m+fp/hard\libc_nano.a(lib_a-signal.o)
                0x080165f0                signal
 .text._init_signal
                0x08016600        0xc c:/users/luke/desktop/mcha toolchain windows/toolchain/gcc-arm-none-eabi/bin/../lib/gcc/arm-none-eabi/11.2.1/thumb/v7e-m+fp/hard\libc_nano.a(lib_a-signal.o)
                0x08016600                _init_signal
 .text.__sigtramp
                0x0801660c       0x10 c:/users/luke/desktop/mcha toolchain windows/toolchain/gcc-arm-none-eabi/bin/../lib/gcc/arm-none-eabi/11.2.1/thumb/v7e-m+fp/hard\libc_nano.a(lib_a-signal.o)
                0x0801660c                __sigtramp
 .text._kill_r  0x0801661c       0x24 c:/users/luke/desktop/mcha toolchain windows/toolchain/gcc-arm-none-eabi/bin/../lib/gcc/arm-none-eabi/11.2.1/thumb/v7e-m+fp/hard\libc_nano.a(lib_a-signalr.o)
                0x0801661c                _kill_r
 .text._getpid_r
                0x08016640        0x4 c:/users/luke/desktop/mcha toolchain windows/toolchain/gcc-arm-none-eabi/bin/../lib/gcc/arm-none-eabi/11.2.1/thumb/v7e-m+fp/hard\libc_nano.a(lib_a-signalr.o)
                0x08016640                _getpid_r
 .text.__fixdfdi
                0x08016644       0x30 c:/users/luke/desktop/mcha toolchain windows/toolchain/gcc-arm-none-eabi/bin/../lib/gcc/arm-none-eabi/11.2.1/thumb/v7e-m+fp/hard\libgcc.a(_fixdfdi.o)
                0x08016644                __fixdfdi
                0x08016644                __aeabi_d2lz
 .text.__fixunsdfdi
                0x08016674       0x3c c:/users/luke/desktop/mcha toolchain windows/toolchain/gcc-arm-none-eabi/bin/../lib/gcc/arm-none-eabi/11.2.1/thumb/v7e-m+fp/hard\libgcc.a(_fixunsdfdi.o)
                0x08016674                __fixunsdfdi
                0x08016674                __aeabi_d2ulz
 .text._close   0x080166b0       0x10 c:/users/luke/desktop/mcha toolchain windows/toolchain/gcc-arm-none-eabi/bin/../lib/gcc/arm-none-eabi/11.2.1/thumb/v7e-m+fp/hard\libnosys.a(close.o)
                0x080166b0                _close
 .text._fstat   0x080166c0       0x10 c:/users/luke/desktop/mcha toolchain windows/toolchain/gcc-arm-none-eabi/bin/../lib/gcc/arm-none-eabi/11.2.1/thumb/v7e-m+fp/hard\libnosys.a(fstat.o)
                0x080166c0                _fstat
 .text._getpid  0x080166d0       0x10 c:/users/luke/desktop/mcha toolchain windows/toolchain/gcc-arm-none-eabi/bin/../lib/gcc/arm-none-eabi/11.2.1/thumb/v7e-m+fp/hard\libnosys.a(getpid.o)
                0x080166d0                _getpid
 .text._isatty  0x080166e0       0x10 c:/users/luke/desktop/mcha toolchain windows/toolchain/gcc-arm-none-eabi/bin/../lib/gcc/arm-none-eabi/11.2.1/thumb/v7e-m+fp/hard\libnosys.a(isatty.o)
                0x080166e0                _isatty
 .text._kill    0x080166f0       0x10 c:/users/luke/desktop/mcha toolchain windows/toolchain/gcc-arm-none-eabi/bin/../lib/gcc/arm-none-eabi/11.2.1/thumb/v7e-m+fp/hard\libnosys.a(kill.o)
                0x080166f0                _kill
 .text._lseek   0x08016700       0x10 c:/users/luke/desktop/mcha toolchain windows/toolchain/gcc-arm-none-eabi/bin/../lib/gcc/arm-none-eabi/11.2.1/thumb/v7e-m+fp/hard\libnosys.a(lseek.o)
                0x08016700                _lseek
 .text._exit    0x08016710        0x4 c:/users/luke/desktop/mcha toolchain windows/toolchain/gcc-arm-none-eabi/bin/../lib/gcc/arm-none-eabi/11.2.1/thumb/v7e-m+fp/hard\libnosys.a(_exit.o)
                0x08016710                _exit
 *(.glue_7)
 .glue_7        0x08016714        0x0 linker stubs
 *(.glue_7t)
 .glue_7t       0x08016714        0x0 linker stubs
 *(.eh_frame)
 .eh_frame      0x08016714        0x0 c:/users/luke/desktop/mcha toolchain windows/toolchain/gcc-arm-none-eabi/bin/../lib/gcc/arm-none-eabi/11.2.1/thumb/v7e-m+fp/hard/crtbegin.o
 .eh_frame      0x08016714        0x4 c:/users/luke/desktop/mcha toolchain windows/toolchain/gcc-arm-none-eabi/bin/../lib/gcc/arm-none-eabi/11.2.1/thumb/v7e-m+fp/hard/crtend.o
 *(.init)
 .init          0x08016718        0x4 c:/users/luke/desktop/mcha toolchain windows/toolchain/gcc-arm-none-eabi/bin/../lib/gcc/arm-none-eabi/11.2.1/thumb/v7e-m+fp/hard/crti.o
                0x08016718                _init
 .init          0x0801671c        0x8 c:/users/luke/desktop/mcha toolchain windows/toolchain/gcc-arm-none-eabi/bin/../lib/gcc/arm-none-eabi/11.2.1/thumb/v7e-m+fp/hard/crtn.o
 *(.fini)
 .fini          0x08016724        0x4 c:/users/luke/desktop/mcha toolchain windows/toolchain/gcc-arm-none-eabi/bin/../lib/gcc/arm-none-eabi/11.2.1/thumb/v7e-m+fp/hard/crti.o
                0x08016724                _fini
 .fini          0x08016728        0x8 c:/users/luke/desktop/mcha toolchain windows/toolchain/gcc-arm-none-eabi/bin/../lib/gcc/arm-none-eabi/11.2.1/thumb/v7e-m+fp/hard/crtn.o
                0x08016730                . = ALIGN (0x4)
                0x08016730                _etext = .

.vfp11_veneer   0x08016730        0x0
 .vfp11_veneer  0x08016730        0x0 linker stubs

.v4_bx          0x08016730        0x0
 .v4_bx         0x08016730        0x0 linker stubs

.iplt           0x08016730        0x0
 .iplt          0x08016730        0x0 c:/users/luke/desktop/mcha toolchain windows/toolchain/gcc-arm-none-eabi/bin/../lib/gcc/arm-none-eabi/11.2.1/thumb/v7e-m+fp/hard/crtbegin.o

.rodata         0x08016730      0xd90
                0x08016730                . = ALIGN (0x4)
 *(.rodata)
 .rodata        0x08016730       0x18 build/system_stm32f4xx.o
                0x08016730                AHBPrescTable
                0x08016740                APBPrescTable
 .rodata        0x08016748       0x30 build/cmd_parser.o
 .rodata        0x08016778       0x24 build/cmd_task.o
                0x08016778                cmdTask_attr
 .rodata        0x0801679c        0x8 build/stm32f4_HAL/stm32f4xx_hal_dma.o
 .rodata        0x080167a4        0x8 build/stm32f4_HAL/stm32f4xx_ll_dma.o
 .rodata        0x080167ac        0x5 build/FreeRTOS/cmsis_os2.o
 *(.rodata*)
 *fill*         0x080167b1        0x3 
 .rodata.all_implied_fbits
                0x080167b4       0x24 c:/users/luke/desktop/mcha toolchain windows/toolchain/gcc-arm-none-eabi/bin/../lib/gcc/arm-none-eabi/11.2.1/thumb/v7e-m+fp/hard/crtbegin.o
 .rodata.str1.1
                0x080167d8       0x25 build/cmd_line_buffer.o
 .rodata.str1.1
                0x080167fd      0x606 build/cmd_parser.o
                                0x60c (size before relaxing)
 .rodata.str1.1
                0x08016e03        0xe build/cmd_task.o
 .rodata.str1.1
                0x08016e11       0x7e build/uart.o
 .rodata.str1.1
                0x08016e8f        0xa build/heartbeat_task.o
 .rodata.str1.1
                0x08016e8f       0xb4 build/heartbeat_cmd.o
 .rodata.str1.1
                0x08016f43        0xa build/dummy_task.o
 .rodata.str1.1
                0x08016f43        0x5 build/FreeRTOS/tasks.o
 .rodata.str1.1
                0x08016f48        0x8 build/FreeRTOS/timers.o
 .rodata.str1.1
                0x08016f50       0x11 build/FreeRTOS/cmsis_os2.o
 .rodata._ctype_
                0x08016f61      0x101 c:/users/luke/desktop/mcha toolchain windows/toolchain/gcc-arm-none-eabi/bin/../lib/gcc/arm-none-eabi/11.2.1/thumb/v7e-m+fp/hard\libc_nano.a(lib_a-ctype_.o)
                0x08016f61                _ctype_
 *fill*         0x08017062        0x2 
 .rodata._global_impure_ptr
                0x08017064        0x4 c:/users/luke/desktop/mcha toolchain windows/toolchain/gcc-arm-none-eabi/bin/../lib/gcc/arm-none-eabi/11.2.1/thumb/v7e-m+fp/hard\libc_nano.a(lib_a-impure.o)
                0x08017064                _global_impure_ptr
 .rodata._mstats_r.str1.1
                0x08017068       0x21 c:/users/luke/desktop/mcha toolchain windows/toolchain/gcc-arm-none-eabi/bin/../lib/gcc/arm-none-eabi/11.2.1/thumb/v7e-m+fp/hard\libc_nano.a(lib_a-mstats.o)
 .rodata._malloc_stats_r.str1.1
                0x08017089       0x4b c:/users/luke/desktop/mcha toolchain windows/toolchain/gcc-arm-none-eabi/bin/../lib/gcc/arm-none-eabi/11.2.1/thumb/v7e-m+fp/hard\libc_nano.a(lib_a-nano-mallstatsr.o)
 .rodata._printf_float.str1.1
                0x080170d4       0x12 c:/users/luke/desktop/mcha toolchain windows/toolchain/gcc-arm-none-eabi/bin/../lib/gcc/arm-none-eabi/11.2.1/thumb/v7e-m+fp/hard\libc_nano.a(lib_a-nano-vfprintf_float.o)
 .rodata._printf_i.str1.1
                0x080170e6       0x22 c:/users/luke/desktop/mcha toolchain windows/toolchain/gcc-arm-none-eabi/bin/../lib/gcc/arm-none-eabi/11.2.1/thumb/v7e-m+fp/hard\libc_nano.a(lib_a-nano-vfprintf_i.o)
 .rodata._scanf_float.str1.1
                0x08017108        0x5 c:/users/luke/desktop/mcha toolchain windows/toolchain/gcc-arm-none-eabi/bin/../lib/gcc/arm-none-eabi/11.2.1/thumb/v7e-m+fp/hard\libc_nano.a(lib_a-nano-vfscanf_float.o)
                                  0x6 (size before relaxing)
 .rodata._strtod_l.str1.1
                0x0801710d        0x5 c:/users/luke/desktop/mcha toolchain windows/toolchain/gcc-arm-none-eabi/bin/../lib/gcc/arm-none-eabi/11.2.1/thumb/v7e-m+fp/hard\libc_nano.a(lib_a-strtod.o)
                                  0xd (size before relaxing)
 *fill*         0x0801710d        0x3 
 .rodata.fpi.1  0x08017110       0x14 c:/users/luke/desktop/mcha toolchain windows/toolchain/gcc-arm-none-eabi/bin/../lib/gcc/arm-none-eabi/11.2.1/thumb/v7e-m+fp/hard\libc_nano.a(lib_a-strtod.o)
 .rodata.fpinan.0
                0x08017124       0x14 c:/users/luke/desktop/mcha toolchain windows/toolchain/gcc-arm-none-eabi/bin/../lib/gcc/arm-none-eabi/11.2.1/thumb/v7e-m+fp/hard\libc_nano.a(lib_a-strtod.o)
 .rodata.tinytens
                0x08017138       0x28 c:/users/luke/desktop/mcha toolchain windows/toolchain/gcc-arm-none-eabi/bin/../lib/gcc/arm-none-eabi/11.2.1/thumb/v7e-m+fp/hard\libc_nano.a(lib_a-strtod.o)
 .rodata._dtoa_r.str1.1
                0x08017160       0x8e c:/users/luke/desktop/mcha toolchain windows/toolchain/gcc-arm-none-eabi/bin/../lib/gcc/arm-none-eabi/11.2.1/thumb/v7e-m+fp/hard\libc_nano.a(lib_a-dtoa.o)
                                 0x90 (size before relaxing)
 *fill*         0x080171ee        0x2 
 .rodata.__sf_fake_stderr
                0x080171f0       0x20 c:/users/luke/desktop/mcha toolchain windows/toolchain/gcc-arm-none-eabi/bin/../lib/gcc/arm-none-eabi/11.2.1/thumb/v7e-m+fp/hard\libc_nano.a(lib_a-findfp.o)
                0x080171f0                __sf_fake_stderr
 .rodata.__sf_fake_stdin
                0x08017210       0x20 c:/users/luke/desktop/mcha toolchain windows/toolchain/gcc-arm-none-eabi/bin/../lib/gcc/arm-none-eabi/11.2.1/thumb/v7e-m+fp/hard\libc_nano.a(lib_a-findfp.o)
                0x08017210                __sf_fake_stdin
 .rodata.__sf_fake_stdout
                0x08017230       0x20 c:/users/luke/desktop/mcha toolchain windows/toolchain/gcc-arm-none-eabi/bin/../lib/gcc/arm-none-eabi/11.2.1/thumb/v7e-m+fp/hard\libc_nano.a(lib_a-findfp.o)
                0x08017230                __sf_fake_stdout
 .rodata.__gethex.str1.1
                0x08017250       0x61 c:/users/luke/desktop/mcha toolchain windows/toolchain/gcc-arm-none-eabi/bin/../lib/gcc/arm-none-eabi/11.2.1/thumb/v7e-m+fp/hard\libc_nano.a(lib_a-gdtoa-gethex.o)
                                 0x72 (size before relaxing)
 .rodata.str1.1
                0x080172b1       0x61 c:/users/luke/desktop/mcha toolchain windows/toolchain/gcc-arm-none-eabi/bin/../lib/gcc/arm-none-eabi/11.2.1/thumb/v7e-m+fp/hard\libc_nano.a(lib_a-lnumeric.o)
                                  0x3 (size before relaxing)
 *fill*         0x080172b1        0x3 
 .rodata._C_numeric_locale
                0x080172b4        0xc c:/users/luke/desktop/mcha toolchain windows/toolchain/gcc-arm-none-eabi/bin/../lib/gcc/arm-none-eabi/11.2.1/thumb/v7e-m+fp/hard\libc_nano.a(lib_a-lnumeric.o)
                0x080172b4                _C_numeric_locale
 .rodata._setlocale_r.str1.1
                0x080172c0        0x8 c:/users/luke/desktop/mcha toolchain windows/toolchain/gcc-arm-none-eabi/bin/../lib/gcc/arm-none-eabi/11.2.1/thumb/v7e-m+fp/hard\libc_nano.a(lib_a-locale.o)
                                  0x9 (size before relaxing)
 .rodata.str1.1
                0x080172c8        0x2 c:/users/luke/desktop/mcha toolchain windows/toolchain/gcc-arm-none-eabi/bin/../lib/gcc/arm-none-eabi/11.2.1/thumb/v7e-m+fp/hard\libc_nano.a(lib_a-locale.o)
 .rodata._Balloc.str1.1
                0x080172c8       0x5a c:/users/luke/desktop/mcha toolchain windows/toolchain/gcc-arm-none-eabi/bin/../lib/gcc/arm-none-eabi/11.2.1/thumb/v7e-m+fp/hard\libc_nano.a(lib_a-mprec.o)
                                 0x71 (size before relaxing)
 .rodata.__multadd.str1.1
                0x08017322       0x11 c:/users/luke/desktop/mcha toolchain windows/toolchain/gcc-arm-none-eabi/bin/../lib/gcc/arm-none-eabi/11.2.1/thumb/v7e-m+fp/hard\libc_nano.a(lib_a-mprec.o)
 *fill*         0x08017322        0x6 
 .rodata.__mprec_bigtens
                0x08017328       0x28 c:/users/luke/desktop/mcha toolchain windows/toolchain/gcc-arm-none-eabi/bin/../lib/gcc/arm-none-eabi/11.2.1/thumb/v7e-m+fp/hard\libc_nano.a(lib_a-mprec.o)
                0x08017328                __mprec_bigtens
 .rodata.__mprec_tens
                0x08017350       0xc8 c:/users/luke/desktop/mcha toolchain windows/toolchain/gcc-arm-none-eabi/bin/../lib/gcc/arm-none-eabi/11.2.1/thumb/v7e-m+fp/hard\libc_nano.a(lib_a-mprec.o)
                0x08017350                __mprec_tens
 .rodata.__mprec_tinytens
                0x08017418       0x28 c:/users/luke/desktop/mcha toolchain windows/toolchain/gcc-arm-none-eabi/bin/../lib/gcc/arm-none-eabi/11.2.1/thumb/v7e-m+fp/hard\libc_nano.a(lib_a-mprec.o)
                0x08017418                __mprec_tinytens
 .rodata.p05.0  0x08017440        0xc c:/users/luke/desktop/mcha toolchain windows/toolchain/gcc-arm-none-eabi/bin/../lib/gcc/arm-none-eabi/11.2.1/thumb/v7e-m+fp/hard\libc_nano.a(lib_a-mprec.o)
 .rodata._svfprintf_r.str1.1
                0x0801744c       0x11 c:/users/luke/desktop/mcha toolchain windows/toolchain/gcc-arm-none-eabi/bin/../lib/gcc/arm-none-eabi/11.2.1/thumb/v7e-m+fp/hard\libc_nano.a(lib_a-nano-svfprintf.o)
 .rodata._vfprintf_r.str1.1
                0x0801745d       0x11 c:/users/luke/desktop/mcha toolchain windows/toolchain/gcc-arm-none-eabi/bin/../lib/gcc/arm-none-eabi/11.2.1/thumb/v7e-m+fp/hard\libc_nano.a(lib_a-nano-vfprintf.o)
 .rodata.__assert_func.str1.1
                0x0801745d       0x3c c:/users/luke/desktop/mcha toolchain windows/toolchain/gcc-arm-none-eabi/bin/../lib/gcc/arm-none-eabi/11.2.1/thumb/v7e-m+fp/hard\libc_nano.a(lib_a-assert.o)
                                 0x3d (size before relaxing)
 *fill*         0x08017499        0x3 
 .rodata.all_implied_fbits
                0x0801749c       0x24 c:/users/luke/desktop/mcha toolchain windows/toolchain/gcc-arm-none-eabi/bin/../lib/gcc/arm-none-eabi/11.2.1/thumb/v7e-m+fp/hard/crtend.o
                0x080174c0                . = ALIGN (0x4)

.ARM.extab      0x080174c0        0x0
 *(.ARM.extab* .gnu.linkonce.armextab.*)
 .ARM.extab     0x080174c0        0x0 c:/users/luke/desktop/mcha toolchain windows/toolchain/gcc-arm-none-eabi/bin/../lib/gcc/arm-none-eabi/11.2.1/thumb/v7e-m+fp/hard/crt0.o
 .ARM.extab.text.__udivmoddi4
                0x080174c0        0x0 c:/users/luke/desktop/mcha toolchain windows/toolchain/gcc-arm-none-eabi/bin/../lib/gcc/arm-none-eabi/11.2.1/thumb/v7e-m+fp/hard\libgcc.a(_udivmoddi4.o)

.ARM            0x080174c0        0x8
                0x080174c0                __exidx_start = .
 *(.ARM.exidx*)
 .ARM.exidx     0x080174c0        0x8 c:/users/luke/desktop/mcha toolchain windows/toolchain/gcc-arm-none-eabi/bin/../lib/gcc/arm-none-eabi/11.2.1/thumb/v7e-m+fp/hard/crt0.o
                                 0x10 (size before relaxing)
 .ARM.exidx.text.__udivmoddi4
                0x080174c8        0x0 c:/users/luke/desktop/mcha toolchain windows/toolchain/gcc-arm-none-eabi/bin/../lib/gcc/arm-none-eabi/11.2.1/thumb/v7e-m+fp/hard\libgcc.a(_udivmoddi4.o)
                                  0x8 (size before relaxing)
                0x080174c8                __exidx_end = .

.rel.dyn        0x080174c8        0x0
 .rel.iplt      0x080174c8        0x0 c:/users/luke/desktop/mcha toolchain windows/toolchain/gcc-arm-none-eabi/bin/../lib/gcc/arm-none-eabi/11.2.1/thumb/v7e-m+fp/hard/crtbegin.o

.preinit_array  0x080174c8        0x0
                0x080174c8                PROVIDE (__preinit_array_start = .)
 *(.preinit_array*)
                0x080174c8                PROVIDE (__preinit_array_end = .)

.init_array     0x080174c8        0x4
                0x080174c8                PROVIDE (__init_array_start = .)
 *(SORT_BY_NAME(.init_array.*))
 *(.init_array*)
 .init_array    0x080174c8        0x4 c:/users/luke/desktop/mcha toolchain windows/toolchain/gcc-arm-none-eabi/bin/../lib/gcc/arm-none-eabi/11.2.1/thumb/v7e-m+fp/hard/crtbegin.o
                0x080174cc                PROVIDE (__init_array_end = .)

.fini_array     0x080174cc        0x4
                [!provide]                PROVIDE (__fini_array_start = .)
 *(SORT_BY_NAME(.fini_array.*))
 *(.fini_array*)
 .fini_array    0x080174cc        0x4 c:/users/luke/desktop/mcha toolchain windows/toolchain/gcc-arm-none-eabi/bin/../lib/gcc/arm-none-eabi/11.2.1/thumb/v7e-m+fp/hard/crtbegin.o
                [!provide]                PROVIDE (__fini_array_end = .)
                0x080174d0                _sidata = LOADADDR (.data)

.data           0x20000000      0x250 load address 0x080174d0
                0x20000000                . = ALIGN (0x4)
                0x20000000                _sdata = .
 *(.data)
 .data          0x20000000        0x0 c:/users/luke/desktop/mcha toolchain windows/toolchain/gcc-arm-none-eabi/bin/../lib/gcc/arm-none-eabi/11.2.1/thumb/v7e-m+fp/hard/crti.o
 .data          0x20000000        0x0 c:/users/luke/desktop/mcha toolchain windows/toolchain/gcc-arm-none-eabi/bin/../lib/gcc/arm-none-eabi/11.2.1/thumb/v7e-m+fp/hard/crtbegin.o
 .data          0x20000000        0x0 c:/users/luke/desktop/mcha toolchain windows/toolchain/gcc-arm-none-eabi/bin/../lib/gcc/arm-none-eabi/11.2.1/thumb/v7e-m+fp/hard/crt0.o
 .data          0x20000000        0x0 build/stm32f4xx_it.o
 .data          0x20000000        0x4 build/system_stm32f4xx.o
                0x20000000                SystemCoreClock
 .data          0x20000004        0x0 build/cmd_line_buffer.o
 .data          0x20000004        0x0 build/cmd_parser.o
 .data          0x20000004        0x8 build/cmd_task.o
 .data          0x2000000c        0x0 build/main.o
 .data          0x2000000c       0x10 build/uart.o
 .data          0x2000001c       0x24 build/heartbeat_task.o
 .data          0x20000040        0x0 build/heartbeat_cmd.o
 .data          0x20000040       0x24 build/dummy_task.o
 .data          0x20000064        0x0 build/startup_stm32f446xx.o
 .data          0x20000064        0x8 build/stm32f4_HAL/stm32f4xx_hal.o
                0x20000064                uwTickFreq
                0x20000068                uwTickPrio
 .data          0x2000006c        0x0 build/stm32f4_HAL/stm32f4xx_hal_dma.o
 .data          0x2000006c        0x0 build/stm32f4_HAL/stm32f4xx_hal_adc.o
 .data          0x2000006c        0x0 build/stm32f4_HAL/stm32f4xx_hal_adc_ex.o
 .data          0x2000006c        0x0 build/stm32f4_HAL/stm32f4xx_hal_gpio.o
 .data          0x2000006c        0x0 build/stm32f4_HAL/stm32f4xx_ll_gpio.o
 .data          0x2000006c        0x0 build/stm32f4_HAL/stm32f4xx_ll_usart.o
 .data          0x2000006c        0x0 build/stm32f4_HAL/stm32f4xx_ll_dma.o
 .data          0x2000006c        0x0 build/stm32f4_HAL/stm32f4xx_ll_rcc.o
 .data          0x2000006c        0x0 build/stm32f4_HAL/stm32f4xx_hal_i2c.o
 .data          0x2000006c        0x0 build/stm32f4_HAL/stm32f4xx_hal_i2c_ex.o
 .data          0x2000006c        0x0 build/stm32f4_HAL/stm32f4xx_hal_tim.o
 .data          0x2000006c        0x0 build/stm32f4_HAL/stm32f4xx_hal_tim_ex.o
 .data          0x2000006c        0x0 build/stm32f4_HAL/stm32f4xx_hal_rtc.o
 .data          0x2000006c        0x0 build/stm32f4_HAL/stm32f4xx_hal_rcc.o
 .data          0x2000006c        0x0 build/stm32f4_HAL/stm32f4xx_hal_rcc_ex.o
 .data          0x2000006c        0x0 build/stm32f4_HAL/stm32f4xx_hal_pwr.o
 .data          0x2000006c        0x0 build/stm32f4_HAL/stm32f4xx_hal_pwr_ex.o
 .data          0x2000006c        0x0 build/stm32f4_HAL/stm32f4xx_hal_cortex.o
 .data          0x2000006c        0x0 build/stm32f4_HAL/stm32f4xx_hal_spi.o
 .data          0x2000006c        0x0 build/stm32f4_HAL/stm32f4xx_hal_dac.o
 .data          0x2000006c        0x0 build/stm32f4_HAL/stm32f4xx_hal_dac_ex.o
 .data          0x2000006c        0x0 build/stm32f4_HAL/stm32f4xx_hal_can.o
 .data          0x2000006c        0x0 build/FreeRTOS/croutine.o
 .data          0x2000006c        0x0 build/FreeRTOS/event_groups.o
 .data          0x2000006c        0x0 build/FreeRTOS/list.o
 .data          0x2000006c        0x0 build/FreeRTOS/queue.o
 .data          0x2000006c        0x0 build/FreeRTOS/tasks.o
 .data          0x2000006c        0x0 build/FreeRTOS/timers.o
 .data          0x2000006c        0x0 build/FreeRTOS/stream_buffer.o
 .data          0x2000006c        0x0 build/FreeRTOS/cmsis_os2.o
 .data          0x2000006c        0x0 build/FreeRTOS/clib_arm.o
 .data          0x2000006c        0x0 build/FreeRTOS/os_systick.o
 .data          0x2000006c        0x8 build/FreeRTOS/heap_useNewlib.o
 .data          0x20000074        0x4 build/FreeRTOS/port.o
 .data          0x20000078        0x0 c:/users/luke/desktop/mcha toolchain windows/toolchain/gcc-arm-none-eabi/bin/../lib/gcc/arm-none-eabi/11.2.1/thumb/v7e-m+fp/hard\libgcc.a(_aeabi_ldivmod.o)
 .data          0x20000078        0x0 c:/users/luke/desktop/mcha toolchain windows/toolchain/gcc-arm-none-eabi/bin/../lib/gcc/arm-none-eabi/11.2.1/thumb/v7e-m+fp/hard\libgcc.a(_aeabi_uldivmod.o)
 .data          0x20000078        0x0 c:/users/luke/desktop/mcha toolchain windows/toolchain/gcc-arm-none-eabi/bin/../lib/gcc/arm-none-eabi/11.2.1/thumb/v7e-m+fp/hard\libgcc.a(_udivmoddi4.o)
 .data          0x20000078        0x0 c:/users/luke/desktop/mcha toolchain windows/toolchain/gcc-arm-none-eabi/bin/../lib/gcc/arm-none-eabi/11.2.1/thumb/v7e-m+fp/hard\libgcc.a(_dvmd_tls.o)
 .data          0x20000078        0x0 c:/users/luke/desktop/mcha toolchain windows/toolchain/gcc-arm-none-eabi/bin/../lib/gcc/arm-none-eabi/11.2.1/thumb/v7e-m+fp/hard\libc_nano.a(lib_a-ctype_.o)
 .data          0x20000078        0x0 c:/users/luke/desktop/mcha toolchain windows/toolchain/gcc-arm-none-eabi/bin/../lib/gcc/arm-none-eabi/11.2.1/thumb/v7e-m+fp/hard\libc_nano.a(lib_a-exit.o)
 .data          0x20000078        0x0 c:/users/luke/desktop/mcha toolchain windows/toolchain/gcc-arm-none-eabi/bin/../lib/gcc/arm-none-eabi/11.2.1/thumb/v7e-m+fp/hard\libc_nano.a(lib_a-getchar.o)
 .data          0x20000078        0x0 c:/users/luke/desktop/mcha toolchain windows/toolchain/gcc-arm-none-eabi/bin/../lib/gcc/arm-none-eabi/11.2.1/thumb/v7e-m+fp/hard\libc_nano.a(lib_a-getc.o)
 .data          0x20000078        0x0 c:/users/luke/desktop/mcha toolchain windows/toolchain/gcc-arm-none-eabi/bin/../lib/gcc/arm-none-eabi/11.2.1/thumb/v7e-m+fp/hard\libc_nano.a(lib_a-impure.o)
 .data          0x20000078        0x0 c:/users/luke/desktop/mcha toolchain windows/toolchain/gcc-arm-none-eabi/bin/../lib/gcc/arm-none-eabi/11.2.1/thumb/v7e-m+fp/hard\libc_nano.a(lib_a-init.o)
 .data          0x20000078        0x0 c:/users/luke/desktop/mcha toolchain windows/toolchain/gcc-arm-none-eabi/bin/../lib/gcc/arm-none-eabi/11.2.1/thumb/v7e-m+fp/hard\libc_nano.a(lib_a-malloc.o)
 .data          0x20000078        0x0 c:/users/luke/desktop/mcha toolchain windows/toolchain/gcc-arm-none-eabi/bin/../lib/gcc/arm-none-eabi/11.2.1/thumb/v7e-m+fp/hard\libc_nano.a(lib_a-memcpy-stub.o)
 .data          0x20000078        0x0 c:/users/luke/desktop/mcha toolchain windows/toolchain/gcc-arm-none-eabi/bin/../lib/gcc/arm-none-eabi/11.2.1/thumb/v7e-m+fp/hard\libc_nano.a(lib_a-memset.o)
 .data          0x20000078        0x0 c:/users/luke/desktop/mcha toolchain windows/toolchain/gcc-arm-none-eabi/bin/../lib/gcc/arm-none-eabi/11.2.1/thumb/v7e-m+fp/hard\libc_nano.a(lib_a-mstats.o)
 .data          0x20000078        0x0 c:/users/luke/desktop/mcha toolchain windows/toolchain/gcc-arm-none-eabi/bin/../lib/gcc/arm-none-eabi/11.2.1/thumb/v7e-m+fp/hard\libc_nano.a(lib_a-nano-freer.o)
 .data          0x20000078        0x0 c:/users/luke/desktop/mcha toolchain windows/toolchain/gcc-arm-none-eabi/bin/../lib/gcc/arm-none-eabi/11.2.1/thumb/v7e-m+fp/hard\libc_nano.a(lib_a-nano-mallinfor.o)
 .data          0x20000078        0x0 c:/users/luke/desktop/mcha toolchain windows/toolchain/gcc-arm-none-eabi/bin/../lib/gcc/arm-none-eabi/11.2.1/thumb/v7e-m+fp/hard\libc_nano.a(lib_a-nano-mallocr.o)
 .data          0x20000078        0x0 c:/users/luke/desktop/mcha toolchain windows/toolchain/gcc-arm-none-eabi/bin/../lib/gcc/arm-none-eabi/11.2.1/thumb/v7e-m+fp/hard\libc_nano.a(lib_a-nano-malloptr.o)
 .data          0x20000078        0x0 c:/users/luke/desktop/mcha toolchain windows/toolchain/gcc-arm-none-eabi/bin/../lib/gcc/arm-none-eabi/11.2.1/thumb/v7e-m+fp/hard\libc_nano.a(lib_a-nano-mallstatsr.o)
 .data          0x20000078        0x0 c:/users/luke/desktop/mcha toolchain windows/toolchain/gcc-arm-none-eabi/bin/../lib/gcc/arm-none-eabi/11.2.1/thumb/v7e-m+fp/hard\libc_nano.a(lib_a-nano-vfprintf_float.o)
 .data          0x20000078        0x0 c:/users/luke/desktop/mcha toolchain windows/toolchain/gcc-arm-none-eabi/bin/../lib/gcc/arm-none-eabi/11.2.1/thumb/v7e-m+fp/hard\libc_nano.a(lib_a-nano-vfprintf_i.o)
 .data          0x20000078        0x0 c:/users/luke/desktop/mcha toolchain windows/toolchain/gcc-arm-none-eabi/bin/../lib/gcc/arm-none-eabi/11.2.1/thumb/v7e-m+fp/hard\libc_nano.a(lib_a-nano-vfscanf_float.o)
 .data          0x20000078        0x0 c:/users/luke/desktop/mcha toolchain windows/toolchain/gcc-arm-none-eabi/bin/../lib/gcc/arm-none-eabi/11.2.1/thumb/v7e-m+fp/hard\libc_nano.a(lib_a-printf.o)
 .data          0x20000078        0x0 c:/users/luke/desktop/mcha toolchain windows/toolchain/gcc-arm-none-eabi/bin/../lib/gcc/arm-none-eabi/11.2.1/thumb/v7e-m+fp/hard\libc_nano.a(lib_a-reent.o)
 .data          0x20000078        0x0 c:/users/luke/desktop/mcha toolchain windows/toolchain/gcc-arm-none-eabi/bin/../lib/gcc/arm-none-eabi/11.2.1/thumb/v7e-m+fp/hard\libc_nano.a(lib_a-rget.o)
 .data          0x20000078        0x0 c:/users/luke/desktop/mcha toolchain windows/toolchain/gcc-arm-none-eabi/bin/../lib/gcc/arm-none-eabi/11.2.1/thumb/v7e-m+fp/hard\libc_nano.a(lib_a-sbrkr.o)
 .data          0x20000078        0x0 c:/users/luke/desktop/mcha toolchain windows/toolchain/gcc-arm-none-eabi/bin/../lib/gcc/arm-none-eabi/11.2.1/thumb/v7e-m+fp/hard\libc_nano.a(lib_a-setvbuf.o)
 .data          0x20000078        0x0 c:/users/luke/desktop/mcha toolchain windows/toolchain/gcc-arm-none-eabi/bin/../lib/gcc/arm-none-eabi/11.2.1/thumb/v7e-m+fp/hard\libc_nano.a(lib_a-sf_nan.o)
 .data          0x20000078        0x0 c:/users/luke/desktop/mcha toolchain windows/toolchain/gcc-arm-none-eabi/bin/../lib/gcc/arm-none-eabi/11.2.1/thumb/v7e-m+fp/hard\libc_nano.a(lib_a-sprintf.o)
 .data          0x20000078        0x0 c:/users/luke/desktop/mcha toolchain windows/toolchain/gcc-arm-none-eabi/bin/../lib/gcc/arm-none-eabi/11.2.1/thumb/v7e-m+fp/hard\libc_nano.a(lib_a-strcmp.o)
 .data          0x20000078        0x0 c:/users/luke/desktop/mcha toolchain windows/toolchain/gcc-arm-none-eabi/bin/../lib/gcc/arm-none-eabi/11.2.1/thumb/v7e-m+fp/hard\libc_nano.a(lib_a-strlen.o)
 .data          0x20000078        0x0 c:/users/luke/desktop/mcha toolchain windows/toolchain/gcc-arm-none-eabi/bin/../lib/gcc/arm-none-eabi/11.2.1/thumb/v7e-m+fp/hard\libc_nano.a(lib_a-strtod.o)
 .data          0x20000078        0x0 c:/users/luke/desktop/mcha toolchain windows/toolchain/gcc-arm-none-eabi/bin/../lib/gcc/arm-none-eabi/11.2.1/thumb/v7e-m+fp/hard\libc_nano.a(lib_a-strtol.o)
 .data          0x20000078        0x0 c:/users/luke/desktop/mcha toolchain windows/toolchain/gcc-arm-none-eabi/bin/../lib/gcc/arm-none-eabi/11.2.1/thumb/v7e-m+fp/hard\libc_nano.a(lib_a-vprintf.o)
 .data          0x20000078        0x0 c:/users/luke/desktop/mcha toolchain windows/toolchain/gcc-arm-none-eabi/bin/../lib/gcc/arm-none-eabi/11.2.1/thumb/v7e-m+fp/hard\libc_nano.a(lib_a-dtoa.o)
 .data          0x20000078        0x0 c:/users/luke/desktop/mcha toolchain windows/toolchain/gcc-arm-none-eabi/bin/../lib/gcc/arm-none-eabi/11.2.1/thumb/v7e-m+fp/hard\libc_nano.a(lib_a-errno.o)
 .data          0x20000078        0x0 c:/users/luke/desktop/mcha toolchain windows/toolchain/gcc-arm-none-eabi/bin/../lib/gcc/arm-none-eabi/11.2.1/thumb/v7e-m+fp/hard\libc_nano.a(lib_a-fflush.o)
 .data          0x20000078        0x0 c:/users/luke/desktop/mcha toolchain windows/toolchain/gcc-arm-none-eabi/bin/../lib/gcc/arm-none-eabi/11.2.1/thumb/v7e-m+fp/hard\libc_nano.a(lib_a-findfp.o)
 .data          0x20000078        0x0 c:/users/luke/desktop/mcha toolchain windows/toolchain/gcc-arm-none-eabi/bin/../lib/gcc/arm-none-eabi/11.2.1/thumb/v7e-m+fp/hard\libc_nano.a(lib_a-fprintf.o)
 .data          0x20000078        0x0 c:/users/luke/desktop/mcha toolchain windows/toolchain/gcc-arm-none-eabi/bin/../lib/gcc/arm-none-eabi/11.2.1/thumb/v7e-m+fp/hard\libc_nano.a(lib_a-fwalk.o)
 .data          0x20000078        0x0 c:/users/luke/desktop/mcha toolchain windows/toolchain/gcc-arm-none-eabi/bin/../lib/gcc/arm-none-eabi/11.2.1/thumb/v7e-m+fp/hard\libc_nano.a(lib_a-gdtoa-gethex.o)
 .data          0x20000078        0x0 c:/users/luke/desktop/mcha toolchain windows/toolchain/gcc-arm-none-eabi/bin/../lib/gcc/arm-none-eabi/11.2.1/thumb/v7e-m+fp/hard\libc_nano.a(lib_a-gdtoa-hexnan.o)
 .data          0x20000078        0x0 c:/users/luke/desktop/mcha toolchain windows/toolchain/gcc-arm-none-eabi/bin/../lib/gcc/arm-none-eabi/11.2.1/thumb/v7e-m+fp/hard\libc_nano.a(lib_a-lnumeric.o)
 .data          0x20000078        0x0 c:/users/luke/desktop/mcha toolchain windows/toolchain/gcc-arm-none-eabi/bin/../lib/gcc/arm-none-eabi/11.2.1/thumb/v7e-m+fp/hard\libc_nano.a(lib_a-localeconv.o)
 .data          0x20000078        0x0 c:/users/luke/desktop/mcha toolchain windows/toolchain/gcc-arm-none-eabi/bin/../lib/gcc/arm-none-eabi/11.2.1/thumb/v7e-m+fp/hard\libc_nano.a(lib_a-locale.o)
 .data          0x20000078        0x0 c:/users/luke/desktop/mcha toolchain windows/toolchain/gcc-arm-none-eabi/bin/../lib/gcc/arm-none-eabi/11.2.1/thumb/v7e-m+fp/hard\libc_nano.a(lib_a-makebuf.o)
 .data          0x20000078        0x0 c:/users/luke/desktop/mcha toolchain windows/toolchain/gcc-arm-none-eabi/bin/../lib/gcc/arm-none-eabi/11.2.1/thumb/v7e-m+fp/hard\libc_nano.a(lib_a-mbtowc_r.o)
 .data          0x20000078        0x0 c:/users/luke/desktop/mcha toolchain windows/toolchain/gcc-arm-none-eabi/bin/../lib/gcc/arm-none-eabi/11.2.1/thumb/v7e-m+fp/hard\libc_nano.a(lib_a-memchr.o)
 .data          0x20000078        0x0 c:/users/luke/desktop/mcha toolchain windows/toolchain/gcc-arm-none-eabi/bin/../lib/gcc/arm-none-eabi/11.2.1/thumb/v7e-m+fp/hard\libc_nano.a(lib_a-mprec.o)
 .data          0x20000078        0x0 c:/users/luke/desktop/mcha toolchain windows/toolchain/gcc-arm-none-eabi/bin/../lib/gcc/arm-none-eabi/11.2.1/thumb/v7e-m+fp/hard\libc_nano.a(lib_a-nano-callocr.o)
 .data          0x20000078        0x0 c:/users/luke/desktop/mcha toolchain windows/toolchain/gcc-arm-none-eabi/bin/../lib/gcc/arm-none-eabi/11.2.1/thumb/v7e-m+fp/hard\libc_nano.a(lib_a-nano-svfprintf.o)
 .data          0x20000078        0x0 c:/users/luke/desktop/mcha toolchain windows/toolchain/gcc-arm-none-eabi/bin/../lib/gcc/arm-none-eabi/11.2.1/thumb/v7e-m+fp/hard\libc_nano.a(lib_a-nano-vfprintf.o)
 .data          0x20000078        0x0 c:/users/luke/desktop/mcha toolchain windows/toolchain/gcc-arm-none-eabi/bin/../lib/gcc/arm-none-eabi/11.2.1/thumb/v7e-m+fp/hard\libc_nano.a(lib_a-refill.o)
 .data          0x20000078        0x0 c:/users/luke/desktop/mcha toolchain windows/toolchain/gcc-arm-none-eabi/bin/../lib/gcc/arm-none-eabi/11.2.1/thumb/v7e-m+fp/hard\libc_nano.a(lib_a-s_nan.o)
 .data          0x20000078        0x0 c:/users/luke/desktop/mcha toolchain windows/toolchain/gcc-arm-none-eabi/bin/../lib/gcc/arm-none-eabi/11.2.1/thumb/v7e-m+fp/hard\libc_nano.a(lib_a-stdio.o)
 .data          0x20000078        0x0 c:/users/luke/desktop/mcha toolchain windows/toolchain/gcc-arm-none-eabi/bin/../lib/gcc/arm-none-eabi/11.2.1/thumb/v7e-m+fp/hard\libc_nano.a(lib_a-strncmp.o)
 .data          0x20000078        0x0 c:/users/luke/desktop/mcha toolchain windows/toolchain/gcc-arm-none-eabi/bin/../lib/gcc/arm-none-eabi/11.2.1/thumb/v7e-m+fp/hard\libc_nano.a(lib_a-wbuf.o)
 .data          0x20000078        0x0 c:/users/luke/desktop/mcha toolchain windows/toolchain/gcc-arm-none-eabi/bin/../lib/gcc/arm-none-eabi/11.2.1/thumb/v7e-m+fp/hard\libc_nano.a(lib_a-wctomb_r.o)
 .data          0x20000078        0x0 c:/users/luke/desktop/mcha toolchain windows/toolchain/gcc-arm-none-eabi/bin/../lib/gcc/arm-none-eabi/11.2.1/thumb/v7e-m+fp/hard\libc_nano.a(lib_a-writer.o)
 .data          0x20000078        0x0 c:/users/luke/desktop/mcha toolchain windows/toolchain/gcc-arm-none-eabi/bin/../lib/gcc/arm-none-eabi/11.2.1/thumb/v7e-m+fp/hard\libc_nano.a(lib_a-wsetup.o)
 .data          0x20000078        0x0 c:/users/luke/desktop/mcha toolchain windows/toolchain/gcc-arm-none-eabi/bin/../lib/gcc/arm-none-eabi/11.2.1/thumb/v7e-m+fp/hard\libc_nano.a(lib_a-assert.o)
 .data          0x20000078        0x0 c:/users/luke/desktop/mcha toolchain windows/toolchain/gcc-arm-none-eabi/bin/../lib/gcc/arm-none-eabi/11.2.1/thumb/v7e-m+fp/hard\libc_nano.a(lib_a-closer.o)
 .data          0x20000078        0x0 c:/users/luke/desktop/mcha toolchain windows/toolchain/gcc-arm-none-eabi/bin/../lib/gcc/arm-none-eabi/11.2.1/thumb/v7e-m+fp/hard\libc_nano.a(lib_a-fstatr.o)
 .data          0x20000078        0x0 c:/users/luke/desktop/mcha toolchain windows/toolchain/gcc-arm-none-eabi/bin/../lib/gcc/arm-none-eabi/11.2.1/thumb/v7e-m+fp/hard\libc_nano.a(lib_a-fvwrite.o)
 .data          0x20000078        0x0 c:/users/luke/desktop/mcha toolchain windows/toolchain/gcc-arm-none-eabi/bin/../lib/gcc/arm-none-eabi/11.2.1/thumb/v7e-m+fp/hard\libc_nano.a(lib_a-isattyr.o)
 .data          0x20000078        0x0 c:/users/luke/desktop/mcha toolchain windows/toolchain/gcc-arm-none-eabi/bin/../lib/gcc/arm-none-eabi/11.2.1/thumb/v7e-m+fp/hard\libc_nano.a(lib_a-lseekr.o)
 .data          0x20000078        0x0 c:/users/luke/desktop/mcha toolchain windows/toolchain/gcc-arm-none-eabi/bin/../lib/gcc/arm-none-eabi/11.2.1/thumb/v7e-m+fp/hard\libc_nano.a(lib_a-memmove.o)
 .data          0x20000078        0x0 c:/users/luke/desktop/mcha toolchain windows/toolchain/gcc-arm-none-eabi/bin/../lib/gcc/arm-none-eabi/11.2.1/thumb/v7e-m+fp/hard\libc_nano.a(lib_a-nano-reallocr.o)
 .data          0x20000078        0x0 c:/users/luke/desktop/mcha toolchain windows/toolchain/gcc-arm-none-eabi/bin/../lib/gcc/arm-none-eabi/11.2.1/thumb/v7e-m+fp/hard\libc_nano.a(lib_a-readr.o)
 .data          0x20000078        0x0 c:/users/luke/desktop/mcha toolchain windows/toolchain/gcc-arm-none-eabi/bin/../lib/gcc/arm-none-eabi/11.2.1/thumb/v7e-m+fp/hard\libc_nano.a(lib_a-abort.o)
 .data          0x20000078        0x0 c:/users/luke/desktop/mcha toolchain windows/toolchain/gcc-arm-none-eabi/bin/../lib/gcc/arm-none-eabi/11.2.1/thumb/v7e-m+fp/hard\libc_nano.a(lib_a-nano-msizer.o)
 .data          0x20000078        0x0 c:/users/luke/desktop/mcha toolchain windows/toolchain/gcc-arm-none-eabi/bin/../lib/gcc/arm-none-eabi/11.2.1/thumb/v7e-m+fp/hard\libc_nano.a(lib_a-signal.o)
 .data          0x20000078        0x0 c:/users/luke/desktop/mcha toolchain windows/toolchain/gcc-arm-none-eabi/bin/../lib/gcc/arm-none-eabi/11.2.1/thumb/v7e-m+fp/hard\libc_nano.a(lib_a-signalr.o)
 .data          0x20000078        0x0 c:/users/luke/desktop/mcha toolchain windows/toolchain/gcc-arm-none-eabi/bin/../lib/gcc/arm-none-eabi/11.2.1/thumb/v7e-m+fp/hard\libgcc.a(_arm_muldf3.o)
 .data          0x20000078        0x0 c:/users/luke/desktop/mcha toolchain windows/toolchain/gcc-arm-none-eabi/bin/../lib/gcc/arm-none-eabi/11.2.1/thumb/v7e-m+fp/hard\libgcc.a(_arm_addsubdf3.o)
 .data          0x20000078        0x0 c:/users/luke/desktop/mcha toolchain windows/toolchain/gcc-arm-none-eabi/bin/../lib/gcc/arm-none-eabi/11.2.1/thumb/v7e-m+fp/hard\libgcc.a(_arm_muldivdf3.o)
 .data          0x20000078        0x0 c:/users/luke/desktop/mcha toolchain windows/toolchain/gcc-arm-none-eabi/bin/../lib/gcc/arm-none-eabi/11.2.1/thumb/v7e-m+fp/hard\libgcc.a(_arm_cmpdf2.o)
 .data          0x20000078        0x0 c:/users/luke/desktop/mcha toolchain windows/toolchain/gcc-arm-none-eabi/bin/../lib/gcc/arm-none-eabi/11.2.1/thumb/v7e-m+fp/hard\libgcc.a(_arm_unorddf2.o)
 .data          0x20000078        0x0 c:/users/luke/desktop/mcha toolchain windows/toolchain/gcc-arm-none-eabi/bin/../lib/gcc/arm-none-eabi/11.2.1/thumb/v7e-m+fp/hard\libgcc.a(_arm_fixdfsi.o)
 .data          0x20000078        0x0 c:/users/luke/desktop/mcha toolchain windows/toolchain/gcc-arm-none-eabi/bin/../lib/gcc/arm-none-eabi/11.2.1/thumb/v7e-m+fp/hard\libgcc.a(_arm_fixunsdfsi.o)
 .data          0x20000078        0x0 c:/users/luke/desktop/mcha toolchain windows/toolchain/gcc-arm-none-eabi/bin/../lib/gcc/arm-none-eabi/11.2.1/thumb/v7e-m+fp/hard\libgcc.a(_arm_truncdfsf2.o)
 .data          0x20000078        0x0 c:/users/luke/desktop/mcha toolchain windows/toolchain/gcc-arm-none-eabi/bin/../lib/gcc/arm-none-eabi/11.2.1/thumb/v7e-m+fp/hard\libgcc.a(_fixdfdi.o)
 .data          0x20000078        0x0 c:/users/luke/desktop/mcha toolchain windows/toolchain/gcc-arm-none-eabi/bin/../lib/gcc/arm-none-eabi/11.2.1/thumb/v7e-m+fp/hard\libgcc.a(_fixunsdfdi.o)
 .data          0x20000078        0x0 c:/users/luke/desktop/mcha toolchain windows/toolchain/gcc-arm-none-eabi/bin/../lib/gcc/arm-none-eabi/11.2.1/thumb/v7e-m+fp/hard\libnosys.a(close.o)
 .data          0x20000078        0x0 c:/users/luke/desktop/mcha toolchain windows/toolchain/gcc-arm-none-eabi/bin/../lib/gcc/arm-none-eabi/11.2.1/thumb/v7e-m+fp/hard\libnosys.a(fstat.o)
 .data          0x20000078        0x0 c:/users/luke/desktop/mcha toolchain windows/toolchain/gcc-arm-none-eabi/bin/../lib/gcc/arm-none-eabi/11.2.1/thumb/v7e-m+fp/hard\libnosys.a(getpid.o)
 .data          0x20000078        0x0 c:/users/luke/desktop/mcha toolchain windows/toolchain/gcc-arm-none-eabi/bin/../lib/gcc/arm-none-eabi/11.2.1/thumb/v7e-m+fp/hard\libnosys.a(isatty.o)
 .data          0x20000078        0x0 c:/users/luke/desktop/mcha toolchain windows/toolchain/gcc-arm-none-eabi/bin/../lib/gcc/arm-none-eabi/11.2.1/thumb/v7e-m+fp/hard\libnosys.a(kill.o)
 .data          0x20000078        0x0 c:/users/luke/desktop/mcha toolchain windows/toolchain/gcc-arm-none-eabi/bin/../lib/gcc/arm-none-eabi/11.2.1/thumb/v7e-m+fp/hard\libnosys.a(lseek.o)
 .data          0x20000078        0x0 c:/users/luke/desktop/mcha toolchain windows/toolchain/gcc-arm-none-eabi/bin/../lib/gcc/arm-none-eabi/11.2.1/thumb/v7e-m+fp/hard\libnosys.a(_exit.o)
 .data          0x20000078        0x0 c:/users/luke/desktop/mcha toolchain windows/toolchain/gcc-arm-none-eabi/bin/../lib/gcc/arm-none-eabi/11.2.1/thumb/v7e-m+fp/hard/crtend.o
 .data          0x20000078        0x0 c:/users/luke/desktop/mcha toolchain windows/toolchain/gcc-arm-none-eabi/bin/../lib/gcc/arm-none-eabi/11.2.1/thumb/v7e-m+fp/hard/crtn.o
 *(.data*)
 .data.__dso_handle
                0x20000078        0x4 c:/users/luke/desktop/mcha toolchain windows/toolchain/gcc-arm-none-eabi/bin/../lib/gcc/arm-none-eabi/11.2.1/thumb/v7e-m+fp/hard/crtbegin.o
                0x20000078                __dso_handle
 .data._impure_ptr
                0x2000007c        0x4 c:/users/luke/desktop/mcha toolchain windows/toolchain/gcc-arm-none-eabi/bin/../lib/gcc/arm-none-eabi/11.2.1/thumb/v7e-m+fp/hard\libc_nano.a(lib_a-impure.o)
                0x2000007c                _impure_ptr
 .data.impure_data
                0x20000080       0x60 c:/users/luke/desktop/mcha toolchain windows/toolchain/gcc-arm-none-eabi/bin/../lib/gcc/arm-none-eabi/11.2.1/thumb/v7e-m+fp/hard\libc_nano.a(lib_a-impure.o)
 .data.numempty
                0x200000e0        0x2 c:/users/luke/desktop/mcha toolchain windows/toolchain/gcc-arm-none-eabi/bin/../lib/gcc/arm-none-eabi/11.2.1/thumb/v7e-m+fp/hard\libc_nano.a(lib_a-lnumeric.o)
 *fill*         0x200000e2        0x2 
 .data.__global_locale
                0x200000e4      0x16c c:/users/luke/desktop/mcha toolchain windows/toolchain/gcc-arm-none-eabi/bin/../lib/gcc/arm-none-eabi/11.2.1/thumb/v7e-m+fp/hard\libc_nano.a(lib_a-locale.o)
                0x200000e4                __global_locale
                0x20000250                . = ALIGN (0x4)
                0x20000250                _edata = .

.tm_clone_table
                0x20000250        0x0 load address 0x08017720
 .tm_clone_table
                0x20000250        0x0 c:/users/luke/desktop/mcha toolchain windows/toolchain/gcc-arm-none-eabi/bin/../lib/gcc/arm-none-eabi/11.2.1/thumb/v7e-m+fp/hard/crtbegin.o
 .tm_clone_table
                0x20000250        0x0 c:/users/luke/desktop/mcha toolchain windows/toolchain/gcc-arm-none-eabi/bin/../lib/gcc/arm-none-eabi/11.2.1/thumb/v7e-m+fp/hard/crtend.o

.igot.plt       0x20000250        0x0 load address 0x08017720
 .igot.plt      0x20000250        0x0 c:/users/luke/desktop/mcha toolchain windows/toolchain/gcc-arm-none-eabi/bin/../lib/gcc/arm-none-eabi/11.2.1/thumb/v7e-m+fp/hard/crtbegin.o
                0x20000250                . = ALIGN (0x4)

.bss            0x20000250     0x1314 load address 0x08017720
                0x20000250                _sbss = .
                0x20000250                __bss_start__ = _sbss
 *(.bss)
 .bss           0x20000250        0x0 c:/users/luke/desktop/mcha toolchain windows/toolchain/gcc-arm-none-eabi/bin/../lib/gcc/arm-none-eabi/11.2.1/thumb/v7e-m+fp/hard/crti.o
 .bss           0x20000250        0x0 c:/users/luke/desktop/mcha toolchain windows/toolchain/gcc-arm-none-eabi/bin/../lib/gcc/arm-none-eabi/11.2.1/thumb/v7e-m+fp/hard/crtbegin.o
 .bss           0x20000250        0x0 c:/users/luke/desktop/mcha toolchain windows/toolchain/gcc-arm-none-eabi/bin/../lib/gcc/arm-none-eabi/11.2.1/thumb/v7e-m+fp/hard/crt0.o
 .bss           0x20000250        0x0 build/stm32f4xx_it.o
 .bss           0x20000250        0x0 build/system_stm32f4xx.o
 .bss           0x20000250        0x0 build/cmd_line_buffer.o
 .bss           0x20000250        0x0 build/cmd_parser.o
 .bss           0x20000250       0x51 build/cmd_task.o
 .bss           0x200002a1        0x0 build/main.o
 *fill*         0x200002a1        0x3 
 .bss           0x200002a4       0x12 build/uart.o
 *fill*         0x200002b6        0x2 
 .bss           0x200002b8        0x9 build/heartbeat_task.o
 .bss           0x200002c1        0x0 build/heartbeat_cmd.o
 *fill*         0x200002c1        0x3 
 .bss           0x200002c4        0x9 build/dummy_task.o
 .bss           0x200002cd        0x0 build/startup_stm32f446xx.o
 *fill*         0x200002cd        0x3 
 .bss           0x200002d0        0x4 build/stm32f4_HAL/stm32f4xx_hal.o
                0x200002d0                uwTick
 .bss           0x200002d4        0x0 build/stm32f4_HAL/stm32f4xx_hal_dma.o
 .bss           0x200002d4        0x0 build/stm32f4_HAL/stm32f4xx_hal_adc.o
 .bss           0x200002d4        0x0 build/stm32f4_HAL/stm32f4xx_hal_adc_ex.o
 .bss           0x200002d4        0x0 build/stm32f4_HAL/stm32f4xx_hal_gpio.o
 .bss           0x200002d4        0x0 build/stm32f4_HAL/stm32f4xx_ll_gpio.o
 .bss           0x200002d4        0x0 build/stm32f4_HAL/stm32f4xx_ll_usart.o
 .bss           0x200002d4        0x0 build/stm32f4_HAL/stm32f4xx_ll_dma.o
 .bss           0x200002d4        0x0 build/stm32f4_HAL/stm32f4xx_ll_rcc.o
 .bss           0x200002d4        0x0 build/stm32f4_HAL/stm32f4xx_hal_i2c.o
 .bss           0x200002d4        0x0 build/stm32f4_HAL/stm32f4xx_hal_i2c_ex.o
 .bss           0x200002d4        0x0 build/stm32f4_HAL/stm32f4xx_hal_tim.o
 .bss           0x200002d4        0x0 build/stm32f4_HAL/stm32f4xx_hal_tim_ex.o
 .bss           0x200002d4        0x0 build/stm32f4_HAL/stm32f4xx_hal_rtc.o
 .bss           0x200002d4        0x0 build/stm32f4_HAL/stm32f4xx_hal_rcc.o
 .bss           0x200002d4        0x0 build/stm32f4_HAL/stm32f4xx_hal_rcc_ex.o
 .bss           0x200002d4        0x0 build/stm32f4_HAL/stm32f4xx_hal_pwr.o
 .bss           0x200002d4        0x0 build/stm32f4_HAL/stm32f4xx_hal_pwr_ex.o
 .bss           0x200002d4        0x0 build/stm32f4_HAL/stm32f4xx_hal_cortex.o
 .bss           0x200002d4        0x0 build/stm32f4_HAL/stm32f4xx_hal_spi.o
 .bss           0x200002d4        0x0 build/stm32f4_HAL/stm32f4xx_hal_dac.o
 .bss           0x200002d4        0x0 build/stm32f4_HAL/stm32f4xx_hal_dac_ex.o
 .bss           0x200002d4        0x0 build/stm32f4_HAL/stm32f4xx_hal_can.o
 .bss           0x200002d4        0x0 build/FreeRTOS/croutine.o
 .bss           0x200002d4        0x0 build/FreeRTOS/event_groups.o
 .bss           0x200002d4        0x0 build/FreeRTOS/list.o
 .bss           0x200002d4        0x0 build/FreeRTOS/queue.o
 .bss           0x200002d4      0x4fc build/FreeRTOS/tasks.o
                0x200002d8                pxCurrentTCB
 .bss           0x200007d0       0xdc build/FreeRTOS/timers.o
 .bss           0x200008ac        0x0 build/FreeRTOS/stream_buffer.o
 *fill*         0x200008ac        0x4 
 .bss           0x200008b0      0xc58 build/FreeRTOS/cmsis_os2.o
 .bss           0x20001508        0x0 build/FreeRTOS/clib_arm.o
 .bss           0x20001508        0x1 build/FreeRTOS/os_systick.o
 *fill*         0x20001509        0x3 
 .bss           0x2000150c        0x4 build/FreeRTOS/heap_useNewlib.o
 .bss           0x20001510        0x0 build/FreeRTOS/port.o
 .bss           0x20001510        0x0 c:/users/luke/desktop/mcha toolchain windows/toolchain/gcc-arm-none-eabi/bin/../lib/gcc/arm-none-eabi/11.2.1/thumb/v7e-m+fp/hard\libgcc.a(_aeabi_ldivmod.o)
 .bss           0x20001510        0x0 c:/users/luke/desktop/mcha toolchain windows/toolchain/gcc-arm-none-eabi/bin/../lib/gcc/arm-none-eabi/11.2.1/thumb/v7e-m+fp/hard\libgcc.a(_aeabi_uldivmod.o)
 .bss           0x20001510        0x0 c:/users/luke/desktop/mcha toolchain windows/toolchain/gcc-arm-none-eabi/bin/../lib/gcc/arm-none-eabi/11.2.1/thumb/v7e-m+fp/hard\libgcc.a(_udivmoddi4.o)
 .bss           0x20001510        0x0 c:/users/luke/desktop/mcha toolchain windows/toolchain/gcc-arm-none-eabi/bin/../lib/gcc/arm-none-eabi/11.2.1/thumb/v7e-m+fp/hard\libgcc.a(_dvmd_tls.o)
 .bss           0x20001510        0x0 c:/users/luke/desktop/mcha toolchain windows/toolchain/gcc-arm-none-eabi/bin/../lib/gcc/arm-none-eabi/11.2.1/thumb/v7e-m+fp/hard\libc_nano.a(lib_a-ctype_.o)
 .bss           0x20001510        0x0 c:/users/luke/desktop/mcha toolchain windows/toolchain/gcc-arm-none-eabi/bin/../lib/gcc/arm-none-eabi/11.2.1/thumb/v7e-m+fp/hard\libc_nano.a(lib_a-exit.o)
 .bss           0x20001510        0x0 c:/users/luke/desktop/mcha toolchain windows/toolchain/gcc-arm-none-eabi/bin/../lib/gcc/arm-none-eabi/11.2.1/thumb/v7e-m+fp/hard\libc_nano.a(lib_a-getchar.o)
 .bss           0x20001510        0x0 c:/users/luke/desktop/mcha toolchain windows/toolchain/gcc-arm-none-eabi/bin/../lib/gcc/arm-none-eabi/11.2.1/thumb/v7e-m+fp/hard\libc_nano.a(lib_a-getc.o)
 .bss           0x20001510        0x0 c:/users/luke/desktop/mcha toolchain windows/toolchain/gcc-arm-none-eabi/bin/../lib/gcc/arm-none-eabi/11.2.1/thumb/v7e-m+fp/hard\libc_nano.a(lib_a-impure.o)
 .bss           0x20001510        0x0 c:/users/luke/desktop/mcha toolchain windows/toolchain/gcc-arm-none-eabi/bin/../lib/gcc/arm-none-eabi/11.2.1/thumb/v7e-m+fp/hard\libc_nano.a(lib_a-init.o)
 .bss           0x20001510        0x0 c:/users/luke/desktop/mcha toolchain windows/toolchain/gcc-arm-none-eabi/bin/../lib/gcc/arm-none-eabi/11.2.1/thumb/v7e-m+fp/hard\libc_nano.a(lib_a-malloc.o)
 .bss           0x20001510        0x0 c:/users/luke/desktop/mcha toolchain windows/toolchain/gcc-arm-none-eabi/bin/../lib/gcc/arm-none-eabi/11.2.1/thumb/v7e-m+fp/hard\libc_nano.a(lib_a-memcpy-stub.o)
 .bss           0x20001510        0x0 c:/users/luke/desktop/mcha toolchain windows/toolchain/gcc-arm-none-eabi/bin/../lib/gcc/arm-none-eabi/11.2.1/thumb/v7e-m+fp/hard\libc_nano.a(lib_a-memset.o)
 .bss           0x20001510        0x0 c:/users/luke/desktop/mcha toolchain windows/toolchain/gcc-arm-none-eabi/bin/../lib/gcc/arm-none-eabi/11.2.1/thumb/v7e-m+fp/hard\libc_nano.a(lib_a-mstats.o)
 .bss           0x20001510        0x0 c:/users/luke/desktop/mcha toolchain windows/toolchain/gcc-arm-none-eabi/bin/../lib/gcc/arm-none-eabi/11.2.1/thumb/v7e-m+fp/hard\libc_nano.a(lib_a-nano-freer.o)
 .bss           0x20001510        0x0 c:/users/luke/desktop/mcha toolchain windows/toolchain/gcc-arm-none-eabi/bin/../lib/gcc/arm-none-eabi/11.2.1/thumb/v7e-m+fp/hard\libc_nano.a(lib_a-nano-mallinfor.o)
 .bss           0x20001510        0x0 c:/users/luke/desktop/mcha toolchain windows/toolchain/gcc-arm-none-eabi/bin/../lib/gcc/arm-none-eabi/11.2.1/thumb/v7e-m+fp/hard\libc_nano.a(lib_a-nano-mallocr.o)
 .bss           0x20001510        0x0 c:/users/luke/desktop/mcha toolchain windows/toolchain/gcc-arm-none-eabi/bin/../lib/gcc/arm-none-eabi/11.2.1/thumb/v7e-m+fp/hard\libc_nano.a(lib_a-nano-malloptr.o)
 .bss           0x20001510        0x0 c:/users/luke/desktop/mcha toolchain windows/toolchain/gcc-arm-none-eabi/bin/../lib/gcc/arm-none-eabi/11.2.1/thumb/v7e-m+fp/hard\libc_nano.a(lib_a-nano-mallstatsr.o)
 .bss           0x20001510        0x0 c:/users/luke/desktop/mcha toolchain windows/toolchain/gcc-arm-none-eabi/bin/../lib/gcc/arm-none-eabi/11.2.1/thumb/v7e-m+fp/hard\libc_nano.a(lib_a-nano-vfprintf_float.o)
 .bss           0x20001510        0x0 c:/users/luke/desktop/mcha toolchain windows/toolchain/gcc-arm-none-eabi/bin/../lib/gcc/arm-none-eabi/11.2.1/thumb/v7e-m+fp/hard\libc_nano.a(lib_a-nano-vfprintf_i.o)
 .bss           0x20001510        0x0 c:/users/luke/desktop/mcha toolchain windows/toolchain/gcc-arm-none-eabi/bin/../lib/gcc/arm-none-eabi/11.2.1/thumb/v7e-m+fp/hard\libc_nano.a(lib_a-nano-vfscanf_float.o)
 .bss           0x20001510        0x0 c:/users/luke/desktop/mcha toolchain windows/toolchain/gcc-arm-none-eabi/bin/../lib/gcc/arm-none-eabi/11.2.1/thumb/v7e-m+fp/hard\libc_nano.a(lib_a-printf.o)
 .bss           0x20001510        0x0 c:/users/luke/desktop/mcha toolchain windows/toolchain/gcc-arm-none-eabi/bin/../lib/gcc/arm-none-eabi/11.2.1/thumb/v7e-m+fp/hard\libc_nano.a(lib_a-reent.o)
 .bss           0x20001510        0x0 c:/users/luke/desktop/mcha toolchain windows/toolchain/gcc-arm-none-eabi/bin/../lib/gcc/arm-none-eabi/11.2.1/thumb/v7e-m+fp/hard\libc_nano.a(lib_a-rget.o)
 .bss           0x20001510        0x0 c:/users/luke/desktop/mcha toolchain windows/toolchain/gcc-arm-none-eabi/bin/../lib/gcc/arm-none-eabi/11.2.1/thumb/v7e-m+fp/hard\libc_nano.a(lib_a-sbrkr.o)
 .bss           0x20001510        0x0 c:/users/luke/desktop/mcha toolchain windows/toolchain/gcc-arm-none-eabi/bin/../lib/gcc/arm-none-eabi/11.2.1/thumb/v7e-m+fp/hard\libc_nano.a(lib_a-setvbuf.o)
 .bss           0x20001510        0x0 c:/users/luke/desktop/mcha toolchain windows/toolchain/gcc-arm-none-eabi/bin/../lib/gcc/arm-none-eabi/11.2.1/thumb/v7e-m+fp/hard\libc_nano.a(lib_a-sf_nan.o)
 .bss           0x20001510        0x0 c:/users/luke/desktop/mcha toolchain windows/toolchain/gcc-arm-none-eabi/bin/../lib/gcc/arm-none-eabi/11.2.1/thumb/v7e-m+fp/hard\libc_nano.a(lib_a-sprintf.o)
 .bss           0x20001510        0x0 c:/users/luke/desktop/mcha toolchain windows/toolchain/gcc-arm-none-eabi/bin/../lib/gcc/arm-none-eabi/11.2.1/thumb/v7e-m+fp/hard\libc_nano.a(lib_a-strcmp.o)
 .bss           0x20001510        0x0 c:/users/luke/desktop/mcha toolchain windows/toolchain/gcc-arm-none-eabi/bin/../lib/gcc/arm-none-eabi/11.2.1/thumb/v7e-m+fp/hard\libc_nano.a(lib_a-strlen.o)
 .bss           0x20001510        0x0 c:/users/luke/desktop/mcha toolchain windows/toolchain/gcc-arm-none-eabi/bin/../lib/gcc/arm-none-eabi/11.2.1/thumb/v7e-m+fp/hard\libc_nano.a(lib_a-strtod.o)
 .bss           0x20001510        0x0 c:/users/luke/desktop/mcha toolchain windows/toolchain/gcc-arm-none-eabi/bin/../lib/gcc/arm-none-eabi/11.2.1/thumb/v7e-m+fp/hard\libc_nano.a(lib_a-strtol.o)
 .bss           0x20001510        0x0 c:/users/luke/desktop/mcha toolchain windows/toolchain/gcc-arm-none-eabi/bin/../lib/gcc/arm-none-eabi/11.2.1/thumb/v7e-m+fp/hard\libc_nano.a(lib_a-vprintf.o)
 .bss           0x20001510        0x0 c:/users/luke/desktop/mcha toolchain windows/toolchain/gcc-arm-none-eabi/bin/../lib/gcc/arm-none-eabi/11.2.1/thumb/v7e-m+fp/hard\libc_nano.a(lib_a-dtoa.o)
 .bss           0x20001510        0x0 c:/users/luke/desktop/mcha toolchain windows/toolchain/gcc-arm-none-eabi/bin/../lib/gcc/arm-none-eabi/11.2.1/thumb/v7e-m+fp/hard\libc_nano.a(lib_a-errno.o)
 .bss           0x20001510        0x0 c:/users/luke/desktop/mcha toolchain windows/toolchain/gcc-arm-none-eabi/bin/../lib/gcc/arm-none-eabi/11.2.1/thumb/v7e-m+fp/hard\libc_nano.a(lib_a-fflush.o)
 .bss           0x20001510        0x0 c:/users/luke/desktop/mcha toolchain windows/toolchain/gcc-arm-none-eabi/bin/../lib/gcc/arm-none-eabi/11.2.1/thumb/v7e-m+fp/hard\libc_nano.a(lib_a-findfp.o)
 .bss           0x20001510        0x0 c:/users/luke/desktop/mcha toolchain windows/toolchain/gcc-arm-none-eabi/bin/../lib/gcc/arm-none-eabi/11.2.1/thumb/v7e-m+fp/hard\libc_nano.a(lib_a-fprintf.o)
 .bss           0x20001510        0x0 c:/users/luke/desktop/mcha toolchain windows/toolchain/gcc-arm-none-eabi/bin/../lib/gcc/arm-none-eabi/11.2.1/thumb/v7e-m+fp/hard\libc_nano.a(lib_a-fwalk.o)
 .bss           0x20001510        0x0 c:/users/luke/desktop/mcha toolchain windows/toolchain/gcc-arm-none-eabi/bin/../lib/gcc/arm-none-eabi/11.2.1/thumb/v7e-m+fp/hard\libc_nano.a(lib_a-gdtoa-gethex.o)
 .bss           0x20001510        0x0 c:/users/luke/desktop/mcha toolchain windows/toolchain/gcc-arm-none-eabi/bin/../lib/gcc/arm-none-eabi/11.2.1/thumb/v7e-m+fp/hard\libc_nano.a(lib_a-gdtoa-hexnan.o)
 .bss           0x20001510        0x0 c:/users/luke/desktop/mcha toolchain windows/toolchain/gcc-arm-none-eabi/bin/../lib/gcc/arm-none-eabi/11.2.1/thumb/v7e-m+fp/hard\libc_nano.a(lib_a-lnumeric.o)
 .bss           0x20001510        0x0 c:/users/luke/desktop/mcha toolchain windows/toolchain/gcc-arm-none-eabi/bin/../lib/gcc/arm-none-eabi/11.2.1/thumb/v7e-m+fp/hard\libc_nano.a(lib_a-localeconv.o)
 .bss           0x20001510        0x0 c:/users/luke/desktop/mcha toolchain windows/toolchain/gcc-arm-none-eabi/bin/../lib/gcc/arm-none-eabi/11.2.1/thumb/v7e-m+fp/hard\libc_nano.a(lib_a-locale.o)
 .bss           0x20001510        0x0 c:/users/luke/desktop/mcha toolchain windows/toolchain/gcc-arm-none-eabi/bin/../lib/gcc/arm-none-eabi/11.2.1/thumb/v7e-m+fp/hard\libc_nano.a(lib_a-makebuf.o)
 .bss           0x20001510        0x0 c:/users/luke/desktop/mcha toolchain windows/toolchain/gcc-arm-none-eabi/bin/../lib/gcc/arm-none-eabi/11.2.1/thumb/v7e-m+fp/hard\libc_nano.a(lib_a-mbtowc_r.o)
 .bss           0x20001510        0x0 c:/users/luke/desktop/mcha toolchain windows/toolchain/gcc-arm-none-eabi/bin/../lib/gcc/arm-none-eabi/11.2.1/thumb/v7e-m+fp/hard\libc_nano.a(lib_a-memchr.o)
 .bss           0x20001510        0x0 c:/users/luke/desktop/mcha toolchain windows/toolchain/gcc-arm-none-eabi/bin/../lib/gcc/arm-none-eabi/11.2.1/thumb/v7e-m+fp/hard\libc_nano.a(lib_a-mprec.o)
 .bss           0x20001510        0x0 c:/users/luke/desktop/mcha toolchain windows/toolchain/gcc-arm-none-eabi/bin/../lib/gcc/arm-none-eabi/11.2.1/thumb/v7e-m+fp/hard\libc_nano.a(lib_a-nano-callocr.o)
 .bss           0x20001510        0x0 c:/users/luke/desktop/mcha toolchain windows/toolchain/gcc-arm-none-eabi/bin/../lib/gcc/arm-none-eabi/11.2.1/thumb/v7e-m+fp/hard\libc_nano.a(lib_a-nano-svfprintf.o)
 .bss           0x20001510        0x0 c:/users/luke/desktop/mcha toolchain windows/toolchain/gcc-arm-none-eabi/bin/../lib/gcc/arm-none-eabi/11.2.1/thumb/v7e-m+fp/hard\libc_nano.a(lib_a-nano-vfprintf.o)
 .bss           0x20001510        0x0 c:/users/luke/desktop/mcha toolchain windows/toolchain/gcc-arm-none-eabi/bin/../lib/gcc/arm-none-eabi/11.2.1/thumb/v7e-m+fp/hard\libc_nano.a(lib_a-refill.o)
 .bss           0x20001510        0x0 c:/users/luke/desktop/mcha toolchain windows/toolchain/gcc-arm-none-eabi/bin/../lib/gcc/arm-none-eabi/11.2.1/thumb/v7e-m+fp/hard\libc_nano.a(lib_a-s_nan.o)
 .bss           0x20001510        0x0 c:/users/luke/desktop/mcha toolchain windows/toolchain/gcc-arm-none-eabi/bin/../lib/gcc/arm-none-eabi/11.2.1/thumb/v7e-m+fp/hard\libc_nano.a(lib_a-stdio.o)
 .bss           0x20001510        0x0 c:/users/luke/desktop/mcha toolchain windows/toolchain/gcc-arm-none-eabi/bin/../lib/gcc/arm-none-eabi/11.2.1/thumb/v7e-m+fp/hard\libc_nano.a(lib_a-strncmp.o)
 .bss           0x20001510        0x0 c:/users/luke/desktop/mcha toolchain windows/toolchain/gcc-arm-none-eabi/bin/../lib/gcc/arm-none-eabi/11.2.1/thumb/v7e-m+fp/hard\libc_nano.a(lib_a-wbuf.o)
 .bss           0x20001510        0x0 c:/users/luke/desktop/mcha toolchain windows/toolchain/gcc-arm-none-eabi/bin/../lib/gcc/arm-none-eabi/11.2.1/thumb/v7e-m+fp/hard\libc_nano.a(lib_a-wctomb_r.o)
 .bss           0x20001510        0x0 c:/users/luke/desktop/mcha toolchain windows/toolchain/gcc-arm-none-eabi/bin/../lib/gcc/arm-none-eabi/11.2.1/thumb/v7e-m+fp/hard\libc_nano.a(lib_a-writer.o)
 .bss           0x20001510        0x0 c:/users/luke/desktop/mcha toolchain windows/toolchain/gcc-arm-none-eabi/bin/../lib/gcc/arm-none-eabi/11.2.1/thumb/v7e-m+fp/hard\libc_nano.a(lib_a-wsetup.o)
 .bss           0x20001510        0x0 c:/users/luke/desktop/mcha toolchain windows/toolchain/gcc-arm-none-eabi/bin/../lib/gcc/arm-none-eabi/11.2.1/thumb/v7e-m+fp/hard\libc_nano.a(lib_a-assert.o)
 .bss           0x20001510        0x0 c:/users/luke/desktop/mcha toolchain windows/toolchain/gcc-arm-none-eabi/bin/../lib/gcc/arm-none-eabi/11.2.1/thumb/v7e-m+fp/hard\libc_nano.a(lib_a-closer.o)
 .bss           0x20001510        0x0 c:/users/luke/desktop/mcha toolchain windows/toolchain/gcc-arm-none-eabi/bin/../lib/gcc/arm-none-eabi/11.2.1/thumb/v7e-m+fp/hard\libc_nano.a(lib_a-fstatr.o)
 .bss           0x20001510        0x0 c:/users/luke/desktop/mcha toolchain windows/toolchain/gcc-arm-none-eabi/bin/../lib/gcc/arm-none-eabi/11.2.1/thumb/v7e-m+fp/hard\libc_nano.a(lib_a-fvwrite.o)
 .bss           0x20001510        0x0 c:/users/luke/desktop/mcha toolchain windows/toolchain/gcc-arm-none-eabi/bin/../lib/gcc/arm-none-eabi/11.2.1/thumb/v7e-m+fp/hard\libc_nano.a(lib_a-isattyr.o)
 .bss           0x20001510        0x0 c:/users/luke/desktop/mcha toolchain windows/toolchain/gcc-arm-none-eabi/bin/../lib/gcc/arm-none-eabi/11.2.1/thumb/v7e-m+fp/hard\libc_nano.a(lib_a-lseekr.o)
 .bss           0x20001510        0x0 c:/users/luke/desktop/mcha toolchain windows/toolchain/gcc-arm-none-eabi/bin/../lib/gcc/arm-none-eabi/11.2.1/thumb/v7e-m+fp/hard\libc_nano.a(lib_a-memmove.o)
 .bss           0x20001510        0x0 c:/users/luke/desktop/mcha toolchain windows/toolchain/gcc-arm-none-eabi/bin/../lib/gcc/arm-none-eabi/11.2.1/thumb/v7e-m+fp/hard\libc_nano.a(lib_a-nano-reallocr.o)
 .bss           0x20001510        0x0 c:/users/luke/desktop/mcha toolchain windows/toolchain/gcc-arm-none-eabi/bin/../lib/gcc/arm-none-eabi/11.2.1/thumb/v7e-m+fp/hard\libc_nano.a(lib_a-readr.o)
 .bss           0x20001510        0x0 c:/users/luke/desktop/mcha toolchain windows/toolchain/gcc-arm-none-eabi/bin/../lib/gcc/arm-none-eabi/11.2.1/thumb/v7e-m+fp/hard\libc_nano.a(lib_a-abort.o)
 .bss           0x20001510        0x0 c:/users/luke/desktop/mcha toolchain windows/toolchain/gcc-arm-none-eabi/bin/../lib/gcc/arm-none-eabi/11.2.1/thumb/v7e-m+fp/hard\libc_nano.a(lib_a-nano-msizer.o)
 .bss           0x20001510        0x0 c:/users/luke/desktop/mcha toolchain windows/toolchain/gcc-arm-none-eabi/bin/../lib/gcc/arm-none-eabi/11.2.1/thumb/v7e-m+fp/hard\libc_nano.a(lib_a-signal.o)
 .bss           0x20001510        0x0 c:/users/luke/desktop/mcha toolchain windows/toolchain/gcc-arm-none-eabi/bin/../lib/gcc/arm-none-eabi/11.2.1/thumb/v7e-m+fp/hard\libc_nano.a(lib_a-signalr.o)
 .bss           0x20001510        0x0 c:/users/luke/desktop/mcha toolchain windows/toolchain/gcc-arm-none-eabi/bin/../lib/gcc/arm-none-eabi/11.2.1/thumb/v7e-m+fp/hard\libgcc.a(_arm_muldf3.o)
 .bss           0x20001510        0x0 c:/users/luke/desktop/mcha toolchain windows/toolchain/gcc-arm-none-eabi/bin/../lib/gcc/arm-none-eabi/11.2.1/thumb/v7e-m+fp/hard\libgcc.a(_arm_addsubdf3.o)
 .bss           0x20001510        0x0 c:/users/luke/desktop/mcha toolchain windows/toolchain/gcc-arm-none-eabi/bin/../lib/gcc/arm-none-eabi/11.2.1/thumb/v7e-m+fp/hard\libgcc.a(_arm_muldivdf3.o)
 .bss           0x20001510        0x0 c:/users/luke/desktop/mcha toolchain windows/toolchain/gcc-arm-none-eabi/bin/../lib/gcc/arm-none-eabi/11.2.1/thumb/v7e-m+fp/hard\libgcc.a(_arm_cmpdf2.o)
 .bss           0x20001510        0x0 c:/users/luke/desktop/mcha toolchain windows/toolchain/gcc-arm-none-eabi/bin/../lib/gcc/arm-none-eabi/11.2.1/thumb/v7e-m+fp/hard\libgcc.a(_arm_unorddf2.o)
 .bss           0x20001510        0x0 c:/users/luke/desktop/mcha toolchain windows/toolchain/gcc-arm-none-eabi/bin/../lib/gcc/arm-none-eabi/11.2.1/thumb/v7e-m+fp/hard\libgcc.a(_arm_fixdfsi.o)
 .bss           0x20001510        0x0 c:/users/luke/desktop/mcha toolchain windows/toolchain/gcc-arm-none-eabi/bin/../lib/gcc/arm-none-eabi/11.2.1/thumb/v7e-m+fp/hard\libgcc.a(_arm_fixunsdfsi.o)
 .bss           0x20001510        0x0 c:/users/luke/desktop/mcha toolchain windows/toolchain/gcc-arm-none-eabi/bin/../lib/gcc/arm-none-eabi/11.2.1/thumb/v7e-m+fp/hard\libgcc.a(_arm_truncdfsf2.o)
 .bss           0x20001510        0x0 c:/users/luke/desktop/mcha toolchain windows/toolchain/gcc-arm-none-eabi/bin/../lib/gcc/arm-none-eabi/11.2.1/thumb/v7e-m+fp/hard\libgcc.a(_fixdfdi.o)
 .bss           0x20001510        0x0 c:/users/luke/desktop/mcha toolchain windows/toolchain/gcc-arm-none-eabi/bin/../lib/gcc/arm-none-eabi/11.2.1/thumb/v7e-m+fp/hard\libgcc.a(_fixunsdfdi.o)
 .bss           0x20001510        0x0 c:/users/luke/desktop/mcha toolchain windows/toolchain/gcc-arm-none-eabi/bin/../lib/gcc/arm-none-eabi/11.2.1/thumb/v7e-m+fp/hard\libnosys.a(close.o)
 .bss           0x20001510        0x0 c:/users/luke/desktop/mcha toolchain windows/toolchain/gcc-arm-none-eabi/bin/../lib/gcc/arm-none-eabi/11.2.1/thumb/v7e-m+fp/hard\libnosys.a(fstat.o)
 .bss           0x20001510        0x0 c:/users/luke/desktop/mcha toolchain windows/toolchain/gcc-arm-none-eabi/bin/../lib/gcc/arm-none-eabi/11.2.1/thumb/v7e-m+fp/hard\libnosys.a(getpid.o)
 .bss           0x20001510        0x0 c:/users/luke/desktop/mcha toolchain windows/toolchain/gcc-arm-none-eabi/bin/../lib/gcc/arm-none-eabi/11.2.1/thumb/v7e-m+fp/hard\libnosys.a(isatty.o)
 .bss           0x20001510        0x0 c:/users/luke/desktop/mcha toolchain windows/toolchain/gcc-arm-none-eabi/bin/../lib/gcc/arm-none-eabi/11.2.1/thumb/v7e-m+fp/hard\libnosys.a(kill.o)
 .bss           0x20001510        0x0 c:/users/luke/desktop/mcha toolchain windows/toolchain/gcc-arm-none-eabi/bin/../lib/gcc/arm-none-eabi/11.2.1/thumb/v7e-m+fp/hard\libnosys.a(lseek.o)
 .bss           0x20001510        0x0 c:/users/luke/desktop/mcha toolchain windows/toolchain/gcc-arm-none-eabi/bin/../lib/gcc/arm-none-eabi/11.2.1/thumb/v7e-m+fp/hard\libnosys.a(_exit.o)
 .bss           0x20001510        0x0 c:/users/luke/desktop/mcha toolchain windows/toolchain/gcc-arm-none-eabi/bin/../lib/gcc/arm-none-eabi/11.2.1/thumb/v7e-m+fp/hard/crtend.o
 .bss           0x20001510        0x0 c:/users/luke/desktop/mcha toolchain windows/toolchain/gcc-arm-none-eabi/bin/../lib/gcc/arm-none-eabi/11.2.1/thumb/v7e-m+fp/hard/crtn.o
 *(.bss*)
 .bss.completed.1
                0x20001510        0x1 c:/users/luke/desktop/mcha toolchain windows/toolchain/gcc-arm-none-eabi/bin/../lib/gcc/arm-none-eabi/11.2.1/thumb/v7e-m+fp/hard/crtbegin.o
 *fill*         0x20001511        0x3 
 .bss.object.0  0x20001514       0x18 c:/users/luke/desktop/mcha toolchain windows/toolchain/gcc-arm-none-eabi/bin/../lib/gcc/arm-none-eabi/11.2.1/thumb/v7e-m+fp/hard/crtbegin.o
 .bss.__malloc_current_mallinfo
                0x2000152c       0x28 c:/users/luke/desktop/mcha toolchain windows/toolchain/gcc-arm-none-eabi/bin/../lib/gcc/arm-none-eabi/11.2.1/thumb/v7e-m+fp/hard\libc_nano.a(lib_a-nano-mallinfor.o)
                0x2000152c                __malloc_current_mallinfo
 .bss.__malloc_free_list
                0x20001554        0x4 c:/users/luke/desktop/mcha toolchain windows/toolchain/gcc-arm-none-eabi/bin/../lib/gcc/arm-none-eabi/11.2.1/thumb/v7e-m+fp/hard\libc_nano.a(lib_a-nano-mallocr.o)
                0x20001554                __malloc_free_list
 .bss.__malloc_sbrk_start
                0x20001558        0x4 c:/users/luke/desktop/mcha toolchain windows/toolchain/gcc-arm-none-eabi/bin/../lib/gcc/arm-none-eabi/11.2.1/thumb/v7e-m+fp/hard\libc_nano.a(lib_a-nano-mallocr.o)
                0x20001558                __malloc_sbrk_start
 .bss.errno     0x2000155c        0x4 c:/users/luke/desktop/mcha toolchain windows/toolchain/gcc-arm-none-eabi/bin/../lib/gcc/arm-none-eabi/11.2.1/thumb/v7e-m+fp/hard\libc_nano.a(lib_a-reent.o)
                0x2000155c                errno
 .bss._PathLocale
                0x20001560        0x4 c:/users/luke/desktop/mcha toolchain windows/toolchain/gcc-arm-none-eabi/bin/../lib/gcc/arm-none-eabi/11.2.1/thumb/v7e-m+fp/hard\libc_nano.a(lib_a-locale.o)
                0x20001560                _PathLocale
 *(COMMON)
                0x20001564                . = ALIGN (0x4)
                0x20001564                _ebss = .
                0x20001564                __bss_end__ = _ebss

._user_heap_stack
                0x20001564    0x12000 load address 0x08017720
                0x20001564                . = ALIGN (0x4)
                [!provide]                PROVIDE (end = .)
                [!provide]                PROVIDE (_end = .)
                0x20001564                __HeapBase = .
                0x20011564                . = (. + _Min_Heap_Size)
 *fill*         0x20001564    0x10000 
                0x20011564                __HeapLimit = .
                0x20013564                . = (. + _Min_Stack_Size)
 *fill*         0x20011564     0x2000 
                0x20013564                . = ALIGN (0x4)

/DISCARD/
 libc.a(*)
 libm.a(*)
 libgcc.a(*)

.ARM.attributes
                0x00000000       0x30
 *(.ARM.attributes)
 .ARM.attributes
                0x00000000       0x1e c:/users/luke/desktop/mcha toolchain windows/toolchain/gcc-arm-none-eabi/bin/../lib/gcc/arm-none-eabi/11.2.1/thumb/v7e-m+fp/hard/crti.o
 .ARM.attributes
                0x0000001e       0x34 c:/users/luke/desktop/mcha toolchain windows/toolchain/gcc-arm-none-eabi/bin/../lib/gcc/arm-none-eabi/11.2.1/thumb/v7e-m+fp/hard/crtbegin.o
 .ARM.attributes
                0x00000052       0x1c c:/users/luke/desktop/mcha toolchain windows/toolchain/gcc-arm-none-eabi/bin/../lib/gcc/arm-none-eabi/11.2.1/thumb/v7e-m+fp/hard/crt0.o
 .ARM.attributes
                0x0000006e       0x34 build/stm32f4xx_it.o
 .ARM.attributes
                0x000000a2       0x34 build/system_stm32f4xx.o
 .ARM.attributes
                0x000000d6       0x34 build/cmd_line_buffer.o
 .ARM.attributes
                0x0000010a       0x34 build/cmd_parser.o
 .ARM.attributes
                0x0000013e       0x34 build/cmd_task.o
 .ARM.attributes
                0x00000172       0x34 build/main.o
 .ARM.attributes
                0x000001a6       0x34 build/uart.o
 .ARM.attributes
                0x000001da       0x34 build/heartbeat_task.o
 .ARM.attributes
                0x0000020e       0x34 build/heartbeat_cmd.o
 .ARM.attributes
                0x00000242       0x34 build/dummy_task.o
 .ARM.attributes
                0x00000276       0x21 build/startup_stm32f446xx.o
 .ARM.attributes
                0x00000297       0x34 build/stm32f4_HAL/stm32f4xx_hal.o
 .ARM.attributes
                0x000002cb       0x34 build/stm32f4_HAL/stm32f4xx_hal_dma.o
 .ARM.attributes
                0x000002ff       0x34 build/stm32f4_HAL/stm32f4xx_hal_adc.o
 .ARM.attributes
                0x00000333       0x34 build/stm32f4_HAL/stm32f4xx_hal_adc_ex.o
 .ARM.attributes
                0x00000367       0x34 build/stm32f4_HAL/stm32f4xx_hal_gpio.o
 .ARM.attributes
                0x0000039b       0x34 build/stm32f4_HAL/stm32f4xx_ll_gpio.o
 .ARM.attributes
                0x000003cf       0x34 build/stm32f4_HAL/stm32f4xx_ll_usart.o
 .ARM.attributes
                0x00000403       0x34 build/stm32f4_HAL/stm32f4xx_ll_dma.o
 .ARM.attributes
                0x00000437       0x34 build/stm32f4_HAL/stm32f4xx_ll_rcc.o
 .ARM.attributes
                0x0000046b       0x34 build/stm32f4_HAL/stm32f4xx_hal_i2c.o
 .ARM.attributes
                0x0000049f       0x34 build/stm32f4_HAL/stm32f4xx_hal_i2c_ex.o
 .ARM.attributes
                0x000004d3       0x34 build/stm32f4_HAL/stm32f4xx_hal_tim.o
 .ARM.attributes
                0x00000507       0x34 build/stm32f4_HAL/stm32f4xx_hal_tim_ex.o
 .ARM.attributes
                0x0000053b       0x34 build/stm32f4_HAL/stm32f4xx_hal_rtc.o
 .ARM.attributes
                0x0000056f       0x34 build/stm32f4_HAL/stm32f4xx_hal_rcc.o
 .ARM.attributes
                0x000005a3       0x34 build/stm32f4_HAL/stm32f4xx_hal_rcc_ex.o
 .ARM.attributes
                0x000005d7       0x34 build/stm32f4_HAL/stm32f4xx_hal_pwr.o
 .ARM.attributes
                0x0000060b       0x34 build/stm32f4_HAL/stm32f4xx_hal_pwr_ex.o
 .ARM.attributes
                0x0000063f       0x34 build/stm32f4_HAL/stm32f4xx_hal_cortex.o
 .ARM.attributes
                0x00000673       0x34 build/stm32f4_HAL/stm32f4xx_hal_spi.o
 .ARM.attributes
                0x000006a7       0x34 build/stm32f4_HAL/stm32f4xx_hal_dac.o
 .ARM.attributes
                0x000006db       0x34 build/stm32f4_HAL/stm32f4xx_hal_dac_ex.o
 .ARM.attributes
                0x0000070f       0x34 build/stm32f4_HAL/stm32f4xx_hal_can.o
 .ARM.attributes
                0x00000743       0x34 build/FreeRTOS/croutine.o
 .ARM.attributes
                0x00000777       0x34 build/FreeRTOS/event_groups.o
 .ARM.attributes
                0x000007ab       0x34 build/FreeRTOS/list.o
 .ARM.attributes
                0x000007df       0x34 build/FreeRTOS/queue.o
 .ARM.attributes
                0x00000813       0x34 build/FreeRTOS/tasks.o
 .ARM.attributes
                0x00000847       0x34 build/FreeRTOS/timers.o
 .ARM.attributes
                0x0000087b       0x34 build/FreeRTOS/stream_buffer.o
 .ARM.attributes
                0x000008af       0x34 build/FreeRTOS/cmsis_os2.o
 .ARM.attributes
                0x000008e3       0x34 build/FreeRTOS/clib_arm.o
 .ARM.attributes
                0x00000917       0x34 build/FreeRTOS/os_systick.o
 .ARM.attributes
                0x0000094b       0x34 build/FreeRTOS/heap_useNewlib.o
 .ARM.attributes
                0x0000097f       0x34 build/FreeRTOS/port.o
 .ARM.attributes
                0x000009b3       0x1e c:/users/luke/desktop/mcha toolchain windows/toolchain/gcc-arm-none-eabi/bin/../lib/gcc/arm-none-eabi/11.2.1/thumb/v7e-m+fp/hard\libgcc.a(_aeabi_ldivmod.o)
 .ARM.attributes
                0x000009d1       0x1e c:/users/luke/desktop/mcha toolchain windows/toolchain/gcc-arm-none-eabi/bin/../lib/gcc/arm-none-eabi/11.2.1/thumb/v7e-m+fp/hard\libgcc.a(_aeabi_uldivmod.o)
 .ARM.attributes
                0x000009ef       0x34 c:/users/luke/desktop/mcha toolchain windows/toolchain/gcc-arm-none-eabi/bin/../lib/gcc/arm-none-eabi/11.2.1/thumb/v7e-m+fp/hard\libgcc.a(_udivmoddi4.o)
 .ARM.attributes
                0x00000a23       0x1e c:/users/luke/desktop/mcha toolchain windows/toolchain/gcc-arm-none-eabi/bin/../lib/gcc/arm-none-eabi/11.2.1/thumb/v7e-m+fp/hard\libgcc.a(_dvmd_tls.o)
 .ARM.attributes
                0x00000a41       0x34 c:/users/luke/desktop/mcha toolchain windows/toolchain/gcc-arm-none-eabi/bin/../lib/gcc/arm-none-eabi/11.2.1/thumb/v7e-m+fp/hard\libc_nano.a(lib_a-ctype_.o)
 .ARM.attributes
                0x00000a75       0x34 c:/users/luke/desktop/mcha toolchain windows/toolchain/gcc-arm-none-eabi/bin/../lib/gcc/arm-none-eabi/11.2.1/thumb/v7e-m+fp/hard\libc_nano.a(lib_a-exit.o)
 .ARM.attributes
                0x00000aa9       0x34 c:/users/luke/desktop/mcha toolchain windows/toolchain/gcc-arm-none-eabi/bin/../lib/gcc/arm-none-eabi/11.2.1/thumb/v7e-m+fp/hard\libc_nano.a(lib_a-getchar.o)
 .ARM.attributes
                0x00000add       0x34 c:/users/luke/desktop/mcha toolchain windows/toolchain/gcc-arm-none-eabi/bin/../lib/gcc/arm-none-eabi/11.2.1/thumb/v7e-m+fp/hard\libc_nano.a(lib_a-getc.o)
 .ARM.attributes
                0x00000b11       0x34 c:/users/luke/desktop/mcha toolchain windows/toolchain/gcc-arm-none-eabi/bin/../lib/gcc/arm-none-eabi/11.2.1/thumb/v7e-m+fp/hard\libc_nano.a(lib_a-impure.o)
 .ARM.attributes
                0x00000b45       0x34 c:/users/luke/desktop/mcha toolchain windows/toolchain/gcc-arm-none-eabi/bin/../lib/gcc/arm-none-eabi/11.2.1/thumb/v7e-m+fp/hard\libc_nano.a(lib_a-init.o)
 .ARM.attributes
                0x00000b79       0x34 c:/users/luke/desktop/mcha toolchain windows/toolchain/gcc-arm-none-eabi/bin/../lib/gcc/arm-none-eabi/11.2.1/thumb/v7e-m+fp/hard\libc_nano.a(lib_a-malloc.o)
 .ARM.attributes
                0x00000bad       0x34 c:/users/luke/desktop/mcha toolchain windows/toolchain/gcc-arm-none-eabi/bin/../lib/gcc/arm-none-eabi/11.2.1/thumb/v7e-m+fp/hard\libc_nano.a(lib_a-memcpy-stub.o)
 .ARM.attributes
                0x00000be1       0x34 c:/users/luke/desktop/mcha toolchain windows/toolchain/gcc-arm-none-eabi/bin/../lib/gcc/arm-none-eabi/11.2.1/thumb/v7e-m+fp/hard\libc_nano.a(lib_a-memset.o)
 .ARM.attributes
                0x00000c15       0x34 c:/users/luke/desktop/mcha toolchain windows/toolchain/gcc-arm-none-eabi/bin/../lib/gcc/arm-none-eabi/11.2.1/thumb/v7e-m+fp/hard\libc_nano.a(lib_a-mstats.o)
 .ARM.attributes
                0x00000c49       0x34 c:/users/luke/desktop/mcha toolchain windows/toolchain/gcc-arm-none-eabi/bin/../lib/gcc/arm-none-eabi/11.2.1/thumb/v7e-m+fp/hard\libc_nano.a(lib_a-nano-freer.o)
 .ARM.attributes
                0x00000c7d       0x34 c:/users/luke/desktop/mcha toolchain windows/toolchain/gcc-arm-none-eabi/bin/../lib/gcc/arm-none-eabi/11.2.1/thumb/v7e-m+fp/hard\libc_nano.a(lib_a-nano-mallinfor.o)
 .ARM.attributes
                0x00000cb1       0x34 c:/users/luke/desktop/mcha toolchain windows/toolchain/gcc-arm-none-eabi/bin/../lib/gcc/arm-none-eabi/11.2.1/thumb/v7e-m+fp/hard\libc_nano.a(lib_a-nano-mallocr.o)
 .ARM.attributes
                0x00000ce5       0x34 c:/users/luke/desktop/mcha toolchain windows/toolchain/gcc-arm-none-eabi/bin/../lib/gcc/arm-none-eabi/11.2.1/thumb/v7e-m+fp/hard\libc_nano.a(lib_a-nano-malloptr.o)
 .ARM.attributes
                0x00000d19       0x34 c:/users/luke/desktop/mcha toolchain windows/toolchain/gcc-arm-none-eabi/bin/../lib/gcc/arm-none-eabi/11.2.1/thumb/v7e-m+fp/hard\libc_nano.a(lib_a-nano-mallstatsr.o)
 .ARM.attributes
                0x00000d4d       0x34 c:/users/luke/desktop/mcha toolchain windows/toolchain/gcc-arm-none-eabi/bin/../lib/gcc/arm-none-eabi/11.2.1/thumb/v7e-m+fp/hard\libc_nano.a(lib_a-nano-vfprintf_float.o)
 .ARM.attributes
                0x00000d81       0x34 c:/users/luke/desktop/mcha toolchain windows/toolchain/gcc-arm-none-eabi/bin/../lib/gcc/arm-none-eabi/11.2.1/thumb/v7e-m+fp/hard\libc_nano.a(lib_a-nano-vfprintf_i.o)
 .ARM.attributes
                0x00000db5       0x34 c:/users/luke/desktop/mcha toolchain windows/toolchain/gcc-arm-none-eabi/bin/../lib/gcc/arm-none-eabi/11.2.1/thumb/v7e-m+fp/hard\libc_nano.a(lib_a-nano-vfscanf_float.o)
 .ARM.attributes
                0x00000de9       0x34 c:/users/luke/desktop/mcha toolchain windows/toolchain/gcc-arm-none-eabi/bin/../lib/gcc/arm-none-eabi/11.2.1/thumb/v7e-m+fp/hard\libc_nano.a(lib_a-printf.o)
 .ARM.attributes
                0x00000e1d       0x34 c:/users/luke/desktop/mcha toolchain windows/toolchain/gcc-arm-none-eabi/bin/../lib/gcc/arm-none-eabi/11.2.1/thumb/v7e-m+fp/hard\libc_nano.a(lib_a-reent.o)
 .ARM.attributes
                0x00000e51       0x34 c:/users/luke/desktop/mcha toolchain windows/toolchain/gcc-arm-none-eabi/bin/../lib/gcc/arm-none-eabi/11.2.1/thumb/v7e-m+fp/hard\libc_nano.a(lib_a-rget.o)
 .ARM.attributes
                0x00000e85       0x34 c:/users/luke/desktop/mcha toolchain windows/toolchain/gcc-arm-none-eabi/bin/../lib/gcc/arm-none-eabi/11.2.1/thumb/v7e-m+fp/hard\libc_nano.a(lib_a-sbrkr.o)
 .ARM.attributes
                0x00000eb9       0x34 c:/users/luke/desktop/mcha toolchain windows/toolchain/gcc-arm-none-eabi/bin/../lib/gcc/arm-none-eabi/11.2.1/thumb/v7e-m+fp/hard\libc_nano.a(lib_a-setvbuf.o)
 .ARM.attributes
                0x00000eed       0x34 c:/users/luke/desktop/mcha toolchain windows/toolchain/gcc-arm-none-eabi/bin/../lib/gcc/arm-none-eabi/11.2.1/thumb/v7e-m+fp/hard\libc_nano.a(lib_a-sf_nan.o)
 .ARM.attributes
                0x00000f21       0x34 c:/users/luke/desktop/mcha toolchain windows/toolchain/gcc-arm-none-eabi/bin/../lib/gcc/arm-none-eabi/11.2.1/thumb/v7e-m+fp/hard\libc_nano.a(lib_a-sprintf.o)
 .ARM.attributes
                0x00000f55       0x1c c:/users/luke/desktop/mcha toolchain windows/toolchain/gcc-arm-none-eabi/bin/../lib/gcc/arm-none-eabi/11.2.1/thumb/v7e-m+fp/hard\libc_nano.a(lib_a-strcmp.o)
 .ARM.attributes
                0x00000f71       0x17 c:/users/luke/desktop/mcha toolchain windows/toolchain/gcc-arm-none-eabi/bin/../lib/gcc/arm-none-eabi/11.2.1/thumb/v7e-m+fp/hard\libc_nano.a(lib_a-strlen.o)
 .ARM.attributes
                0x00000f88       0x34 c:/users/luke/desktop/mcha toolchain windows/toolchain/gcc-arm-none-eabi/bin/../lib/gcc/arm-none-eabi/11.2.1/thumb/v7e-m+fp/hard\libc_nano.a(lib_a-strtod.o)
 .ARM.attributes
                0x00000fbc       0x34 c:/users/luke/desktop/mcha toolchain windows/toolchain/gcc-arm-none-eabi/bin/../lib/gcc/arm-none-eabi/11.2.1/thumb/v7e-m+fp/hard\libc_nano.a(lib_a-strtol.o)
 .ARM.attributes
                0x00000ff0       0x34 c:/users/luke/desktop/mcha toolchain windows/toolchain/gcc-arm-none-eabi/bin/../lib/gcc/arm-none-eabi/11.2.1/thumb/v7e-m+fp/hard\libc_nano.a(lib_a-vprintf.o)
 .ARM.attributes
                0x00001024       0x34 c:/users/luke/desktop/mcha toolchain windows/toolchain/gcc-arm-none-eabi/bin/../lib/gcc/arm-none-eabi/11.2.1/thumb/v7e-m+fp/hard\libc_nano.a(lib_a-dtoa.o)
 .ARM.attributes
                0x00001058       0x34 c:/users/luke/desktop/mcha toolchain windows/toolchain/gcc-arm-none-eabi/bin/../lib/gcc/arm-none-eabi/11.2.1/thumb/v7e-m+fp/hard\libc_nano.a(lib_a-errno.o)
 .ARM.attributes
                0x0000108c       0x34 c:/users/luke/desktop/mcha toolchain windows/toolchain/gcc-arm-none-eabi/bin/../lib/gcc/arm-none-eabi/11.2.1/thumb/v7e-m+fp/hard\libc_nano.a(lib_a-fflush.o)
 .ARM.attributes
                0x000010c0       0x34 c:/users/luke/desktop/mcha toolchain windows/toolchain/gcc-arm-none-eabi/bin/../lib/gcc/arm-none-eabi/11.2.1/thumb/v7e-m+fp/hard\libc_nano.a(lib_a-findfp.o)
 .ARM.attributes
                0x000010f4       0x34 c:/users/luke/desktop/mcha toolchain windows/toolchain/gcc-arm-none-eabi/bin/../lib/gcc/arm-none-eabi/11.2.1/thumb/v7e-m+fp/hard\libc_nano.a(lib_a-fprintf.o)
 .ARM.attributes
                0x00001128       0x34 c:/users/luke/desktop/mcha toolchain windows/toolchain/gcc-arm-none-eabi/bin/../lib/gcc/arm-none-eabi/11.2.1/thumb/v7e-m+fp/hard\libc_nano.a(lib_a-fwalk.o)
 .ARM.attributes
                0x0000115c       0x34 c:/users/luke/desktop/mcha toolchain windows/toolchain/gcc-arm-none-eabi/bin/../lib/gcc/arm-none-eabi/11.2.1/thumb/v7e-m+fp/hard\libc_nano.a(lib_a-gdtoa-gethex.o)
 .ARM.attributes
                0x00001190       0x34 c:/users/luke/desktop/mcha toolchain windows/toolchain/gcc-arm-none-eabi/bin/../lib/gcc/arm-none-eabi/11.2.1/thumb/v7e-m+fp/hard\libc_nano.a(lib_a-gdtoa-hexnan.o)
 .ARM.attributes
                0x000011c4       0x34 c:/users/luke/desktop/mcha toolchain windows/toolchain/gcc-arm-none-eabi/bin/../lib/gcc/arm-none-eabi/11.2.1/thumb/v7e-m+fp/hard\libc_nano.a(lib_a-lnumeric.o)
 .ARM.attributes
                0x000011f8       0x34 c:/users/luke/desktop/mcha toolchain windows/toolchain/gcc-arm-none-eabi/bin/../lib/gcc/arm-none-eabi/11.2.1/thumb/v7e-m+fp/hard\libc_nano.a(lib_a-localeconv.o)
 .ARM.attributes
                0x0000122c       0x34 c:/users/luke/desktop/mcha toolchain windows/toolchain/gcc-arm-none-eabi/bin/../lib/gcc/arm-none-eabi/11.2.1/thumb/v7e-m+fp/hard\libc_nano.a(lib_a-locale.o)
 .ARM.attributes
                0x00001260       0x34 c:/users/luke/desktop/mcha toolchain windows/toolchain/gcc-arm-none-eabi/bin/../lib/gcc/arm-none-eabi/11.2.1/thumb/v7e-m+fp/hard\libc_nano.a(lib_a-makebuf.o)
 .ARM.attributes
                0x00001294       0x34 c:/users/luke/desktop/mcha toolchain windows/toolchain/gcc-arm-none-eabi/bin/../lib/gcc/arm-none-eabi/11.2.1/thumb/v7e-m+fp/hard\libc_nano.a(lib_a-mbtowc_r.o)
 .ARM.attributes
                0x000012c8       0x1c c:/users/luke/desktop/mcha toolchain windows/toolchain/gcc-arm-none-eabi/bin/../lib/gcc/arm-none-eabi/11.2.1/thumb/v7e-m+fp/hard\libc_nano.a(lib_a-memchr.o)
 .ARM.attributes
                0x000012e4       0x34 c:/users/luke/desktop/mcha toolchain windows/toolchain/gcc-arm-none-eabi/bin/../lib/gcc/arm-none-eabi/11.2.1/thumb/v7e-m+fp/hard\libc_nano.a(lib_a-mprec.o)
 .ARM.attributes
                0x00001318       0x34 c:/users/luke/desktop/mcha toolchain windows/toolchain/gcc-arm-none-eabi/bin/../lib/gcc/arm-none-eabi/11.2.1/thumb/v7e-m+fp/hard\libc_nano.a(lib_a-nano-callocr.o)
 .ARM.attributes
                0x0000134c       0x34 c:/users/luke/desktop/mcha toolchain windows/toolchain/gcc-arm-none-eabi/bin/../lib/gcc/arm-none-eabi/11.2.1/thumb/v7e-m+fp/hard\libc_nano.a(lib_a-nano-svfprintf.o)
 .ARM.attributes
                0x00001380       0x34 c:/users/luke/desktop/mcha toolchain windows/toolchain/gcc-arm-none-eabi/bin/../lib/gcc/arm-none-eabi/11.2.1/thumb/v7e-m+fp/hard\libc_nano.a(lib_a-nano-vfprintf.o)
 .ARM.attributes
                0x000013b4       0x34 c:/users/luke/desktop/mcha toolchain windows/toolchain/gcc-arm-none-eabi/bin/../lib/gcc/arm-none-eabi/11.2.1/thumb/v7e-m+fp/hard\libc_nano.a(lib_a-refill.o)
 .ARM.attributes
                0x000013e8       0x34 c:/users/luke/desktop/mcha toolchain windows/toolchain/gcc-arm-none-eabi/bin/../lib/gcc/arm-none-eabi/11.2.1/thumb/v7e-m+fp/hard\libc_nano.a(lib_a-s_nan.o)
 .ARM.attributes
                0x0000141c       0x34 c:/users/luke/desktop/mcha toolchain windows/toolchain/gcc-arm-none-eabi/bin/../lib/gcc/arm-none-eabi/11.2.1/thumb/v7e-m+fp/hard\libc_nano.a(lib_a-stdio.o)
 .ARM.attributes
                0x00001450       0x34 c:/users/luke/desktop/mcha toolchain windows/toolchain/gcc-arm-none-eabi/bin/../lib/gcc/arm-none-eabi/11.2.1/thumb/v7e-m+fp/hard\libc_nano.a(lib_a-strncmp.o)
 .ARM.attributes
                0x00001484       0x34 c:/users/luke/desktop/mcha toolchain windows/toolchain/gcc-arm-none-eabi/bin/../lib/gcc/arm-none-eabi/11.2.1/thumb/v7e-m+fp/hard\libc_nano.a(lib_a-wbuf.o)
 .ARM.attributes
                0x000014b8       0x34 c:/users/luke/desktop/mcha toolchain windows/toolchain/gcc-arm-none-eabi/bin/../lib/gcc/arm-none-eabi/11.2.1/thumb/v7e-m+fp/hard\libc_nano.a(lib_a-wctomb_r.o)
 .ARM.attributes
                0x000014ec       0x34 c:/users/luke/desktop/mcha toolchain windows/toolchain/gcc-arm-none-eabi/bin/../lib/gcc/arm-none-eabi/11.2.1/thumb/v7e-m+fp/hard\libc_nano.a(lib_a-writer.o)
 .ARM.attributes
                0x00001520       0x34 c:/users/luke/desktop/mcha toolchain windows/toolchain/gcc-arm-none-eabi/bin/../lib/gcc/arm-none-eabi/11.2.1/thumb/v7e-m+fp/hard\libc_nano.a(lib_a-wsetup.o)
 .ARM.attributes
                0x00001554       0x34 c:/users/luke/desktop/mcha toolchain windows/toolchain/gcc-arm-none-eabi/bin/../lib/gcc/arm-none-eabi/11.2.1/thumb/v7e-m+fp/hard\libc_nano.a(lib_a-assert.o)
 .ARM.attributes
                0x00001588       0x34 c:/users/luke/desktop/mcha toolchain windows/toolchain/gcc-arm-none-eabi/bin/../lib/gcc/arm-none-eabi/11.2.1/thumb/v7e-m+fp/hard\libc_nano.a(lib_a-closer.o)
 .ARM.attributes
                0x000015bc       0x34 c:/users/luke/desktop/mcha toolchain windows/toolchain/gcc-arm-none-eabi/bin/../lib/gcc/arm-none-eabi/11.2.1/thumb/v7e-m+fp/hard\libc_nano.a(lib_a-fstatr.o)
 .ARM.attributes
                0x000015f0       0x34 c:/users/luke/desktop/mcha toolchain windows/toolchain/gcc-arm-none-eabi/bin/../lib/gcc/arm-none-eabi/11.2.1/thumb/v7e-m+fp/hard\libc_nano.a(lib_a-fvwrite.o)
 .ARM.attributes
                0x00001624       0x34 c:/users/luke/desktop/mcha toolchain windows/toolchain/gcc-arm-none-eabi/bin/../lib/gcc/arm-none-eabi/11.2.1/thumb/v7e-m+fp/hard\libc_nano.a(lib_a-isattyr.o)
 .ARM.attributes
                0x00001658       0x34 c:/users/luke/desktop/mcha toolchain windows/toolchain/gcc-arm-none-eabi/bin/../lib/gcc/arm-none-eabi/11.2.1/thumb/v7e-m+fp/hard\libc_nano.a(lib_a-lseekr.o)
 .ARM.attributes
                0x0000168c       0x34 c:/users/luke/desktop/mcha toolchain windows/toolchain/gcc-arm-none-eabi/bin/../lib/gcc/arm-none-eabi/11.2.1/thumb/v7e-m+fp/hard\libc_nano.a(lib_a-memmove.o)
 .ARM.attributes
                0x000016c0       0x34 c:/users/luke/desktop/mcha toolchain windows/toolchain/gcc-arm-none-eabi/bin/../lib/gcc/arm-none-eabi/11.2.1/thumb/v7e-m+fp/hard\libc_nano.a(lib_a-nano-reallocr.o)
 .ARM.attributes
                0x000016f4       0x34 c:/users/luke/desktop/mcha toolchain windows/toolchain/gcc-arm-none-eabi/bin/../lib/gcc/arm-none-eabi/11.2.1/thumb/v7e-m+fp/hard\libc_nano.a(lib_a-readr.o)
 .ARM.attributes
                0x00001728       0x34 c:/users/luke/desktop/mcha toolchain windows/toolchain/gcc-arm-none-eabi/bin/../lib/gcc/arm-none-eabi/11.2.1/thumb/v7e-m+fp/hard\libc_nano.a(lib_a-abort.o)
 .ARM.attributes
                0x0000175c       0x34 c:/users/luke/desktop/mcha toolchain windows/toolchain/gcc-arm-none-eabi/bin/../lib/gcc/arm-none-eabi/11.2.1/thumb/v7e-m+fp/hard\libc_nano.a(lib_a-nano-msizer.o)
 .ARM.attributes
                0x00001790       0x34 c:/users/luke/desktop/mcha toolchain windows/toolchain/gcc-arm-none-eabi/bin/../lib/gcc/arm-none-eabi/11.2.1/thumb/v7e-m+fp/hard\libc_nano.a(lib_a-signal.o)
 .ARM.attributes
                0x000017c4       0x34 c:/users/luke/desktop/mcha toolchain windows/toolchain/gcc-arm-none-eabi/bin/../lib/gcc/arm-none-eabi/11.2.1/thumb/v7e-m+fp/hard\libc_nano.a(lib_a-signalr.o)
 .ARM.attributes
                0x000017f8       0x1e c:/users/luke/desktop/mcha toolchain windows/toolchain/gcc-arm-none-eabi/bin/../lib/gcc/arm-none-eabi/11.2.1/thumb/v7e-m+fp/hard\libgcc.a(_arm_muldf3.o)
 .ARM.attributes
                0x00001816       0x1e c:/users/luke/desktop/mcha toolchain windows/toolchain/gcc-arm-none-eabi/bin/../lib/gcc/arm-none-eabi/11.2.1/thumb/v7e-m+fp/hard\libgcc.a(_arm_addsubdf3.o)
 .ARM.attributes
                0x00001834       0x1e c:/users/luke/desktop/mcha toolchain windows/toolchain/gcc-arm-none-eabi/bin/../lib/gcc/arm-none-eabi/11.2.1/thumb/v7e-m+fp/hard\libgcc.a(_arm_muldivdf3.o)
 .ARM.attributes
                0x00001852       0x1e c:/users/luke/desktop/mcha toolchain windows/toolchain/gcc-arm-none-eabi/bin/../lib/gcc/arm-none-eabi/11.2.1/thumb/v7e-m+fp/hard\libgcc.a(_arm_cmpdf2.o)
 .ARM.attributes
                0x00001870       0x1e c:/users/luke/desktop/mcha toolchain windows/toolchain/gcc-arm-none-eabi/bin/../lib/gcc/arm-none-eabi/11.2.1/thumb/v7e-m+fp/hard\libgcc.a(_arm_unorddf2.o)
 .ARM.attributes
                0x0000188e       0x1e c:/users/luke/desktop/mcha toolchain windows/toolchain/gcc-arm-none-eabi/bin/../lib/gcc/arm-none-eabi/11.2.1/thumb/v7e-m+fp/hard\libgcc.a(_arm_fixdfsi.o)
 .ARM.attributes
                0x000018ac       0x1e c:/users/luke/desktop/mcha toolchain windows/toolchain/gcc-arm-none-eabi/bin/../lib/gcc/arm-none-eabi/11.2.1/thumb/v7e-m+fp/hard\libgcc.a(_arm_fixunsdfsi.o)
 .ARM.attributes
                0x000018ca       0x1e c:/users/luke/desktop/mcha toolchain windows/toolchain/gcc-arm-none-eabi/bin/../lib/gcc/arm-none-eabi/11.2.1/thumb/v7e-m+fp/hard\libgcc.a(_arm_truncdfsf2.o)
 .ARM.attributes
                0x000018e8       0x34 c:/users/luke/desktop/mcha toolchain windows/toolchain/gcc-arm-none-eabi/bin/../lib/gcc/arm-none-eabi/11.2.1/thumb/v7e-m+fp/hard\libgcc.a(_fixdfdi.o)
 .ARM.attributes
                0x0000191c       0x34 c:/users/luke/desktop/mcha toolchain windows/toolchain/gcc-arm-none-eabi/bin/../lib/gcc/arm-none-eabi/11.2.1/thumb/v7e-m+fp/hard\libgcc.a(_fixunsdfdi.o)
 .ARM.attributes
                0x00001950       0x34 c:/users/luke/desktop/mcha toolchain windows/toolchain/gcc-arm-none-eabi/bin/../lib/gcc/arm-none-eabi/11.2.1/thumb/v7e-m+fp/hard\libnosys.a(close.o)
 .ARM.attributes
                0x00001984       0x34 c:/users/luke/desktop/mcha toolchain windows/toolchain/gcc-arm-none-eabi/bin/../lib/gcc/arm-none-eabi/11.2.1/thumb/v7e-m+fp/hard\libnosys.a(fstat.o)
 .ARM.attributes
                0x000019b8       0x34 c:/users/luke/desktop/mcha toolchain windows/toolchain/gcc-arm-none-eabi/bin/../lib/gcc/arm-none-eabi/11.2.1/thumb/v7e-m+fp/hard\libnosys.a(getpid.o)
 .ARM.attributes
                0x000019ec       0x34 c:/users/luke/desktop/mcha toolchain windows/toolchain/gcc-arm-none-eabi/bin/../lib/gcc/arm-none-eabi/11.2.1/thumb/v7e-m+fp/hard\libnosys.a(isatty.o)
 .ARM.attributes
                0x00001a20       0x34 c:/users/luke/desktop/mcha toolchain windows/toolchain/gcc-arm-none-eabi/bin/../lib/gcc/arm-none-eabi/11.2.1/thumb/v7e-m+fp/hard\libnosys.a(kill.o)
 .ARM.attributes
                0x00001a54       0x34 c:/users/luke/desktop/mcha toolchain windows/toolchain/gcc-arm-none-eabi/bin/../lib/gcc/arm-none-eabi/11.2.1/thumb/v7e-m+fp/hard\libnosys.a(lseek.o)
 .ARM.attributes
                0x00001a88       0x34 c:/users/luke/desktop/mcha toolchain windows/toolchain/gcc-arm-none-eabi/bin/../lib/gcc/arm-none-eabi/11.2.1/thumb/v7e-m+fp/hard\libnosys.a(_exit.o)
 .ARM.attributes
                0x00001abc       0x34 c:/users/luke/desktop/mcha toolchain windows/toolchain/gcc-arm-none-eabi/bin/../lib/gcc/arm-none-eabi/11.2.1/thumb/v7e-m+fp/hard/crtend.o
 .ARM.attributes
                0x00001af0       0x1e c:/users/luke/desktop/mcha toolchain windows/toolchain/gcc-arm-none-eabi/bin/../lib/gcc/arm-none-eabi/11.2.1/thumb/v7e-m+fp/hard/crtn.o
OUTPUT(bin/robot.elf elf32-littlearm)
LOAD linker stubs
LOAD c:/users/luke/desktop/mcha toolchain windows/toolchain/gcc-arm-none-eabi/bin/../lib/gcc/arm-none-eabi/11.2.1/thumb/v7e-m+fp/hard\libc.a
LOAD c:/users/luke/desktop/mcha toolchain windows/toolchain/gcc-arm-none-eabi/bin/../lib/gcc/arm-none-eabi/11.2.1/thumb/v7e-m+fp/hard\libm.a
LOAD c:/users/luke/desktop/mcha toolchain windows/toolchain/gcc-arm-none-eabi/bin/../lib/gcc/arm-none-eabi/11.2.1/thumb/v7e-m+fp/hard\libgcc.a

.comment        0x00000000       0x57
 .comment       0x00000000       0x57 c:/users/luke/desktop/mcha toolchain windows/toolchain/gcc-arm-none-eabi/bin/../lib/gcc/arm-none-eabi/11.2.1/thumb/v7e-m+fp/hard/crtbegin.o
                                 0x58 (size before relaxing)
 .comment       0x00000057       0x58 build/stm32f4xx_it.o
 .comment       0x00000057       0x58 build/system_stm32f4xx.o
 .comment       0x00000057       0x58 build/cmd_line_buffer.o
 .comment       0x00000057       0x58 build/cmd_parser.o
 .comment       0x00000057       0x58 build/cmd_task.o
 .comment       0x00000057       0x58 build/main.o
 .comment       0x00000057       0x58 build/uart.o
 .comment       0x00000057       0x58 build/heartbeat_task.o
 .comment       0x00000057       0x58 build/heartbeat_cmd.o
 .comment       0x00000057       0x58 build/dummy_task.o
 .comment       0x00000057       0x58 build/stm32f4_HAL/stm32f4xx_hal.o
 .comment       0x00000057       0x58 build/stm32f4_HAL/stm32f4xx_hal_dma.o
 .comment       0x00000057       0x58 build/stm32f4_HAL/stm32f4xx_hal_adc.o
 .comment       0x00000057       0x58 build/stm32f4_HAL/stm32f4xx_hal_adc_ex.o
 .comment       0x00000057       0x58 build/stm32f4_HAL/stm32f4xx_hal_gpio.o
 .comment       0x00000057       0x58 build/stm32f4_HAL/stm32f4xx_ll_gpio.o
 .comment       0x00000057       0x58 build/stm32f4_HAL/stm32f4xx_ll_usart.o
 .comment       0x00000057       0x58 build/stm32f4_HAL/stm32f4xx_ll_dma.o
 .comment       0x00000057       0x58 build/stm32f4_HAL/stm32f4xx_ll_rcc.o
 .comment       0x00000057       0x58 build/stm32f4_HAL/stm32f4xx_hal_i2c.o
 .comment       0x00000057       0x58 build/stm32f4_HAL/stm32f4xx_hal_i2c_ex.o
 .comment       0x00000057       0x58 build/stm32f4_HAL/stm32f4xx_hal_tim.o
 .comment       0x00000057       0x58 build/stm32f4_HAL/stm32f4xx_hal_tim_ex.o
 .comment       0x00000057       0x58 build/stm32f4_HAL/stm32f4xx_hal_rtc.o
 .comment       0x00000057       0x58 build/stm32f4_HAL/stm32f4xx_hal_rcc.o
 .comment       0x00000057       0x58 build/stm32f4_HAL/stm32f4xx_hal_rcc_ex.o
 .comment       0x00000057       0x58 build/stm32f4_HAL/stm32f4xx_hal_pwr.o
 .comment       0x00000057       0x58 build/stm32f4_HAL/stm32f4xx_hal_pwr_ex.o
 .comment       0x00000057       0x58 build/stm32f4_HAL/stm32f4xx_hal_cortex.o
 .comment       0x00000057       0x58 build/stm32f4_HAL/stm32f4xx_hal_spi.o
 .comment       0x00000057       0x58 build/stm32f4_HAL/stm32f4xx_hal_dac.o
 .comment       0x00000057       0x58 build/stm32f4_HAL/stm32f4xx_hal_dac_ex.o
 .comment       0x00000057       0x58 build/stm32f4_HAL/stm32f4xx_hal_can.o
 .comment       0x00000057       0x58 build/FreeRTOS/croutine.o
 .comment       0x00000057       0x58 build/FreeRTOS/event_groups.o
 .comment       0x00000057       0x58 build/FreeRTOS/list.o
 .comment       0x00000057       0x58 build/FreeRTOS/queue.o
 .comment       0x00000057       0x58 build/FreeRTOS/tasks.o
 .comment       0x00000057       0x58 build/FreeRTOS/timers.o
 .comment       0x00000057       0x58 build/FreeRTOS/stream_buffer.o
 .comment       0x00000057       0x58 build/FreeRTOS/cmsis_os2.o
 .comment       0x00000057       0x58 build/FreeRTOS/clib_arm.o
 .comment       0x00000057       0x58 build/FreeRTOS/os_systick.o
 .comment       0x00000057       0x58 build/FreeRTOS/heap_useNewlib.o
 .comment       0x00000057       0x58 build/FreeRTOS/port.o
 .comment       0x00000057       0x58 c:/users/luke/desktop/mcha toolchain windows/toolchain/gcc-arm-none-eabi/bin/../lib/gcc/arm-none-eabi/11.2.1/thumb/v7e-m+fp/hard\libgcc.a(_udivmoddi4.o)
 .comment       0x00000057       0x58 c:/users/luke/desktop/mcha toolchain windows/toolchain/gcc-arm-none-eabi/bin/../lib/gcc/arm-none-eabi/11.2.1/thumb/v7e-m+fp/hard\libc_nano.a(lib_a-ctype_.o)
 .comment       0x00000057       0x58 c:/users/luke/desktop/mcha toolchain windows/toolchain/gcc-arm-none-eabi/bin/../lib/gcc/arm-none-eabi/11.2.1/thumb/v7e-m+fp/hard\libc_nano.a(lib_a-exit.o)
 .comment       0x00000057       0x58 c:/users/luke/desktop/mcha toolchain windows/toolchain/gcc-arm-none-eabi/bin/../lib/gcc/arm-none-eabi/11.2.1/thumb/v7e-m+fp/hard\libc_nano.a(lib_a-getchar.o)
 .comment       0x00000057       0x58 c:/users/luke/desktop/mcha toolchain windows/toolchain/gcc-arm-none-eabi/bin/../lib/gcc/arm-none-eabi/11.2.1/thumb/v7e-m+fp/hard\libc_nano.a(lib_a-getc.o)
 .comment       0x00000057       0x58 c:/users/luke/desktop/mcha toolchain windows/toolchain/gcc-arm-none-eabi/bin/../lib/gcc/arm-none-eabi/11.2.1/thumb/v7e-m+fp/hard\libc_nano.a(lib_a-impure.o)
 .comment       0x00000057       0x58 c:/users/luke/desktop/mcha toolchain windows/toolchain/gcc-arm-none-eabi/bin/../lib/gcc/arm-none-eabi/11.2.1/thumb/v7e-m+fp/hard\libc_nano.a(lib_a-init.o)
 .comment       0x00000057       0x58 c:/users/luke/desktop/mcha toolchain windows/toolchain/gcc-arm-none-eabi/bin/../lib/gcc/arm-none-eabi/11.2.1/thumb/v7e-m+fp/hard\libc_nano.a(lib_a-malloc.o)
 .comment       0x00000057       0x58 c:/users/luke/desktop/mcha toolchain windows/toolchain/gcc-arm-none-eabi/bin/../lib/gcc/arm-none-eabi/11.2.1/thumb/v7e-m+fp/hard\libc_nano.a(lib_a-memcpy-stub.o)
 .comment       0x00000057       0x58 c:/users/luke/desktop/mcha toolchain windows/toolchain/gcc-arm-none-eabi/bin/../lib/gcc/arm-none-eabi/11.2.1/thumb/v7e-m+fp/hard\libc_nano.a(lib_a-memset.o)
 .comment       0x00000057       0x58 c:/users/luke/desktop/mcha toolchain windows/toolchain/gcc-arm-none-eabi/bin/../lib/gcc/arm-none-eabi/11.2.1/thumb/v7e-m+fp/hard\libc_nano.a(lib_a-mstats.o)
 .comment       0x00000057       0x58 c:/users/luke/desktop/mcha toolchain windows/toolchain/gcc-arm-none-eabi/bin/../lib/gcc/arm-none-eabi/11.2.1/thumb/v7e-m+fp/hard\libc_nano.a(lib_a-nano-freer.o)
 .comment       0x00000057       0x58 c:/users/luke/desktop/mcha toolchain windows/toolchain/gcc-arm-none-eabi/bin/../lib/gcc/arm-none-eabi/11.2.1/thumb/v7e-m+fp/hard\libc_nano.a(lib_a-nano-mallinfor.o)
 .comment       0x00000057       0x58 c:/users/luke/desktop/mcha toolchain windows/toolchain/gcc-arm-none-eabi/bin/../lib/gcc/arm-none-eabi/11.2.1/thumb/v7e-m+fp/hard\libc_nano.a(lib_a-nano-mallocr.o)
 .comment       0x00000057       0x58 c:/users/luke/desktop/mcha toolchain windows/toolchain/gcc-arm-none-eabi/bin/../lib/gcc/arm-none-eabi/11.2.1/thumb/v7e-m+fp/hard\libc_nano.a(lib_a-nano-malloptr.o)
 .comment       0x00000057       0x58 c:/users/luke/desktop/mcha toolchain windows/toolchain/gcc-arm-none-eabi/bin/../lib/gcc/arm-none-eabi/11.2.1/thumb/v7e-m+fp/hard\libc_nano.a(lib_a-nano-mallstatsr.o)
 .comment       0x00000057       0x58 c:/users/luke/desktop/mcha toolchain windows/toolchain/gcc-arm-none-eabi/bin/../lib/gcc/arm-none-eabi/11.2.1/thumb/v7e-m+fp/hard\libc_nano.a(lib_a-nano-vfprintf_float.o)
 .comment       0x00000057       0x58 c:/users/luke/desktop/mcha toolchain windows/toolchain/gcc-arm-none-eabi/bin/../lib/gcc/arm-none-eabi/11.2.1/thumb/v7e-m+fp/hard\libc_nano.a(lib_a-nano-vfprintf_i.o)
 .comment       0x00000057       0x58 c:/users/luke/desktop/mcha toolchain windows/toolchain/gcc-arm-none-eabi/bin/../lib/gcc/arm-none-eabi/11.2.1/thumb/v7e-m+fp/hard\libc_nano.a(lib_a-nano-vfscanf_float.o)
 .comment       0x00000057       0x58 c:/users/luke/desktop/mcha toolchain windows/toolchain/gcc-arm-none-eabi/bin/../lib/gcc/arm-none-eabi/11.2.1/thumb/v7e-m+fp/hard\libc_nano.a(lib_a-printf.o)
 .comment       0x00000057       0x58 c:/users/luke/desktop/mcha toolchain windows/toolchain/gcc-arm-none-eabi/bin/../lib/gcc/arm-none-eabi/11.2.1/thumb/v7e-m+fp/hard\libc_nano.a(lib_a-reent.o)
 .comment       0x00000057       0x58 c:/users/luke/desktop/mcha toolchain windows/toolchain/gcc-arm-none-eabi/bin/../lib/gcc/arm-none-eabi/11.2.1/thumb/v7e-m+fp/hard\libc_nano.a(lib_a-rget.o)
 .comment       0x00000057       0x58 c:/users/luke/desktop/mcha toolchain windows/toolchain/gcc-arm-none-eabi/bin/../lib/gcc/arm-none-eabi/11.2.1/thumb/v7e-m+fp/hard\libc_nano.a(lib_a-sbrkr.o)
 .comment       0x00000057       0x58 c:/users/luke/desktop/mcha toolchain windows/toolchain/gcc-arm-none-eabi/bin/../lib/gcc/arm-none-eabi/11.2.1/thumb/v7e-m+fp/hard\libc_nano.a(lib_a-setvbuf.o)
 .comment       0x00000057       0x58 c:/users/luke/desktop/mcha toolchain windows/toolchain/gcc-arm-none-eabi/bin/../lib/gcc/arm-none-eabi/11.2.1/thumb/v7e-m+fp/hard\libc_nano.a(lib_a-sf_nan.o)
 .comment       0x00000057       0x58 c:/users/luke/desktop/mcha toolchain windows/toolchain/gcc-arm-none-eabi/bin/../lib/gcc/arm-none-eabi/11.2.1/thumb/v7e-m+fp/hard\libc_nano.a(lib_a-sprintf.o)
 .comment       0x00000057       0x58 c:/users/luke/desktop/mcha toolchain windows/toolchain/gcc-arm-none-eabi/bin/../lib/gcc/arm-none-eabi/11.2.1/thumb/v7e-m+fp/hard\libc_nano.a(lib_a-strtod.o)
 .comment       0x00000057       0x58 c:/users/luke/desktop/mcha toolchain windows/toolchain/gcc-arm-none-eabi/bin/../lib/gcc/arm-none-eabi/11.2.1/thumb/v7e-m+fp/hard\libc_nano.a(lib_a-strtol.o)
 .comment       0x00000057       0x58 c:/users/luke/desktop/mcha toolchain windows/toolchain/gcc-arm-none-eabi/bin/../lib/gcc/arm-none-eabi/11.2.1/thumb/v7e-m+fp/hard\libc_nano.a(lib_a-vprintf.o)
 .comment       0x00000057       0x58 c:/users/luke/desktop/mcha toolchain windows/toolchain/gcc-arm-none-eabi/bin/../lib/gcc/arm-none-eabi/11.2.1/thumb/v7e-m+fp/hard\libc_nano.a(lib_a-dtoa.o)
 .comment       0x00000057       0x58 c:/users/luke/desktop/mcha toolchain windows/toolchain/gcc-arm-none-eabi/bin/../lib/gcc/arm-none-eabi/11.2.1/thumb/v7e-m+fp/hard\libc_nano.a(lib_a-errno.o)
 .comment       0x00000057       0x58 c:/users/luke/desktop/mcha toolchain windows/toolchain/gcc-arm-none-eabi/bin/../lib/gcc/arm-none-eabi/11.2.1/thumb/v7e-m+fp/hard\libc_nano.a(lib_a-fflush.o)
 .comment       0x00000057       0x58 c:/users/luke/desktop/mcha toolchain windows/toolchain/gcc-arm-none-eabi/bin/../lib/gcc/arm-none-eabi/11.2.1/thumb/v7e-m+fp/hard\libc_nano.a(lib_a-findfp.o)
 .comment       0x00000057       0x58 c:/users/luke/desktop/mcha toolchain windows/toolchain/gcc-arm-none-eabi/bin/../lib/gcc/arm-none-eabi/11.2.1/thumb/v7e-m+fp/hard\libc_nano.a(lib_a-fprintf.o)
 .comment       0x00000057       0x58 c:/users/luke/desktop/mcha toolchain windows/toolchain/gcc-arm-none-eabi/bin/../lib/gcc/arm-none-eabi/11.2.1/thumb/v7e-m+fp/hard\libc_nano.a(lib_a-fwalk.o)
 .comment       0x00000057       0x58 c:/users/luke/desktop/mcha toolchain windows/toolchain/gcc-arm-none-eabi/bin/../lib/gcc/arm-none-eabi/11.2.1/thumb/v7e-m+fp/hard\libc_nano.a(lib_a-gdtoa-gethex.o)
 .comment       0x00000057       0x58 c:/users/luke/desktop/mcha toolchain windows/toolchain/gcc-arm-none-eabi/bin/../lib/gcc/arm-none-eabi/11.2.1/thumb/v7e-m+fp/hard\libc_nano.a(lib_a-gdtoa-hexnan.o)
 .comment       0x00000057       0x58 c:/users/luke/desktop/mcha toolchain windows/toolchain/gcc-arm-none-eabi/bin/../lib/gcc/arm-none-eabi/11.2.1/thumb/v7e-m+fp/hard\libc_nano.a(lib_a-lnumeric.o)
 .comment       0x00000057       0x58 c:/users/luke/desktop/mcha toolchain windows/toolchain/gcc-arm-none-eabi/bin/../lib/gcc/arm-none-eabi/11.2.1/thumb/v7e-m+fp/hard\libc_nano.a(lib_a-localeconv.o)
 .comment       0x00000057       0x58 c:/users/luke/desktop/mcha toolchain windows/toolchain/gcc-arm-none-eabi/bin/../lib/gcc/arm-none-eabi/11.2.1/thumb/v7e-m+fp/hard\libc_nano.a(lib_a-locale.o)
 .comment       0x00000057       0x58 c:/users/luke/desktop/mcha toolchain windows/toolchain/gcc-arm-none-eabi/bin/../lib/gcc/arm-none-eabi/11.2.1/thumb/v7e-m+fp/hard\libc_nano.a(lib_a-makebuf.o)
 .comment       0x00000057       0x58 c:/users/luke/desktop/mcha toolchain windows/toolchain/gcc-arm-none-eabi/bin/../lib/gcc/arm-none-eabi/11.2.1/thumb/v7e-m+fp/hard\libc_nano.a(lib_a-mbtowc_r.o)
 .comment       0x00000057       0x58 c:/users/luke/desktop/mcha toolchain windows/toolchain/gcc-arm-none-eabi/bin/../lib/gcc/arm-none-eabi/11.2.1/thumb/v7e-m+fp/hard\libc_nano.a(lib_a-mprec.o)
 .comment       0x00000057       0x58 c:/users/luke/desktop/mcha toolchain windows/toolchain/gcc-arm-none-eabi/bin/../lib/gcc/arm-none-eabi/11.2.1/thumb/v7e-m+fp/hard\libc_nano.a(lib_a-nano-callocr.o)
 .comment       0x00000057       0x58 c:/users/luke/desktop/mcha toolchain windows/toolchain/gcc-arm-none-eabi/bin/../lib/gcc/arm-none-eabi/11.2.1/thumb/v7e-m+fp/hard\libc_nano.a(lib_a-nano-svfprintf.o)
 .comment       0x00000057       0x58 c:/users/luke/desktop/mcha toolchain windows/toolchain/gcc-arm-none-eabi/bin/../lib/gcc/arm-none-eabi/11.2.1/thumb/v7e-m+fp/hard\libc_nano.a(lib_a-nano-vfprintf.o)
 .comment       0x00000057       0x58 c:/users/luke/desktop/mcha toolchain windows/toolchain/gcc-arm-none-eabi/bin/../lib/gcc/arm-none-eabi/11.2.1/thumb/v7e-m+fp/hard\libc_nano.a(lib_a-refill.o)
 .comment       0x00000057       0x58 c:/users/luke/desktop/mcha toolchain windows/toolchain/gcc-arm-none-eabi/bin/../lib/gcc/arm-none-eabi/11.2.1/thumb/v7e-m+fp/hard\libc_nano.a(lib_a-s_nan.o)
 .comment       0x00000057       0x58 c:/users/luke/desktop/mcha toolchain windows/toolchain/gcc-arm-none-eabi/bin/../lib/gcc/arm-none-eabi/11.2.1/thumb/v7e-m+fp/hard\libc_nano.a(lib_a-stdio.o)
 .comment       0x00000057       0x58 c:/users/luke/desktop/mcha toolchain windows/toolchain/gcc-arm-none-eabi/bin/../lib/gcc/arm-none-eabi/11.2.1/thumb/v7e-m+fp/hard\libc_nano.a(lib_a-strncmp.o)
 .comment       0x00000057       0x58 c:/users/luke/desktop/mcha toolchain windows/toolchain/gcc-arm-none-eabi/bin/../lib/gcc/arm-none-eabi/11.2.1/thumb/v7e-m+fp/hard\libc_nano.a(lib_a-wbuf.o)
 .comment       0x00000057       0x58 c:/users/luke/desktop/mcha toolchain windows/toolchain/gcc-arm-none-eabi/bin/../lib/gcc/arm-none-eabi/11.2.1/thumb/v7e-m+fp/hard\libc_nano.a(lib_a-wctomb_r.o)
 .comment       0x00000057       0x58 c:/users/luke/desktop/mcha toolchain windows/toolchain/gcc-arm-none-eabi/bin/../lib/gcc/arm-none-eabi/11.2.1/thumb/v7e-m+fp/hard\libc_nano.a(lib_a-writer.o)
 .comment       0x00000057       0x58 c:/users/luke/desktop/mcha toolchain windows/toolchain/gcc-arm-none-eabi/bin/../lib/gcc/arm-none-eabi/11.2.1/thumb/v7e-m+fp/hard\libc_nano.a(lib_a-wsetup.o)
 .comment       0x00000057       0x58 c:/users/luke/desktop/mcha toolchain windows/toolchain/gcc-arm-none-eabi/bin/../lib/gcc/arm-none-eabi/11.2.1/thumb/v7e-m+fp/hard\libc_nano.a(lib_a-assert.o)
 .comment       0x00000057       0x58 c:/users/luke/desktop/mcha toolchain windows/toolchain/gcc-arm-none-eabi/bin/../lib/gcc/arm-none-eabi/11.2.1/thumb/v7e-m+fp/hard\libc_nano.a(lib_a-closer.o)
 .comment       0x00000057       0x58 c:/users/luke/desktop/mcha toolchain windows/toolchain/gcc-arm-none-eabi/bin/../lib/gcc/arm-none-eabi/11.2.1/thumb/v7e-m+fp/hard\libc_nano.a(lib_a-fstatr.o)
 .comment       0x00000057       0x58 c:/users/luke/desktop/mcha toolchain windows/toolchain/gcc-arm-none-eabi/bin/../lib/gcc/arm-none-eabi/11.2.1/thumb/v7e-m+fp/hard\libc_nano.a(lib_a-fvwrite.o)
 .comment       0x00000057       0x58 c:/users/luke/desktop/mcha toolchain windows/toolchain/gcc-arm-none-eabi/bin/../lib/gcc/arm-none-eabi/11.2.1/thumb/v7e-m+fp/hard\libc_nano.a(lib_a-isattyr.o)
 .comment       0x00000057       0x58 c:/users/luke/desktop/mcha toolchain windows/toolchain/gcc-arm-none-eabi/bin/../lib/gcc/arm-none-eabi/11.2.1/thumb/v7e-m+fp/hard\libc_nano.a(lib_a-lseekr.o)
 .comment       0x00000057       0x58 c:/users/luke/desktop/mcha toolchain windows/toolchain/gcc-arm-none-eabi/bin/../lib/gcc/arm-none-eabi/11.2.1/thumb/v7e-m+fp/hard\libc_nano.a(lib_a-memmove.o)
 .comment       0x00000057       0x58 c:/users/luke/desktop/mcha toolchain windows/toolchain/gcc-arm-none-eabi/bin/../lib/gcc/arm-none-eabi/11.2.1/thumb/v7e-m+fp/hard\libc_nano.a(lib_a-nano-reallocr.o)
 .comment       0x00000057       0x58 c:/users/luke/desktop/mcha toolchain windows/toolchain/gcc-arm-none-eabi/bin/../lib/gcc/arm-none-eabi/11.2.1/thumb/v7e-m+fp/hard\libc_nano.a(lib_a-readr.o)
 .comment       0x00000057       0x58 c:/users/luke/desktop/mcha toolchain windows/toolchain/gcc-arm-none-eabi/bin/../lib/gcc/arm-none-eabi/11.2.1/thumb/v7e-m+fp/hard\libc_nano.a(lib_a-abort.o)
 .comment       0x00000057       0x58 c:/users/luke/desktop/mcha toolchain windows/toolchain/gcc-arm-none-eabi/bin/../lib/gcc/arm-none-eabi/11.2.1/thumb/v7e-m+fp/hard\libc_nano.a(lib_a-nano-msizer.o)
 .comment       0x00000057       0x58 c:/users/luke/desktop/mcha toolchain windows/toolchain/gcc-arm-none-eabi/bin/../lib/gcc/arm-none-eabi/11.2.1/thumb/v7e-m+fp/hard\libc_nano.a(lib_a-signal.o)
 .comment       0x00000057       0x58 c:/users/luke/desktop/mcha toolchain windows/toolchain/gcc-arm-none-eabi/bin/../lib/gcc/arm-none-eabi/11.2.1/thumb/v7e-m+fp/hard\libc_nano.a(lib_a-signalr.o)
 .comment       0x00000057       0x58 c:/users/luke/desktop/mcha toolchain windows/toolchain/gcc-arm-none-eabi/bin/../lib/gcc/arm-none-eabi/11.2.1/thumb/v7e-m+fp/hard\libgcc.a(_fixdfdi.o)
 .comment       0x00000057       0x58 c:/users/luke/desktop/mcha toolchain windows/toolchain/gcc-arm-none-eabi/bin/../lib/gcc/arm-none-eabi/11.2.1/thumb/v7e-m+fp/hard\libgcc.a(_fixunsdfdi.o)
 .comment       0x00000057       0x58 c:/users/luke/desktop/mcha toolchain windows/toolchain/gcc-arm-none-eabi/bin/../lib/gcc/arm-none-eabi/11.2.1/thumb/v7e-m+fp/hard\libnosys.a(close.o)
 .comment       0x00000057       0x58 c:/users/luke/desktop/mcha toolchain windows/toolchain/gcc-arm-none-eabi/bin/../lib/gcc/arm-none-eabi/11.2.1/thumb/v7e-m+fp/hard\libnosys.a(fstat.o)
 .comment       0x00000057       0x58 c:/users/luke/desktop/mcha toolchain windows/toolchain/gcc-arm-none-eabi/bin/../lib/gcc/arm-none-eabi/11.2.1/thumb/v7e-m+fp/hard\libnosys.a(getpid.o)
 .comment       0x00000057       0x58 c:/users/luke/desktop/mcha toolchain windows/toolchain/gcc-arm-none-eabi/bin/../lib/gcc/arm-none-eabi/11.2.1/thumb/v7e-m+fp/hard\libnosys.a(isatty.o)
 .comment       0x00000057       0x58 c:/users/luke/desktop/mcha toolchain windows/toolchain/gcc-arm-none-eabi/bin/../lib/gcc/arm-none-eabi/11.2.1/thumb/v7e-m+fp/hard\libnosys.a(kill.o)
 .comment       0x00000057       0x58 c:/users/luke/desktop/mcha toolchain windows/toolchain/gcc-arm-none-eabi/bin/../lib/gcc/arm-none-eabi/11.2.1/thumb/v7e-m+fp/hard\libnosys.a(lseek.o)
 .comment       0x00000057       0x58 c:/users/luke/desktop/mcha toolchain windows/toolchain/gcc-arm-none-eabi/bin/../lib/gcc/arm-none-eabi/11.2.1/thumb/v7e-m+fp/hard\libnosys.a(_exit.o)
 .comment       0x00000057       0x58 c:/users/luke/desktop/mcha toolchain windows/toolchain/gcc-arm-none-eabi/bin/../lib/gcc/arm-none-eabi/11.2.1/thumb/v7e-m+fp/hard/crtend.o

.debug_line     0x00000000    0x113c3
 .debug_line    0x00000000       0x76 c:/users/luke/desktop/mcha toolchain windows/toolchain/gcc-arm-none-eabi/bin/../lib/gcc/arm-none-eabi/11.2.1/thumb/v7e-m+fp/hard/crt0.o
 .debug_line    0x00000076       0x6c c:/users/luke/desktop/mcha toolchain windows/toolchain/gcc-arm-none-eabi/bin/../lib/gcc/arm-none-eabi/11.2.1/thumb/v7e-m+fp/hard\libgcc.a(_aeabi_ldivmod.o)
 .debug_line    0x000000e2       0x4e c:/users/luke/desktop/mcha toolchain windows/toolchain/gcc-arm-none-eabi/bin/../lib/gcc/arm-none-eabi/11.2.1/thumb/v7e-m+fp/hard\libgcc.a(_aeabi_uldivmod.o)
 .debug_line    0x00000130      0x5e5 c:/users/luke/desktop/mcha toolchain windows/toolchain/gcc-arm-none-eabi/bin/../lib/gcc/arm-none-eabi/11.2.1/thumb/v7e-m+fp/hard\libgcc.a(_udivmoddi4.o)
 .debug_line    0x00000715       0x4a c:/users/luke/desktop/mcha toolchain windows/toolchain/gcc-arm-none-eabi/bin/../lib/gcc/arm-none-eabi/11.2.1/thumb/v7e-m+fp/hard\libgcc.a(_dvmd_tls.o)
 .debug_line    0x0000075f       0x7b c:/users/luke/desktop/mcha toolchain windows/toolchain/gcc-arm-none-eabi/bin/../lib/gcc/arm-none-eabi/11.2.1/thumb/v7e-m+fp/hard\libc_nano.a(lib_a-ctype_.o)
 .debug_line    0x000007da      0x201 c:/users/luke/desktop/mcha toolchain windows/toolchain/gcc-arm-none-eabi/bin/../lib/gcc/arm-none-eabi/11.2.1/thumb/v7e-m+fp/hard\libc_nano.a(lib_a-exit.o)
 .debug_line    0x000009db      0x25a c:/users/luke/desktop/mcha toolchain windows/toolchain/gcc-arm-none-eabi/bin/../lib/gcc/arm-none-eabi/11.2.1/thumb/v7e-m+fp/hard\libc_nano.a(lib_a-getchar.o)
 .debug_line    0x00000c35      0x35c c:/users/luke/desktop/mcha toolchain windows/toolchain/gcc-arm-none-eabi/bin/../lib/gcc/arm-none-eabi/11.2.1/thumb/v7e-m+fp/hard\libc_nano.a(lib_a-getc.o)
 .debug_line    0x00000f91      0x15b c:/users/luke/desktop/mcha toolchain windows/toolchain/gcc-arm-none-eabi/bin/../lib/gcc/arm-none-eabi/11.2.1/thumb/v7e-m+fp/hard\libc_nano.a(lib_a-impure.o)
 .debug_line    0x000010ec      0x17f c:/users/luke/desktop/mcha toolchain windows/toolchain/gcc-arm-none-eabi/bin/../lib/gcc/arm-none-eabi/11.2.1/thumb/v7e-m+fp/hard\libc_nano.a(lib_a-init.o)
 .debug_line    0x0000126b      0x1fa c:/users/luke/desktop/mcha toolchain windows/toolchain/gcc-arm-none-eabi/bin/../lib/gcc/arm-none-eabi/11.2.1/thumb/v7e-m+fp/hard\libc_nano.a(lib_a-malloc.o)
 .debug_line    0x00001465      0x191 c:/users/luke/desktop/mcha toolchain windows/toolchain/gcc-arm-none-eabi/bin/../lib/gcc/arm-none-eabi/11.2.1/thumb/v7e-m+fp/hard\libc_nano.a(lib_a-memcpy-stub.o)
 .debug_line    0x000015f6      0x176 c:/users/luke/desktop/mcha toolchain windows/toolchain/gcc-arm-none-eabi/bin/../lib/gcc/arm-none-eabi/11.2.1/thumb/v7e-m+fp/hard\libc_nano.a(lib_a-memset.o)
 .debug_line    0x0000176c      0x294 c:/users/luke/desktop/mcha toolchain windows/toolchain/gcc-arm-none-eabi/bin/../lib/gcc/arm-none-eabi/11.2.1/thumb/v7e-m+fp/hard\libc_nano.a(lib_a-mstats.o)
 .debug_line    0x00001a00      0x30e c:/users/luke/desktop/mcha toolchain windows/toolchain/gcc-arm-none-eabi/bin/../lib/gcc/arm-none-eabi/11.2.1/thumb/v7e-m+fp/hard\libc_nano.a(lib_a-nano-freer.o)
 .debug_line    0x00001d0e      0x292 c:/users/luke/desktop/mcha toolchain windows/toolchain/gcc-arm-none-eabi/bin/../lib/gcc/arm-none-eabi/11.2.1/thumb/v7e-m+fp/hard\libc_nano.a(lib_a-nano-mallinfor.o)
 .debug_line    0x00001fa0      0x496 c:/users/luke/desktop/mcha toolchain windows/toolchain/gcc-arm-none-eabi/bin/../lib/gcc/arm-none-eabi/11.2.1/thumb/v7e-m+fp/hard\libc_nano.a(lib_a-nano-mallocr.o)
 .debug_line    0x00002436      0x1db c:/users/luke/desktop/mcha toolchain windows/toolchain/gcc-arm-none-eabi/bin/../lib/gcc/arm-none-eabi/11.2.1/thumb/v7e-m+fp/hard\libc_nano.a(lib_a-nano-malloptr.o)
 .debug_line    0x00002611      0x214 c:/users/luke/desktop/mcha toolchain windows/toolchain/gcc-arm-none-eabi/bin/../lib/gcc/arm-none-eabi/11.2.1/thumb/v7e-m+fp/hard\libc_nano.a(lib_a-nano-mallstatsr.o)
 .debug_line    0x00002825      0x994 c:/users/luke/desktop/mcha toolchain windows/toolchain/gcc-arm-none-eabi/bin/../lib/gcc/arm-none-eabi/11.2.1/thumb/v7e-m+fp/hard\libc_nano.a(lib_a-nano-vfprintf_float.o)
 .debug_line    0x000031b9      0x73f c:/users/luke/desktop/mcha toolchain windows/toolchain/gcc-arm-none-eabi/bin/../lib/gcc/arm-none-eabi/11.2.1/thumb/v7e-m+fp/hard\libc_nano.a(lib_a-nano-vfprintf_i.o)
 .debug_line    0x000038f8      0x6ca c:/users/luke/desktop/mcha toolchain windows/toolchain/gcc-arm-none-eabi/bin/../lib/gcc/arm-none-eabi/11.2.1/thumb/v7e-m+fp/hard\libc_nano.a(lib_a-nano-vfscanf_float.o)
 .debug_line    0x00003fc2      0x2b2 c:/users/luke/desktop/mcha toolchain windows/toolchain/gcc-arm-none-eabi/bin/../lib/gcc/arm-none-eabi/11.2.1/thumb/v7e-m+fp/hard\libc_nano.a(lib_a-printf.o)
 .debug_line    0x00004274      0x319 c:/users/luke/desktop/mcha toolchain windows/toolchain/gcc-arm-none-eabi/bin/../lib/gcc/arm-none-eabi/11.2.1/thumb/v7e-m+fp/hard\libc_nano.a(lib_a-reent.o)
 .debug_line    0x0000458d      0x27c c:/users/luke/desktop/mcha toolchain windows/toolchain/gcc-arm-none-eabi/bin/../lib/gcc/arm-none-eabi/11.2.1/thumb/v7e-m+fp/hard\libc_nano.a(lib_a-rget.o)
 .debug_line    0x00004809      0x214 c:/users/luke/desktop/mcha toolchain windows/toolchain/gcc-arm-none-eabi/bin/../lib/gcc/arm-none-eabi/11.2.1/thumb/v7e-m+fp/hard\libc_nano.a(lib_a-sbrkr.o)
 .debug_line    0x00004a1d      0x3e7 c:/users/luke/desktop/mcha toolchain windows/toolchain/gcc-arm-none-eabi/bin/../lib/gcc/arm-none-eabi/11.2.1/thumb/v7e-m+fp/hard\libc_nano.a(lib_a-setvbuf.o)
 .debug_line    0x00004e04       0xf0 c:/users/luke/desktop/mcha toolchain windows/toolchain/gcc-arm-none-eabi/bin/../lib/gcc/arm-none-eabi/11.2.1/thumb/v7e-m+fp/hard\libc_nano.a(lib_a-sf_nan.o)
 .debug_line    0x00004ef4      0x2a9 c:/users/luke/desktop/mcha toolchain windows/toolchain/gcc-arm-none-eabi/bin/../lib/gcc/arm-none-eabi/11.2.1/thumb/v7e-m+fp/hard\libc_nano.a(lib_a-sprintf.o)
 .debug_line    0x0000519d       0x50 c:/users/luke/desktop/mcha toolchain windows/toolchain/gcc-arm-none-eabi/bin/../lib/gcc/arm-none-eabi/11.2.1/thumb/v7e-m+fp/hard\libc_nano.a(lib_a-strcmp.o)
 .debug_line    0x000051ed       0x4f c:/users/luke/desktop/mcha toolchain windows/toolchain/gcc-arm-none-eabi/bin/../lib/gcc/arm-none-eabi/11.2.1/thumb/v7e-m+fp/hard\libc_nano.a(lib_a-strlen.o)
 .debug_line    0x0000523c     0x1316 c:/users/luke/desktop/mcha toolchain windows/toolchain/gcc-arm-none-eabi/bin/../lib/gcc/arm-none-eabi/11.2.1/thumb/v7e-m+fp/hard\libc_nano.a(lib_a-strtod.o)
 .debug_line    0x00006552      0x470 c:/users/luke/desktop/mcha toolchain windows/toolchain/gcc-arm-none-eabi/bin/../lib/gcc/arm-none-eabi/11.2.1/thumb/v7e-m+fp/hard\libc_nano.a(lib_a-strtol.o)
 .debug_line    0x000069c2      0x295 c:/users/luke/desktop/mcha toolchain windows/toolchain/gcc-arm-none-eabi/bin/../lib/gcc/arm-none-eabi/11.2.1/thumb/v7e-m+fp/hard\libc_nano.a(lib_a-vprintf.o)
 .debug_line    0x00006c57     0x1302 c:/users/luke/desktop/mcha toolchain windows/toolchain/gcc-arm-none-eabi/bin/../lib/gcc/arm-none-eabi/11.2.1/thumb/v7e-m+fp/hard\libc_nano.a(lib_a-dtoa.o)
 .debug_line    0x00007f59      0x17d c:/users/luke/desktop/mcha toolchain windows/toolchain/gcc-arm-none-eabi/bin/../lib/gcc/arm-none-eabi/11.2.1/thumb/v7e-m+fp/hard\libc_nano.a(lib_a-errno.o)
 .debug_line    0x000080d6      0x47e c:/users/luke/desktop/mcha toolchain windows/toolchain/gcc-arm-none-eabi/bin/../lib/gcc/arm-none-eabi/11.2.1/thumb/v7e-m+fp/hard\libc_nano.a(lib_a-fflush.o)
 .debug_line    0x00008554      0x518 c:/users/luke/desktop/mcha toolchain windows/toolchain/gcc-arm-none-eabi/bin/../lib/gcc/arm-none-eabi/11.2.1/thumb/v7e-m+fp/hard\libc_nano.a(lib_a-findfp.o)
 .debug_line    0x00008a6c      0x237 c:/users/luke/desktop/mcha toolchain windows/toolchain/gcc-arm-none-eabi/bin/../lib/gcc/arm-none-eabi/11.2.1/thumb/v7e-m+fp/hard\libc_nano.a(lib_a-fprintf.o)
 .debug_line    0x00008ca3      0x2cc c:/users/luke/desktop/mcha toolchain windows/toolchain/gcc-arm-none-eabi/bin/../lib/gcc/arm-none-eabi/11.2.1/thumb/v7e-m+fp/hard\libc_nano.a(lib_a-fwalk.o)
 .debug_line    0x00008f6f      0x9c9 c:/users/luke/desktop/mcha toolchain windows/toolchain/gcc-arm-none-eabi/bin/../lib/gcc/arm-none-eabi/11.2.1/thumb/v7e-m+fp/hard\libc_nano.a(lib_a-gdtoa-gethex.o)
 .debug_line    0x00009938      0x3b7 c:/users/luke/desktop/mcha toolchain windows/toolchain/gcc-arm-none-eabi/bin/../lib/gcc/arm-none-eabi/11.2.1/thumb/v7e-m+fp/hard\libc_nano.a(lib_a-gdtoa-hexnan.o)
 .debug_line    0x00009cef      0x1f5 c:/users/luke/desktop/mcha toolchain windows/toolchain/gcc-arm-none-eabi/bin/../lib/gcc/arm-none-eabi/11.2.1/thumb/v7e-m+fp/hard\libc_nano.a(lib_a-lnumeric.o)
 .debug_line    0x00009ee4      0x225 c:/users/luke/desktop/mcha toolchain windows/toolchain/gcc-arm-none-eabi/bin/../lib/gcc/arm-none-eabi/11.2.1/thumb/v7e-m+fp/hard\libc_nano.a(lib_a-localeconv.o)
 .debug_line    0x0000a109      0x2f4 c:/users/luke/desktop/mcha toolchain windows/toolchain/gcc-arm-none-eabi/bin/../lib/gcc/arm-none-eabi/11.2.1/thumb/v7e-m+fp/hard\libc_nano.a(lib_a-locale.o)
 .debug_line    0x0000a3fd      0x3c3 c:/users/luke/desktop/mcha toolchain windows/toolchain/gcc-arm-none-eabi/bin/../lib/gcc/arm-none-eabi/11.2.1/thumb/v7e-m+fp/hard\libc_nano.a(lib_a-makebuf.o)
 .debug_line    0x0000a7c0      0x2b2 c:/users/luke/desktop/mcha toolchain windows/toolchain/gcc-arm-none-eabi/bin/../lib/gcc/arm-none-eabi/11.2.1/thumb/v7e-m+fp/hard\libc_nano.a(lib_a-mbtowc_r.o)
 .debug_line    0x0000aa72       0x82 c:/users/luke/desktop/mcha toolchain windows/toolchain/gcc-arm-none-eabi/bin/../lib/gcc/arm-none-eabi/11.2.1/thumb/v7e-m+fp/hard\libc_nano.a(lib_a-memchr.o)
 .debug_line    0x0000aaf4     0x152c c:/users/luke/desktop/mcha toolchain windows/toolchain/gcc-arm-none-eabi/bin/../lib/gcc/arm-none-eabi/11.2.1/thumb/v7e-m+fp/hard\libc_nano.a(lib_a-mprec.o)
 .debug_line    0x0000c020      0x220 c:/users/luke/desktop/mcha toolchain windows/toolchain/gcc-arm-none-eabi/bin/../lib/gcc/arm-none-eabi/11.2.1/thumb/v7e-m+fp/hard\libc_nano.a(lib_a-nano-callocr.o)
 .debug_line    0x0000c240      0x864 c:/users/luke/desktop/mcha toolchain windows/toolchain/gcc-arm-none-eabi/bin/../lib/gcc/arm-none-eabi/11.2.1/thumb/v7e-m+fp/hard\libc_nano.a(lib_a-nano-svfprintf.o)
 .debug_line    0x0000caa4      0x6e1 c:/users/luke/desktop/mcha toolchain windows/toolchain/gcc-arm-none-eabi/bin/../lib/gcc/arm-none-eabi/11.2.1/thumb/v7e-m+fp/hard\libc_nano.a(lib_a-nano-vfprintf.o)
 .debug_line    0x0000d185      0x3e1 c:/users/luke/desktop/mcha toolchain windows/toolchain/gcc-arm-none-eabi/bin/../lib/gcc/arm-none-eabi/11.2.1/thumb/v7e-m+fp/hard\libc_nano.a(lib_a-refill.o)
 .debug_line    0x0000d566       0xf1 c:/users/luke/desktop/mcha toolchain windows/toolchain/gcc-arm-none-eabi/bin/../lib/gcc/arm-none-eabi/11.2.1/thumb/v7e-m+fp/hard\libc_nano.a(lib_a-s_nan.o)
 .debug_line    0x0000d657      0x2ed c:/users/luke/desktop/mcha toolchain windows/toolchain/gcc-arm-none-eabi/bin/../lib/gcc/arm-none-eabi/11.2.1/thumb/v7e-m+fp/hard\libc_nano.a(lib_a-stdio.o)
 .debug_line    0x0000d944      0x190 c:/users/luke/desktop/mcha toolchain windows/toolchain/gcc-arm-none-eabi/bin/../lib/gcc/arm-none-eabi/11.2.1/thumb/v7e-m+fp/hard\libc_nano.a(lib_a-strncmp.o)
 .debug_line    0x0000dad4      0x2f7 c:/users/luke/desktop/mcha toolchain windows/toolchain/gcc-arm-none-eabi/bin/../lib/gcc/arm-none-eabi/11.2.1/thumb/v7e-m+fp/hard\libc_nano.a(lib_a-wbuf.o)
 .debug_line    0x0000ddcb      0x2ab c:/users/luke/desktop/mcha toolchain windows/toolchain/gcc-arm-none-eabi/bin/../lib/gcc/arm-none-eabi/11.2.1/thumb/v7e-m+fp/hard\libc_nano.a(lib_a-wctomb_r.o)
 .debug_line    0x0000e076      0x213 c:/users/luke/desktop/mcha toolchain windows/toolchain/gcc-arm-none-eabi/bin/../lib/gcc/arm-none-eabi/11.2.1/thumb/v7e-m+fp/hard\libc_nano.a(lib_a-writer.o)
 .debug_line    0x0000e289      0x33b c:/users/luke/desktop/mcha toolchain windows/toolchain/gcc-arm-none-eabi/bin/../lib/gcc/arm-none-eabi/11.2.1/thumb/v7e-m+fp/hard\libc_nano.a(lib_a-wsetup.o)
 .debug_line    0x0000e5c4      0x228 c:/users/luke/desktop/mcha toolchain windows/toolchain/gcc-arm-none-eabi/bin/../lib/gcc/arm-none-eabi/11.2.1/thumb/v7e-m+fp/hard\libc_nano.a(lib_a-assert.o)
 .debug_line    0x0000e7ec      0x214 c:/users/luke/desktop/mcha toolchain windows/toolchain/gcc-arm-none-eabi/bin/../lib/gcc/arm-none-eabi/11.2.1/thumb/v7e-m+fp/hard\libc_nano.a(lib_a-closer.o)
 .debug_line    0x0000ea00      0x2a9 c:/users/luke/desktop/mcha toolchain windows/toolchain/gcc-arm-none-eabi/bin/../lib/gcc/arm-none-eabi/11.2.1/thumb/v7e-m+fp/hard\libc_nano.a(lib_a-fstatr.o)
 .debug_line    0x0000eca9      0x601 c:/users/luke/desktop/mcha toolchain windows/toolchain/gcc-arm-none-eabi/bin/../lib/gcc/arm-none-eabi/11.2.1/thumb/v7e-m+fp/hard\libc_nano.a(lib_a-fvwrite.o)
 .debug_line    0x0000f2aa      0x215 c:/users/luke/desktop/mcha toolchain windows/toolchain/gcc-arm-none-eabi/bin/../lib/gcc/arm-none-eabi/11.2.1/thumb/v7e-m+fp/hard\libc_nano.a(lib_a-isattyr.o)
 .debug_line    0x0000f4bf      0x213 c:/users/luke/desktop/mcha toolchain windows/toolchain/gcc-arm-none-eabi/bin/../lib/gcc/arm-none-eabi/11.2.1/thumb/v7e-m+fp/hard\libc_nano.a(lib_a-lseekr.o)
 .debug_line    0x0000f6d2      0x1b4 c:/users/luke/desktop/mcha toolchain windows/toolchain/gcc-arm-none-eabi/bin/../lib/gcc/arm-none-eabi/11.2.1/thumb/v7e-m+fp/hard\libc_nano.a(lib_a-memmove.o)
 .debug_line    0x0000f886      0x25d c:/users/luke/desktop/mcha toolchain windows/toolchain/gcc-arm-none-eabi/bin/../lib/gcc/arm-none-eabi/11.2.1/thumb/v7e-m+fp/hard\libc_nano.a(lib_a-nano-reallocr.o)
 .debug_line    0x0000fae3      0x212 c:/users/luke/desktop/mcha toolchain windows/toolchain/gcc-arm-none-eabi/bin/../lib/gcc/arm-none-eabi/11.2.1/thumb/v7e-m+fp/hard\libc_nano.a(lib_a-readr.o)
 .debug_line    0x0000fcf5      0x16a c:/users/luke/desktop/mcha toolchain windows/toolchain/gcc-arm-none-eabi/bin/../lib/gcc/arm-none-eabi/11.2.1/thumb/v7e-m+fp/hard\libc_nano.a(lib_a-abort.o)
 .debug_line    0x0000fe5f      0x1f0 c:/users/luke/desktop/mcha toolchain windows/toolchain/gcc-arm-none-eabi/bin/../lib/gcc/arm-none-eabi/11.2.1/thumb/v7e-m+fp/hard\libc_nano.a(lib_a-nano-msizer.o)
 .debug_line    0x0001004f      0x439 c:/users/luke/desktop/mcha toolchain windows/toolchain/gcc-arm-none-eabi/bin/../lib/gcc/arm-none-eabi/11.2.1/thumb/v7e-m+fp/hard\libc_nano.a(lib_a-signal.o)
 .debug_line    0x00010488      0x245 c:/users/luke/desktop/mcha toolchain windows/toolchain/gcc-arm-none-eabi/bin/../lib/gcc/arm-none-eabi/11.2.1/thumb/v7e-m+fp/hard\libc_nano.a(lib_a-signalr.o)
 .debug_line    0x000106cd       0xf5 c:/users/luke/desktop/mcha toolchain windows/toolchain/gcc-arm-none-eabi/bin/../lib/gcc/arm-none-eabi/11.2.1/thumb/v7e-m+fp/hard\libgcc.a(_arm_muldf3.o)
 .debug_line    0x000107c2      0x16f c:/users/luke/desktop/mcha toolchain windows/toolchain/gcc-arm-none-eabi/bin/../lib/gcc/arm-none-eabi/11.2.1/thumb/v7e-m+fp/hard\libgcc.a(_arm_addsubdf3.o)
 .debug_line    0x00010931      0x184 c:/users/luke/desktop/mcha toolchain windows/toolchain/gcc-arm-none-eabi/bin/../lib/gcc/arm-none-eabi/11.2.1/thumb/v7e-m+fp/hard\libgcc.a(_arm_muldivdf3.o)
 .debug_line    0x00010ab5       0xa6 c:/users/luke/desktop/mcha toolchain windows/toolchain/gcc-arm-none-eabi/bin/../lib/gcc/arm-none-eabi/11.2.1/thumb/v7e-m+fp/hard\libgcc.a(_arm_cmpdf2.o)
 .debug_line    0x00010b5b       0x57 c:/users/luke/desktop/mcha toolchain windows/toolchain/gcc-arm-none-eabi/bin/../lib/gcc/arm-none-eabi/11.2.1/thumb/v7e-m+fp/hard\libgcc.a(_arm_unorddf2.o)
 .debug_line    0x00010bb2       0x62 c:/users/luke/desktop/mcha toolchain windows/toolchain/gcc-arm-none-eabi/bin/../lib/gcc/arm-none-eabi/11.2.1/thumb/v7e-m+fp/hard\libgcc.a(_arm_fixdfsi.o)
 .debug_line    0x00010c14       0x5e c:/users/luke/desktop/mcha toolchain windows/toolchain/gcc-arm-none-eabi/bin/../lib/gcc/arm-none-eabi/11.2.1/thumb/v7e-m+fp/hard\libgcc.a(_arm_fixunsdfsi.o)
 .debug_line    0x00010c72       0x76 c:/users/luke/desktop/mcha toolchain windows/toolchain/gcc-arm-none-eabi/bin/../lib/gcc/arm-none-eabi/11.2.1/thumb/v7e-m+fp/hard\libgcc.a(_arm_truncdfsf2.o)
 .debug_line    0x00010ce8       0xd4 c:/users/luke/desktop/mcha toolchain windows/toolchain/gcc-arm-none-eabi/bin/../lib/gcc/arm-none-eabi/11.2.1/thumb/v7e-m+fp/hard\libgcc.a(_fixdfdi.o)
 .debug_line    0x00010dbc       0xd0 c:/users/luke/desktop/mcha toolchain windows/toolchain/gcc-arm-none-eabi/bin/../lib/gcc/arm-none-eabi/11.2.1/thumb/v7e-m+fp/hard\libgcc.a(_fixunsdfdi.o)
 .debug_line    0x00010e8c       0x9a c:/users/luke/desktop/mcha toolchain windows/toolchain/gcc-arm-none-eabi/bin/../lib/gcc/arm-none-eabi/11.2.1/thumb/v7e-m+fp/hard\libnosys.a(close.o)
 .debug_line    0x00010f26      0x19e c:/users/luke/desktop/mcha toolchain windows/toolchain/gcc-arm-none-eabi/bin/../lib/gcc/arm-none-eabi/11.2.1/thumb/v7e-m+fp/hard\libnosys.a(fstat.o)
 .debug_line    0x000110c4       0x9a c:/users/luke/desktop/mcha toolchain windows/toolchain/gcc-arm-none-eabi/bin/../lib/gcc/arm-none-eabi/11.2.1/thumb/v7e-m+fp/hard\libnosys.a(getpid.o)
 .debug_line    0x0001115e       0x9b c:/users/luke/desktop/mcha toolchain windows/toolchain/gcc-arm-none-eabi/bin/../lib/gcc/arm-none-eabi/11.2.1/thumb/v7e-m+fp/hard\libnosys.a(isatty.o)
 .debug_line    0x000111f9       0x99 c:/users/luke/desktop/mcha toolchain windows/toolchain/gcc-arm-none-eabi/bin/../lib/gcc/arm-none-eabi/11.2.1/thumb/v7e-m+fp/hard\libnosys.a(kill.o)
 .debug_line    0x00011292       0x9b c:/users/luke/desktop/mcha toolchain windows/toolchain/gcc-arm-none-eabi/bin/../lib/gcc/arm-none-eabi/11.2.1/thumb/v7e-m+fp/hard\libnosys.a(lseek.o)
 .debug_line    0x0001132d       0x96 c:/users/luke/desktop/mcha toolchain windows/toolchain/gcc-arm-none-eabi/bin/../lib/gcc/arm-none-eabi/11.2.1/thumb/v7e-m+fp/hard\libnosys.a(_exit.o)

.debug_line_str
                0x00000000      0x140
 .debug_line_str
                0x00000000       0x53 c:/users/luke/desktop/mcha toolchain windows/toolchain/gcc-arm-none-eabi/bin/../lib/gcc/arm-none-eabi/11.2.1/thumb/v7e-m+fp/hard/crt0.o
                                 0xa6 (size before relaxing)
 .debug_line_str
                0x00000053       0x4f c:/users/luke/desktop/mcha toolchain windows/toolchain/gcc-arm-none-eabi/bin/../lib/gcc/arm-none-eabi/11.2.1/thumb/v7e-m+fp/hard\libgcc.a(_aeabi_ldivmod.o)
                                 0x9e (size before relaxing)
 .debug_line_str
                0x000000a2       0x9e c:/users/luke/desktop/mcha toolchain windows/toolchain/gcc-arm-none-eabi/bin/../lib/gcc/arm-none-eabi/11.2.1/thumb/v7e-m+fp/hard\libgcc.a(_aeabi_uldivmod.o)
 .debug_line_str
                0x000000a2        0xc c:/users/luke/desktop/mcha toolchain windows/toolchain/gcc-arm-none-eabi/bin/../lib/gcc/arm-none-eabi/11.2.1/thumb/v7e-m+fp/hard\libgcc.a(_dvmd_tls.o)
                                 0xa6 (size before relaxing)
 .debug_line_str
                0x000000ae       0x69 c:/users/luke/desktop/mcha toolchain windows/toolchain/gcc-arm-none-eabi/bin/../lib/gcc/arm-none-eabi/11.2.1/thumb/v7e-m+fp/hard\libc_nano.a(lib_a-strcmp.o)
                                 0xd2 (size before relaxing)
 .debug_line_str
                0x00000117       0x13 c:/users/luke/desktop/mcha toolchain windows/toolchain/gcc-arm-none-eabi/bin/../lib/gcc/arm-none-eabi/11.2.1/thumb/v7e-m+fp/hard\libc_nano.a(lib_a-strlen.o)
                                 0xd4 (size before relaxing)
 .debug_line_str
                0x0000012a        0x9 c:/users/luke/desktop/mcha toolchain windows/toolchain/gcc-arm-none-eabi/bin/../lib/gcc/arm-none-eabi/11.2.1/thumb/v7e-m+fp/hard\libc_nano.a(lib_a-memchr.o)
                                 0xc0 (size before relaxing)
 .debug_line_str
                0x00000133        0xd c:/users/luke/desktop/mcha toolchain windows/toolchain/gcc-arm-none-eabi/bin/../lib/gcc/arm-none-eabi/11.2.1/thumb/v7e-m+fp/hard\libgcc.a(_arm_muldf3.o)
                                 0xa8 (size before relaxing)
 .debug_line_str
                0x00000140       0xa8 c:/users/luke/desktop/mcha toolchain windows/toolchain/gcc-arm-none-eabi/bin/../lib/gcc/arm-none-eabi/11.2.1/thumb/v7e-m+fp/hard\libgcc.a(_arm_addsubdf3.o)
 .debug_line_str
                0x00000140       0xa8 c:/users/luke/desktop/mcha toolchain windows/toolchain/gcc-arm-none-eabi/bin/../lib/gcc/arm-none-eabi/11.2.1/thumb/v7e-m+fp/hard\libgcc.a(_arm_muldivdf3.o)
 .debug_line_str
                0x00000140       0xa8 c:/users/luke/desktop/mcha toolchain windows/toolchain/gcc-arm-none-eabi/bin/../lib/gcc/arm-none-eabi/11.2.1/thumb/v7e-m+fp/hard\libgcc.a(_arm_cmpdf2.o)
 .debug_line_str
                0x00000140       0xa8 c:/users/luke/desktop/mcha toolchain windows/toolchain/gcc-arm-none-eabi/bin/../lib/gcc/arm-none-eabi/11.2.1/thumb/v7e-m+fp/hard\libgcc.a(_arm_unorddf2.o)
 .debug_line_str
                0x00000140       0xa8 c:/users/luke/desktop/mcha toolchain windows/toolchain/gcc-arm-none-eabi/bin/../lib/gcc/arm-none-eabi/11.2.1/thumb/v7e-m+fp/hard\libgcc.a(_arm_fixdfsi.o)
 .debug_line_str
                0x00000140       0xa8 c:/users/luke/desktop/mcha toolchain windows/toolchain/gcc-arm-none-eabi/bin/../lib/gcc/arm-none-eabi/11.2.1/thumb/v7e-m+fp/hard\libgcc.a(_arm_fixunsdfsi.o)
 .debug_line_str
                0x00000140       0xa8 c:/users/luke/desktop/mcha toolchain windows/toolchain/gcc-arm-none-eabi/bin/../lib/gcc/arm-none-eabi/11.2.1/thumb/v7e-m+fp/hard\libgcc.a(_arm_truncdfsf2.o)

.debug_info     0x00000000    0x28f4b
 .debug_info    0x00000000       0x24 c:/users/luke/desktop/mcha toolchain windows/toolchain/gcc-arm-none-eabi/bin/../lib/gcc/arm-none-eabi/11.2.1/thumb/v7e-m+fp/hard/crt0.o
 .debug_info    0x00000024       0x25 c:/users/luke/desktop/mcha toolchain windows/toolchain/gcc-arm-none-eabi/bin/../lib/gcc/arm-none-eabi/11.2.1/thumb/v7e-m+fp/hard\libgcc.a(_aeabi_ldivmod.o)
 .debug_info    0x00000049       0x24 c:/users/luke/desktop/mcha toolchain windows/toolchain/gcc-arm-none-eabi/bin/../lib/gcc/arm-none-eabi/11.2.1/thumb/v7e-m+fp/hard\libgcc.a(_aeabi_uldivmod.o)
 .debug_info    0x0000006d      0x6e3 c:/users/luke/desktop/mcha toolchain windows/toolchain/gcc-arm-none-eabi/bin/../lib/gcc/arm-none-eabi/11.2.1/thumb/v7e-m+fp/hard\libgcc.a(_udivmoddi4.o)
 .debug_info    0x00000750       0x24 c:/users/luke/desktop/mcha toolchain windows/toolchain/gcc-arm-none-eabi/bin/../lib/gcc/arm-none-eabi/11.2.1/thumb/v7e-m+fp/hard\libgcc.a(_dvmd_tls.o)
 .debug_info    0x00000774       0xb9 c:/users/luke/desktop/mcha toolchain windows/toolchain/gcc-arm-none-eabi/bin/../lib/gcc/arm-none-eabi/11.2.1/thumb/v7e-m+fp/hard\libc_nano.a(lib_a-ctype_.o)
 .debug_info    0x0000082d      0x7cb c:/users/luke/desktop/mcha toolchain windows/toolchain/gcc-arm-none-eabi/bin/../lib/gcc/arm-none-eabi/11.2.1/thumb/v7e-m+fp/hard\libc_nano.a(lib_a-exit.o)
 .debug_info    0x00000ff8      0x812 c:/users/luke/desktop/mcha toolchain windows/toolchain/gcc-arm-none-eabi/bin/../lib/gcc/arm-none-eabi/11.2.1/thumb/v7e-m+fp/hard\libc_nano.a(lib_a-getchar.o)
 .debug_info    0x0000180a      0x921 c:/users/luke/desktop/mcha toolchain windows/toolchain/gcc-arm-none-eabi/bin/../lib/gcc/arm-none-eabi/11.2.1/thumb/v7e-m+fp/hard\libc_nano.a(lib_a-getc.o)
 .debug_info    0x0000212b      0x7fc c:/users/luke/desktop/mcha toolchain windows/toolchain/gcc-arm-none-eabi/bin/../lib/gcc/arm-none-eabi/11.2.1/thumb/v7e-m+fp/hard\libc_nano.a(lib_a-impure.o)
 .debug_info    0x00002927      0x10b c:/users/luke/desktop/mcha toolchain windows/toolchain/gcc-arm-none-eabi/bin/../lib/gcc/arm-none-eabi/11.2.1/thumb/v7e-m+fp/hard\libc_nano.a(lib_a-init.o)
 .debug_info    0x00002a32      0x7ea c:/users/luke/desktop/mcha toolchain windows/toolchain/gcc-arm-none-eabi/bin/../lib/gcc/arm-none-eabi/11.2.1/thumb/v7e-m+fp/hard\libc_nano.a(lib_a-malloc.o)
 .debug_info    0x0000321c      0x121 c:/users/luke/desktop/mcha toolchain windows/toolchain/gcc-arm-none-eabi/bin/../lib/gcc/arm-none-eabi/11.2.1/thumb/v7e-m+fp/hard\libc_nano.a(lib_a-memcpy-stub.o)
 .debug_info    0x0000333d       0xe0 c:/users/luke/desktop/mcha toolchain windows/toolchain/gcc-arm-none-eabi/bin/../lib/gcc/arm-none-eabi/11.2.1/thumb/v7e-m+fp/hard\libc_nano.a(lib_a-memset.o)
 .debug_info    0x0000341d      0x9a1 c:/users/luke/desktop/mcha toolchain windows/toolchain/gcc-arm-none-eabi/bin/../lib/gcc/arm-none-eabi/11.2.1/thumb/v7e-m+fp/hard\libc_nano.a(lib_a-mstats.o)
 .debug_info    0x00003dbe      0x89c c:/users/luke/desktop/mcha toolchain windows/toolchain/gcc-arm-none-eabi/bin/../lib/gcc/arm-none-eabi/11.2.1/thumb/v7e-m+fp/hard\libc_nano.a(lib_a-nano-freer.o)
 .debug_info    0x0000465a      0x937 c:/users/luke/desktop/mcha toolchain windows/toolchain/gcc-arm-none-eabi/bin/../lib/gcc/arm-none-eabi/11.2.1/thumb/v7e-m+fp/hard\libc_nano.a(lib_a-nano-mallinfor.o)
 .debug_info    0x00004f91      0xa12 c:/users/luke/desktop/mcha toolchain windows/toolchain/gcc-arm-none-eabi/bin/../lib/gcc/arm-none-eabi/11.2.1/thumb/v7e-m+fp/hard\libc_nano.a(lib_a-nano-mallocr.o)
 .debug_info    0x000059a3      0x76d c:/users/luke/desktop/mcha toolchain windows/toolchain/gcc-arm-none-eabi/bin/../lib/gcc/arm-none-eabi/11.2.1/thumb/v7e-m+fp/hard\libc_nano.a(lib_a-nano-malloptr.o)
 .debug_info    0x00006110      0x8a9 c:/users/luke/desktop/mcha toolchain windows/toolchain/gcc-arm-none-eabi/bin/../lib/gcc/arm-none-eabi/11.2.1/thumb/v7e-m+fp/hard\libc_nano.a(lib_a-nano-mallstatsr.o)
 .debug_info    0x000069b9     0x1335 c:/users/luke/desktop/mcha toolchain windows/toolchain/gcc-arm-none-eabi/bin/../lib/gcc/arm-none-eabi/11.2.1/thumb/v7e-m+fp/hard\libc_nano.a(lib_a-nano-vfprintf_float.o)
 .debug_info    0x00007cee      0xe38 c:/users/luke/desktop/mcha toolchain windows/toolchain/gcc-arm-none-eabi/bin/../lib/gcc/arm-none-eabi/11.2.1/thumb/v7e-m+fp/hard\libc_nano.a(lib_a-nano-vfprintf_i.o)
 .debug_info    0x00008b26      0xe1c c:/users/luke/desktop/mcha toolchain windows/toolchain/gcc-arm-none-eabi/bin/../lib/gcc/arm-none-eabi/11.2.1/thumb/v7e-m+fp/hard\libc_nano.a(lib_a-nano-vfscanf_float.o)
 .debug_info    0x00009942      0x8d0 c:/users/luke/desktop/mcha toolchain windows/toolchain/gcc-arm-none-eabi/bin/../lib/gcc/arm-none-eabi/11.2.1/thumb/v7e-m+fp/hard\libc_nano.a(lib_a-printf.o)
 .debug_info    0x0000a212      0x92c c:/users/luke/desktop/mcha toolchain windows/toolchain/gcc-arm-none-eabi/bin/../lib/gcc/arm-none-eabi/11.2.1/thumb/v7e-m+fp/hard\libc_nano.a(lib_a-reent.o)
 .debug_info    0x0000ab3e      0x8c8 c:/users/luke/desktop/mcha toolchain windows/toolchain/gcc-arm-none-eabi/bin/../lib/gcc/arm-none-eabi/11.2.1/thumb/v7e-m+fp/hard\libc_nano.a(lib_a-rget.o)
 .debug_info    0x0000b406      0x7d2 c:/users/luke/desktop/mcha toolchain windows/toolchain/gcc-arm-none-eabi/bin/../lib/gcc/arm-none-eabi/11.2.1/thumb/v7e-m+fp/hard\libc_nano.a(lib_a-sbrkr.o)
 .debug_info    0x0000bbd8      0x9f1 c:/users/luke/desktop/mcha toolchain windows/toolchain/gcc-arm-none-eabi/bin/../lib/gcc/arm-none-eabi/11.2.1/thumb/v7e-m+fp/hard\libc_nano.a(lib_a-setvbuf.o)
 .debug_info    0x0000c5c9       0xc9 c:/users/luke/desktop/mcha toolchain windows/toolchain/gcc-arm-none-eabi/bin/../lib/gcc/arm-none-eabi/11.2.1/thumb/v7e-m+fp/hard\libc_nano.a(lib_a-sf_nan.o)
 .debug_info    0x0000c692      0x8d5 c:/users/luke/desktop/mcha toolchain windows/toolchain/gcc-arm-none-eabi/bin/../lib/gcc/arm-none-eabi/11.2.1/thumb/v7e-m+fp/hard\libc_nano.a(lib_a-sprintf.o)
 .debug_info    0x0000cf67       0x24 c:/users/luke/desktop/mcha toolchain windows/toolchain/gcc-arm-none-eabi/bin/../lib/gcc/arm-none-eabi/11.2.1/thumb/v7e-m+fp/hard\libc_nano.a(lib_a-strcmp.o)
 .debug_info    0x0000cf8b       0x24 c:/users/luke/desktop/mcha toolchain windows/toolchain/gcc-arm-none-eabi/bin/../lib/gcc/arm-none-eabi/11.2.1/thumb/v7e-m+fp/hard\libc_nano.a(lib_a-strlen.o)
 .debug_info    0x0000cfaf     0x1dad c:/users/luke/desktop/mcha toolchain windows/toolchain/gcc-arm-none-eabi/bin/../lib/gcc/arm-none-eabi/11.2.1/thumb/v7e-m+fp/hard\libc_nano.a(lib_a-strtod.o)
 .debug_info    0x0000ed5c      0xd93 c:/users/luke/desktop/mcha toolchain windows/toolchain/gcc-arm-none-eabi/bin/../lib/gcc/arm-none-eabi/11.2.1/thumb/v7e-m+fp/hard\libc_nano.a(lib_a-strtol.o)
 .debug_info    0x0000faef      0x8a5 c:/users/luke/desktop/mcha toolchain windows/toolchain/gcc-arm-none-eabi/bin/../lib/gcc/arm-none-eabi/11.2.1/thumb/v7e-m+fp/hard\libc_nano.a(lib_a-vprintf.o)
 .debug_info    0x00010394     0x1823 c:/users/luke/desktop/mcha toolchain windows/toolchain/gcc-arm-none-eabi/bin/../lib/gcc/arm-none-eabi/11.2.1/thumb/v7e-m+fp/hard\libc_nano.a(lib_a-dtoa.o)
 .debug_info    0x00011bb7      0x751 c:/users/luke/desktop/mcha toolchain windows/toolchain/gcc-arm-none-eabi/bin/../lib/gcc/arm-none-eabi/11.2.1/thumb/v7e-m+fp/hard\libc_nano.a(lib_a-errno.o)
 .debug_info    0x00012308      0xa4e c:/users/luke/desktop/mcha toolchain windows/toolchain/gcc-arm-none-eabi/bin/../lib/gcc/arm-none-eabi/11.2.1/thumb/v7e-m+fp/hard\libc_nano.a(lib_a-fflush.o)
 .debug_info    0x00012d56      0xebd c:/users/luke/desktop/mcha toolchain windows/toolchain/gcc-arm-none-eabi/bin/../lib/gcc/arm-none-eabi/11.2.1/thumb/v7e-m+fp/hard\libc_nano.a(lib_a-findfp.o)
 .debug_info    0x00013c13      0x8ab c:/users/luke/desktop/mcha toolchain windows/toolchain/gcc-arm-none-eabi/bin/../lib/gcc/arm-none-eabi/11.2.1/thumb/v7e-m+fp/hard\libc_nano.a(lib_a-fprintf.o)
 .debug_info    0x000144be      0x88f c:/users/luke/desktop/mcha toolchain windows/toolchain/gcc-arm-none-eabi/bin/../lib/gcc/arm-none-eabi/11.2.1/thumb/v7e-m+fp/hard\libc_nano.a(lib_a-fwalk.o)
 .debug_info    0x00014d4d     0x12b4 c:/users/luke/desktop/mcha toolchain windows/toolchain/gcc-arm-none-eabi/bin/../lib/gcc/arm-none-eabi/11.2.1/thumb/v7e-m+fp/hard\libc_nano.a(lib_a-gdtoa-gethex.o)
 .debug_info    0x00016001      0x39d c:/users/luke/desktop/mcha toolchain windows/toolchain/gcc-arm-none-eabi/bin/../lib/gcc/arm-none-eabi/11.2.1/thumb/v7e-m+fp/hard\libc_nano.a(lib_a-gdtoa-hexnan.o)
 .debug_info    0x0001639e      0xa77 c:/users/luke/desktop/mcha toolchain windows/toolchain/gcc-arm-none-eabi/bin/../lib/gcc/arm-none-eabi/11.2.1/thumb/v7e-m+fp/hard\libc_nano.a(lib_a-lnumeric.o)
 .debug_info    0x00016e15      0xa6e c:/users/luke/desktop/mcha toolchain windows/toolchain/gcc-arm-none-eabi/bin/../lib/gcc/arm-none-eabi/11.2.1/thumb/v7e-m+fp/hard\libc_nano.a(lib_a-localeconv.o)
 .debug_info    0x00017883      0xbe9 c:/users/luke/desktop/mcha toolchain windows/toolchain/gcc-arm-none-eabi/bin/../lib/gcc/arm-none-eabi/11.2.1/thumb/v7e-m+fp/hard\libc_nano.a(lib_a-locale.o)
 .debug_info    0x0001846c      0xb81 c:/users/luke/desktop/mcha toolchain windows/toolchain/gcc-arm-none-eabi/bin/../lib/gcc/arm-none-eabi/11.2.1/thumb/v7e-m+fp/hard\libc_nano.a(lib_a-makebuf.o)
 .debug_info    0x00018fed      0xaf8 c:/users/luke/desktop/mcha toolchain windows/toolchain/gcc-arm-none-eabi/bin/../lib/gcc/arm-none-eabi/11.2.1/thumb/v7e-m+fp/hard\libc_nano.a(lib_a-mbtowc_r.o)
 .debug_info    0x00019ae5       0x25 c:/users/luke/desktop/mcha toolchain windows/toolchain/gcc-arm-none-eabi/bin/../lib/gcc/arm-none-eabi/11.2.1/thumb/v7e-m+fp/hard\libc_nano.a(lib_a-memchr.o)
 .debug_info    0x00019b0a     0x1dc1 c:/users/luke/desktop/mcha toolchain windows/toolchain/gcc-arm-none-eabi/bin/../lib/gcc/arm-none-eabi/11.2.1/thumb/v7e-m+fp/hard\libc_nano.a(lib_a-mprec.o)
 .debug_info    0x0001b8cb      0x818 c:/users/luke/desktop/mcha toolchain windows/toolchain/gcc-arm-none-eabi/bin/../lib/gcc/arm-none-eabi/11.2.1/thumb/v7e-m+fp/hard\libc_nano.a(lib_a-nano-callocr.o)
 .debug_info    0x0001c0e3     0x111a c:/users/luke/desktop/mcha toolchain windows/toolchain/gcc-arm-none-eabi/bin/../lib/gcc/arm-none-eabi/11.2.1/thumb/v7e-m+fp/hard\libc_nano.a(lib_a-nano-svfprintf.o)
 .debug_info    0x0001d1fd     0x112d c:/users/luke/desktop/mcha toolchain windows/toolchain/gcc-arm-none-eabi/bin/../lib/gcc/arm-none-eabi/11.2.1/thumb/v7e-m+fp/hard\libc_nano.a(lib_a-nano-vfprintf.o)
 .debug_info    0x0001e32a      0x9e8 c:/users/luke/desktop/mcha toolchain windows/toolchain/gcc-arm-none-eabi/bin/../lib/gcc/arm-none-eabi/11.2.1/thumb/v7e-m+fp/hard\libc_nano.a(lib_a-refill.o)
 .debug_info    0x0001ed12       0xcd c:/users/luke/desktop/mcha toolchain windows/toolchain/gcc-arm-none-eabi/bin/../lib/gcc/arm-none-eabi/11.2.1/thumb/v7e-m+fp/hard\libc_nano.a(lib_a-s_nan.o)
 .debug_info    0x0001eddf      0xaaa c:/users/luke/desktop/mcha toolchain windows/toolchain/gcc-arm-none-eabi/bin/../lib/gcc/arm-none-eabi/11.2.1/thumb/v7e-m+fp/hard\libc_nano.a(lib_a-stdio.o)
 .debug_info    0x0001f889       0xde c:/users/luke/desktop/mcha toolchain windows/toolchain/gcc-arm-none-eabi/bin/../lib/gcc/arm-none-eabi/11.2.1/thumb/v7e-m+fp/hard\libc_nano.a(lib_a-strncmp.o)
 .debug_info    0x0001f967      0x953 c:/users/luke/desktop/mcha toolchain windows/toolchain/gcc-arm-none-eabi/bin/../lib/gcc/arm-none-eabi/11.2.1/thumb/v7e-m+fp/hard\libc_nano.a(lib_a-wbuf.o)
 .debug_info    0x000202ba      0xab4 c:/users/luke/desktop/mcha toolchain windows/toolchain/gcc-arm-none-eabi/bin/../lib/gcc/arm-none-eabi/11.2.1/thumb/v7e-m+fp/hard\libc_nano.a(lib_a-wctomb_r.o)
 .debug_info    0x00020d6e      0x809 c:/users/luke/desktop/mcha toolchain windows/toolchain/gcc-arm-none-eabi/bin/../lib/gcc/arm-none-eabi/11.2.1/thumb/v7e-m+fp/hard\libc_nano.a(lib_a-writer.o)
 .debug_info    0x00021577      0x8af c:/users/luke/desktop/mcha toolchain windows/toolchain/gcc-arm-none-eabi/bin/../lib/gcc/arm-none-eabi/11.2.1/thumb/v7e-m+fp/hard\libc_nano.a(lib_a-wsetup.o)
 .debug_info    0x00021e26      0x874 c:/users/luke/desktop/mcha toolchain windows/toolchain/gcc-arm-none-eabi/bin/../lib/gcc/arm-none-eabi/11.2.1/thumb/v7e-m+fp/hard\libc_nano.a(lib_a-assert.o)
 .debug_info    0x0002269a      0x7ad c:/users/luke/desktop/mcha toolchain windows/toolchain/gcc-arm-none-eabi/bin/../lib/gcc/arm-none-eabi/11.2.1/thumb/v7e-m+fp/hard\libc_nano.a(lib_a-closer.o)
 .debug_info    0x00022e47      0x9cb c:/users/luke/desktop/mcha toolchain windows/toolchain/gcc-arm-none-eabi/bin/../lib/gcc/arm-none-eabi/11.2.1/thumb/v7e-m+fp/hard\libc_nano.a(lib_a-fstatr.o)
 .debug_info    0x00023812      0xb90 c:/users/luke/desktop/mcha toolchain windows/toolchain/gcc-arm-none-eabi/bin/../lib/gcc/arm-none-eabi/11.2.1/thumb/v7e-m+fp/hard\libc_nano.a(lib_a-fvwrite.o)
 .debug_info    0x000243a2      0x7ad c:/users/luke/desktop/mcha toolchain windows/toolchain/gcc-arm-none-eabi/bin/../lib/gcc/arm-none-eabi/11.2.1/thumb/v7e-m+fp/hard\libc_nano.a(lib_a-isattyr.o)
 .debug_info    0x00024b4f      0x7ec c:/users/luke/desktop/mcha toolchain windows/toolchain/gcc-arm-none-eabi/bin/../lib/gcc/arm-none-eabi/11.2.1/thumb/v7e-m+fp/hard\libc_nano.a(lib_a-lseekr.o)
 .debug_info    0x0002533b      0x10f c:/users/luke/desktop/mcha toolchain windows/toolchain/gcc-arm-none-eabi/bin/../lib/gcc/arm-none-eabi/11.2.1/thumb/v7e-m+fp/hard\libc_nano.a(lib_a-memmove.o)
 .debug_info    0x0002544a      0x91d c:/users/luke/desktop/mcha toolchain windows/toolchain/gcc-arm-none-eabi/bin/../lib/gcc/arm-none-eabi/11.2.1/thumb/v7e-m+fp/hard\libc_nano.a(lib_a-nano-reallocr.o)
 .debug_info    0x00025d67      0x803 c:/users/luke/desktop/mcha toolchain windows/toolchain/gcc-arm-none-eabi/bin/../lib/gcc/arm-none-eabi/11.2.1/thumb/v7e-m+fp/hard\libc_nano.a(lib_a-readr.o)
 .debug_info    0x0002656a       0xd8 c:/users/luke/desktop/mcha toolchain windows/toolchain/gcc-arm-none-eabi/bin/../lib/gcc/arm-none-eabi/11.2.1/thumb/v7e-m+fp/hard\libc_nano.a(lib_a-abort.o)
 .debug_info    0x00026642      0x7ea c:/users/luke/desktop/mcha toolchain windows/toolchain/gcc-arm-none-eabi/bin/../lib/gcc/arm-none-eabi/11.2.1/thumb/v7e-m+fp/hard\libc_nano.a(lib_a-nano-msizer.o)
 .debug_info    0x00026e2c      0xa85 c:/users/luke/desktop/mcha toolchain windows/toolchain/gcc-arm-none-eabi/bin/../lib/gcc/arm-none-eabi/11.2.1/thumb/v7e-m+fp/hard\libc_nano.a(lib_a-signal.o)
 .debug_info    0x000278b1      0x834 c:/users/luke/desktop/mcha toolchain windows/toolchain/gcc-arm-none-eabi/bin/../lib/gcc/arm-none-eabi/11.2.1/thumb/v7e-m+fp/hard\libc_nano.a(lib_a-signalr.o)
 .debug_info    0x000280e5       0x25 c:/users/luke/desktop/mcha toolchain windows/toolchain/gcc-arm-none-eabi/bin/../lib/gcc/arm-none-eabi/11.2.1/thumb/v7e-m+fp/hard\libgcc.a(_arm_muldf3.o)
 .debug_info    0x0002810a       0x25 c:/users/luke/desktop/mcha toolchain windows/toolchain/gcc-arm-none-eabi/bin/../lib/gcc/arm-none-eabi/11.2.1/thumb/v7e-m+fp/hard\libgcc.a(_arm_addsubdf3.o)
 .debug_info    0x0002812f       0x25 c:/users/luke/desktop/mcha toolchain windows/toolchain/gcc-arm-none-eabi/bin/../lib/gcc/arm-none-eabi/11.2.1/thumb/v7e-m+fp/hard\libgcc.a(_arm_muldivdf3.o)
 .debug_info    0x00028154       0x25 c:/users/luke/desktop/mcha toolchain windows/toolchain/gcc-arm-none-eabi/bin/../lib/gcc/arm-none-eabi/11.2.1/thumb/v7e-m+fp/hard\libgcc.a(_arm_cmpdf2.o)
 .debug_info    0x00028179       0x24 c:/users/luke/desktop/mcha toolchain windows/toolchain/gcc-arm-none-eabi/bin/../lib/gcc/arm-none-eabi/11.2.1/thumb/v7e-m+fp/hard\libgcc.a(_arm_unorddf2.o)
 .debug_info    0x0002819d       0x24 c:/users/luke/desktop/mcha toolchain windows/toolchain/gcc-arm-none-eabi/bin/../lib/gcc/arm-none-eabi/11.2.1/thumb/v7e-m+fp/hard\libgcc.a(_arm_fixdfsi.o)
 .debug_info    0x000281c1       0x24 c:/users/luke/desktop/mcha toolchain windows/toolchain/gcc-arm-none-eabi/bin/../lib/gcc/arm-none-eabi/11.2.1/thumb/v7e-m+fp/hard\libgcc.a(_arm_fixunsdfsi.o)
 .debug_info    0x000281e5       0x25 c:/users/luke/desktop/mcha toolchain windows/toolchain/gcc-arm-none-eabi/bin/../lib/gcc/arm-none-eabi/11.2.1/thumb/v7e-m+fp/hard\libgcc.a(_arm_truncdfsf2.o)
 .debug_info    0x0002820a      0x31d c:/users/luke/desktop/mcha toolchain windows/toolchain/gcc-arm-none-eabi/bin/../lib/gcc/arm-none-eabi/11.2.1/thumb/v7e-m+fp/hard\libgcc.a(_fixdfdi.o)
 .debug_info    0x00028527      0x362 c:/users/luke/desktop/mcha toolchain windows/toolchain/gcc-arm-none-eabi/bin/../lib/gcc/arm-none-eabi/11.2.1/thumb/v7e-m+fp/hard\libgcc.a(_fixunsdfdi.o)
 .debug_info    0x00028889       0xb2 c:/users/luke/desktop/mcha toolchain windows/toolchain/gcc-arm-none-eabi/bin/../lib/gcc/arm-none-eabi/11.2.1/thumb/v7e-m+fp/hard\libnosys.a(close.o)
 .debug_info    0x0002893b      0x2cb c:/users/luke/desktop/mcha toolchain windows/toolchain/gcc-arm-none-eabi/bin/../lib/gcc/arm-none-eabi/11.2.1/thumb/v7e-m+fp/hard\libnosys.a(fstat.o)
 .debug_info    0x00028c06       0x9d c:/users/luke/desktop/mcha toolchain windows/toolchain/gcc-arm-none-eabi/bin/../lib/gcc/arm-none-eabi/11.2.1/thumb/v7e-m+fp/hard\libnosys.a(getpid.o)
 .debug_info    0x00028ca3       0xb2 c:/users/luke/desktop/mcha toolchain windows/toolchain/gcc-arm-none-eabi/bin/../lib/gcc/arm-none-eabi/11.2.1/thumb/v7e-m+fp/hard\libnosys.a(isatty.o)
 .debug_info    0x00028d55       0xc0 c:/users/luke/desktop/mcha toolchain windows/toolchain/gcc-arm-none-eabi/bin/../lib/gcc/arm-none-eabi/11.2.1/thumb/v7e-m+fp/hard\libnosys.a(kill.o)
 .debug_info    0x00028e15       0xd4 c:/users/luke/desktop/mcha toolchain windows/toolchain/gcc-arm-none-eabi/bin/../lib/gcc/arm-none-eabi/11.2.1/thumb/v7e-m+fp/hard\libnosys.a(lseek.o)
 .debug_info    0x00028ee9       0x62 c:/users/luke/desktop/mcha toolchain windows/toolchain/gcc-arm-none-eabi/bin/../lib/gcc/arm-none-eabi/11.2.1/thumb/v7e-m+fp/hard\libnosys.a(_exit.o)

.debug_abbrev   0x00000000     0x8d2f
 .debug_abbrev  0x00000000       0x14 c:/users/luke/desktop/mcha toolchain windows/toolchain/gcc-arm-none-eabi/bin/../lib/gcc/arm-none-eabi/11.2.1/thumb/v7e-m+fp/hard/crt0.o
 .debug_abbrev  0x00000014       0x14 c:/users/luke/desktop/mcha toolchain windows/toolchain/gcc-arm-none-eabi/bin/../lib/gcc/arm-none-eabi/11.2.1/thumb/v7e-m+fp/hard\libgcc.a(_aeabi_ldivmod.o)
 .debug_abbrev  0x00000028       0x14 c:/users/luke/desktop/mcha toolchain windows/toolchain/gcc-arm-none-eabi/bin/../lib/gcc/arm-none-eabi/11.2.1/thumb/v7e-m+fp/hard\libgcc.a(_aeabi_uldivmod.o)
 .debug_abbrev  0x0000003c      0x16a c:/users/luke/desktop/mcha toolchain windows/toolchain/gcc-arm-none-eabi/bin/../lib/gcc/arm-none-eabi/11.2.1/thumb/v7e-m+fp/hard\libgcc.a(_udivmoddi4.o)
 .debug_abbrev  0x000001a6       0x14 c:/users/luke/desktop/mcha toolchain windows/toolchain/gcc-arm-none-eabi/bin/../lib/gcc/arm-none-eabi/11.2.1/thumb/v7e-m+fp/hard\libgcc.a(_dvmd_tls.o)
 .debug_abbrev  0x000001ba       0x62 c:/users/luke/desktop/mcha toolchain windows/toolchain/gcc-arm-none-eabi/bin/../lib/gcc/arm-none-eabi/11.2.1/thumb/v7e-m+fp/hard\libc_nano.a(lib_a-ctype_.o)
 .debug_abbrev  0x0000021c      0x1d2 c:/users/luke/desktop/mcha toolchain windows/toolchain/gcc-arm-none-eabi/bin/../lib/gcc/arm-none-eabi/11.2.1/thumb/v7e-m+fp/hard\libc_nano.a(lib_a-exit.o)
 .debug_abbrev  0x000003ee      0x1fb c:/users/luke/desktop/mcha toolchain windows/toolchain/gcc-arm-none-eabi/bin/../lib/gcc/arm-none-eabi/11.2.1/thumb/v7e-m+fp/hard\libc_nano.a(lib_a-getchar.o)
 .debug_abbrev  0x000005e9      0x205 c:/users/luke/desktop/mcha toolchain windows/toolchain/gcc-arm-none-eabi/bin/../lib/gcc/arm-none-eabi/11.2.1/thumb/v7e-m+fp/hard\libc_nano.a(lib_a-getc.o)
 .debug_abbrev  0x000007ee      0x15a c:/users/luke/desktop/mcha toolchain windows/toolchain/gcc-arm-none-eabi/bin/../lib/gcc/arm-none-eabi/11.2.1/thumb/v7e-m+fp/hard\libc_nano.a(lib_a-impure.o)
 .debug_abbrev  0x00000948       0xc9 c:/users/luke/desktop/mcha toolchain windows/toolchain/gcc-arm-none-eabi/bin/../lib/gcc/arm-none-eabi/11.2.1/thumb/v7e-m+fp/hard\libc_nano.a(lib_a-init.o)
 .debug_abbrev  0x00000a11      0x1cf c:/users/luke/desktop/mcha toolchain windows/toolchain/gcc-arm-none-eabi/bin/../lib/gcc/arm-none-eabi/11.2.1/thumb/v7e-m+fp/hard\libc_nano.a(lib_a-malloc.o)
 .debug_abbrev  0x00000be0       0xc1 c:/users/luke/desktop/mcha toolchain windows/toolchain/gcc-arm-none-eabi/bin/../lib/gcc/arm-none-eabi/11.2.1/thumb/v7e-m+fp/hard\libc_nano.a(lib_a-memcpy-stub.o)
 .debug_abbrev  0x00000ca1       0x9e c:/users/luke/desktop/mcha toolchain windows/toolchain/gcc-arm-none-eabi/bin/../lib/gcc/arm-none-eabi/11.2.1/thumb/v7e-m+fp/hard\libc_nano.a(lib_a-memset.o)
 .debug_abbrev  0x00000d3f      0x22a c:/users/luke/desktop/mcha toolchain windows/toolchain/gcc-arm-none-eabi/bin/../lib/gcc/arm-none-eabi/11.2.1/thumb/v7e-m+fp/hard\libc_nano.a(lib_a-mstats.o)
 .debug_abbrev  0x00000f69      0x23b c:/users/luke/desktop/mcha toolchain windows/toolchain/gcc-arm-none-eabi/bin/../lib/gcc/arm-none-eabi/11.2.1/thumb/v7e-m+fp/hard\libc_nano.a(lib_a-nano-freer.o)
 .debug_abbrev  0x000011a4      0x1f3 c:/users/luke/desktop/mcha toolchain windows/toolchain/gcc-arm-none-eabi/bin/../lib/gcc/arm-none-eabi/11.2.1/thumb/v7e-m+fp/hard\libc_nano.a(lib_a-nano-mallinfor.o)
 .debug_abbrev  0x00001397      0x24a c:/users/luke/desktop/mcha toolchain windows/toolchain/gcc-arm-none-eabi/bin/../lib/gcc/arm-none-eabi/11.2.1/thumb/v7e-m+fp/hard\libc_nano.a(lib_a-nano-mallocr.o)
 .debug_abbrev  0x000015e1      0x173 c:/users/luke/desktop/mcha toolchain windows/toolchain/gcc-arm-none-eabi/bin/../lib/gcc/arm-none-eabi/11.2.1/thumb/v7e-m+fp/hard\libc_nano.a(lib_a-nano-malloptr.o)
 .debug_abbrev  0x00001754      0x1d5 c:/users/luke/desktop/mcha toolchain windows/toolchain/gcc-arm-none-eabi/bin/../lib/gcc/arm-none-eabi/11.2.1/thumb/v7e-m+fp/hard\libc_nano.a(lib_a-nano-mallstatsr.o)
 .debug_abbrev  0x00001929      0x2e8 c:/users/luke/desktop/mcha toolchain windows/toolchain/gcc-arm-none-eabi/bin/../lib/gcc/arm-none-eabi/11.2.1/thumb/v7e-m+fp/hard\libc_nano.a(lib_a-nano-vfprintf_float.o)
 .debug_abbrev  0x00001c11      0x285 c:/users/luke/desktop/mcha toolchain windows/toolchain/gcc-arm-none-eabi/bin/../lib/gcc/arm-none-eabi/11.2.1/thumb/v7e-m+fp/hard\libc_nano.a(lib_a-nano-vfprintf_i.o)
 .debug_abbrev  0x00001e96      0x2c1 c:/users/luke/desktop/mcha toolchain windows/toolchain/gcc-arm-none-eabi/bin/../lib/gcc/arm-none-eabi/11.2.1/thumb/v7e-m+fp/hard\libc_nano.a(lib_a-nano-vfscanf_float.o)
 .debug_abbrev  0x00002157      0x23a c:/users/luke/desktop/mcha toolchain windows/toolchain/gcc-arm-none-eabi/bin/../lib/gcc/arm-none-eabi/11.2.1/thumb/v7e-m+fp/hard\libc_nano.a(lib_a-printf.o)
 .debug_abbrev  0x00002391      0x233 c:/users/luke/desktop/mcha toolchain windows/toolchain/gcc-arm-none-eabi/bin/../lib/gcc/arm-none-eabi/11.2.1/thumb/v7e-m+fp/hard\libc_nano.a(lib_a-reent.o)
 .debug_abbrev  0x000025c4      0x1f8 c:/users/luke/desktop/mcha toolchain windows/toolchain/gcc-arm-none-eabi/bin/../lib/gcc/arm-none-eabi/11.2.1/thumb/v7e-m+fp/hard\libc_nano.a(lib_a-rget.o)
 .debug_abbrev  0x000027bc      0x1da c:/users/luke/desktop/mcha toolchain windows/toolchain/gcc-arm-none-eabi/bin/../lib/gcc/arm-none-eabi/11.2.1/thumb/v7e-m+fp/hard\libc_nano.a(lib_a-sbrkr.o)
 .debug_abbrev  0x00002996      0x251 c:/users/luke/desktop/mcha toolchain windows/toolchain/gcc-arm-none-eabi/bin/../lib/gcc/arm-none-eabi/11.2.1/thumb/v7e-m+fp/hard\libc_nano.a(lib_a-setvbuf.o)
 .debug_abbrev  0x00002be7       0x77 c:/users/luke/desktop/mcha toolchain windows/toolchain/gcc-arm-none-eabi/bin/../lib/gcc/arm-none-eabi/11.2.1/thumb/v7e-m+fp/hard\libc_nano.a(lib_a-sf_nan.o)
 .debug_abbrev  0x00002c5e      0x21c c:/users/luke/desktop/mcha toolchain windows/toolchain/gcc-arm-none-eabi/bin/../lib/gcc/arm-none-eabi/11.2.1/thumb/v7e-m+fp/hard\libc_nano.a(lib_a-sprintf.o)
 .debug_abbrev  0x00002e7a       0x14 c:/users/luke/desktop/mcha toolchain windows/toolchain/gcc-arm-none-eabi/bin/../lib/gcc/arm-none-eabi/11.2.1/thumb/v7e-m+fp/hard\libc_nano.a(lib_a-strcmp.o)
 .debug_abbrev  0x00002e8e       0x14 c:/users/luke/desktop/mcha toolchain windows/toolchain/gcc-arm-none-eabi/bin/../lib/gcc/arm-none-eabi/11.2.1/thumb/v7e-m+fp/hard\libc_nano.a(lib_a-strlen.o)
 .debug_abbrev  0x00002ea2      0x4a0 c:/users/luke/desktop/mcha toolchain windows/toolchain/gcc-arm-none-eabi/bin/../lib/gcc/arm-none-eabi/11.2.1/thumb/v7e-m+fp/hard\libc_nano.a(lib_a-strtod.o)
 .debug_abbrev  0x00003342      0x2e5 c:/users/luke/desktop/mcha toolchain windows/toolchain/gcc-arm-none-eabi/bin/../lib/gcc/arm-none-eabi/11.2.1/thumb/v7e-m+fp/hard\libc_nano.a(lib_a-strtol.o)
 .debug_abbrev  0x00003627      0x21f c:/users/luke/desktop/mcha toolchain windows/toolchain/gcc-arm-none-eabi/bin/../lib/gcc/arm-none-eabi/11.2.1/thumb/v7e-m+fp/hard\libc_nano.a(lib_a-vprintf.o)
 .debug_abbrev  0x00003846      0x328 c:/users/luke/desktop/mcha toolchain windows/toolchain/gcc-arm-none-eabi/bin/../lib/gcc/arm-none-eabi/11.2.1/thumb/v7e-m+fp/hard\libc_nano.a(lib_a-dtoa.o)
 .debug_abbrev  0x00003b6e      0x15e c:/users/luke/desktop/mcha toolchain windows/toolchain/gcc-arm-none-eabi/bin/../lib/gcc/arm-none-eabi/11.2.1/thumb/v7e-m+fp/hard\libc_nano.a(lib_a-errno.o)
 .debug_abbrev  0x00003ccc      0x2b9 c:/users/luke/desktop/mcha toolchain windows/toolchain/gcc-arm-none-eabi/bin/../lib/gcc/arm-none-eabi/11.2.1/thumb/v7e-m+fp/hard\libc_nano.a(lib_a-fflush.o)
 .debug_abbrev  0x00003f85      0x3cd c:/users/luke/desktop/mcha toolchain windows/toolchain/gcc-arm-none-eabi/bin/../lib/gcc/arm-none-eabi/11.2.1/thumb/v7e-m+fp/hard\libc_nano.a(lib_a-findfp.o)
 .debug_abbrev  0x00004352      0x21d c:/users/luke/desktop/mcha toolchain windows/toolchain/gcc-arm-none-eabi/bin/../lib/gcc/arm-none-eabi/11.2.1/thumb/v7e-m+fp/hard\libc_nano.a(lib_a-fprintf.o)
 .debug_abbrev  0x0000456f      0x19f c:/users/luke/desktop/mcha toolchain windows/toolchain/gcc-arm-none-eabi/bin/../lib/gcc/arm-none-eabi/11.2.1/thumb/v7e-m+fp/hard\libc_nano.a(lib_a-fwalk.o)
 .debug_abbrev  0x0000470e      0x3d7 c:/users/luke/desktop/mcha toolchain windows/toolchain/gcc-arm-none-eabi/bin/../lib/gcc/arm-none-eabi/11.2.1/thumb/v7e-m+fp/hard\libc_nano.a(lib_a-gdtoa-gethex.o)
 .debug_abbrev  0x00004ae5      0x175 c:/users/luke/desktop/mcha toolchain windows/toolchain/gcc-arm-none-eabi/bin/../lib/gcc/arm-none-eabi/11.2.1/thumb/v7e-m+fp/hard\libc_nano.a(lib_a-gdtoa-hexnan.o)
 .debug_abbrev  0x00004c5a      0x1df c:/users/luke/desktop/mcha toolchain windows/toolchain/gcc-arm-none-eabi/bin/../lib/gcc/arm-none-eabi/11.2.1/thumb/v7e-m+fp/hard\libc_nano.a(lib_a-lnumeric.o)
 .debug_abbrev  0x00004e39      0x22e c:/users/luke/desktop/mcha toolchain windows/toolchain/gcc-arm-none-eabi/bin/../lib/gcc/arm-none-eabi/11.2.1/thumb/v7e-m+fp/hard\libc_nano.a(lib_a-localeconv.o)
 .debug_abbrev  0x00005067      0x2a6 c:/users/luke/desktop/mcha toolchain windows/toolchain/gcc-arm-none-eabi/bin/../lib/gcc/arm-none-eabi/11.2.1/thumb/v7e-m+fp/hard\libc_nano.a(lib_a-locale.o)
 .debug_abbrev  0x0000530d      0x2a3 c:/users/luke/desktop/mcha toolchain windows/toolchain/gcc-arm-none-eabi/bin/../lib/gcc/arm-none-eabi/11.2.1/thumb/v7e-m+fp/hard\libc_nano.a(lib_a-makebuf.o)
 .debug_abbrev  0x000055b0      0x208 c:/users/luke/desktop/mcha toolchain windows/toolchain/gcc-arm-none-eabi/bin/../lib/gcc/arm-none-eabi/11.2.1/thumb/v7e-m+fp/hard\libc_nano.a(lib_a-mbtowc_r.o)
 .debug_abbrev  0x000057b8       0x14 c:/users/luke/desktop/mcha toolchain windows/toolchain/gcc-arm-none-eabi/bin/../lib/gcc/arm-none-eabi/11.2.1/thumb/v7e-m+fp/hard\libc_nano.a(lib_a-memchr.o)
 .debug_abbrev  0x000057cc      0x410 c:/users/luke/desktop/mcha toolchain windows/toolchain/gcc-arm-none-eabi/bin/../lib/gcc/arm-none-eabi/11.2.1/thumb/v7e-m+fp/hard\libc_nano.a(lib_a-mprec.o)
 .debug_abbrev  0x00005bdc      0x1cd c:/users/luke/desktop/mcha toolchain windows/toolchain/gcc-arm-none-eabi/bin/../lib/gcc/arm-none-eabi/11.2.1/thumb/v7e-m+fp/hard\libc_nano.a(lib_a-nano-callocr.o)
 .debug_abbrev  0x00005da9      0x315 c:/users/luke/desktop/mcha toolchain windows/toolchain/gcc-arm-none-eabi/bin/../lib/gcc/arm-none-eabi/11.2.1/thumb/v7e-m+fp/hard\libc_nano.a(lib_a-nano-svfprintf.o)
 .debug_abbrev  0x000060be      0x305 c:/users/luke/desktop/mcha toolchain windows/toolchain/gcc-arm-none-eabi/bin/../lib/gcc/arm-none-eabi/11.2.1/thumb/v7e-m+fp/hard\libc_nano.a(lib_a-nano-vfprintf.o)
 .debug_abbrev  0x000063c3      0x246 c:/users/luke/desktop/mcha toolchain windows/toolchain/gcc-arm-none-eabi/bin/../lib/gcc/arm-none-eabi/11.2.1/thumb/v7e-m+fp/hard\libc_nano.a(lib_a-refill.o)
 .debug_abbrev  0x00006609       0x77 c:/users/luke/desktop/mcha toolchain windows/toolchain/gcc-arm-none-eabi/bin/../lib/gcc/arm-none-eabi/11.2.1/thumb/v7e-m+fp/hard\libc_nano.a(lib_a-s_nan.o)
 .debug_abbrev  0x00006680      0x221 c:/users/luke/desktop/mcha toolchain windows/toolchain/gcc-arm-none-eabi/bin/../lib/gcc/arm-none-eabi/11.2.1/thumb/v7e-m+fp/hard\libc_nano.a(lib_a-stdio.o)
 .debug_abbrev  0x000068a1       0x79 c:/users/luke/desktop/mcha toolchain windows/toolchain/gcc-arm-none-eabi/bin/../lib/gcc/arm-none-eabi/11.2.1/thumb/v7e-m+fp/hard\libc_nano.a(lib_a-strncmp.o)
 .debug_abbrev  0x0000691a      0x22e c:/users/luke/desktop/mcha toolchain windows/toolchain/gcc-arm-none-eabi/bin/../lib/gcc/arm-none-eabi/11.2.1/thumb/v7e-m+fp/hard\libc_nano.a(lib_a-wbuf.o)
 .debug_abbrev  0x00006b48      0x212 c:/users/luke/desktop/mcha toolchain windows/toolchain/gcc-arm-none-eabi/bin/../lib/gcc/arm-none-eabi/11.2.1/thumb/v7e-m+fp/hard\libc_nano.a(lib_a-wctomb_r.o)
 .debug_abbrev  0x00006d5a      0x1b5 c:/users/luke/desktop/mcha toolchain windows/toolchain/gcc-arm-none-eabi/bin/../lib/gcc/arm-none-eabi/11.2.1/thumb/v7e-m+fp/hard\libc_nano.a(lib_a-writer.o)
 .debug_abbrev  0x00006f0f      0x1d9 c:/users/luke/desktop/mcha toolchain windows/toolchain/gcc-arm-none-eabi/bin/../lib/gcc/arm-none-eabi/11.2.1/thumb/v7e-m+fp/hard\libc_nano.a(lib_a-wsetup.o)
 .debug_abbrev  0x000070e8      0x1ea c:/users/luke/desktop/mcha toolchain windows/toolchain/gcc-arm-none-eabi/bin/../lib/gcc/arm-none-eabi/11.2.1/thumb/v7e-m+fp/hard\libc_nano.a(lib_a-assert.o)
 .debug_abbrev  0x000072d2      0x1b0 c:/users/luke/desktop/mcha toolchain windows/toolchain/gcc-arm-none-eabi/bin/../lib/gcc/arm-none-eabi/11.2.1/thumb/v7e-m+fp/hard\libc_nano.a(lib_a-closer.o)
 .debug_abbrev  0x00007482      0x1c3 c:/users/luke/desktop/mcha toolchain windows/toolchain/gcc-arm-none-eabi/bin/../lib/gcc/arm-none-eabi/11.2.1/thumb/v7e-m+fp/hard\libc_nano.a(lib_a-fstatr.o)
 .debug_abbrev  0x00007645      0x21b c:/users/luke/desktop/mcha toolchain windows/toolchain/gcc-arm-none-eabi/bin/../lib/gcc/arm-none-eabi/11.2.1/thumb/v7e-m+fp/hard\libc_nano.a(lib_a-fvwrite.o)
 .debug_abbrev  0x00007860      0x1b0 c:/users/luke/desktop/mcha toolchain windows/toolchain/gcc-arm-none-eabi/bin/../lib/gcc/arm-none-eabi/11.2.1/thumb/v7e-m+fp/hard\libc_nano.a(lib_a-isattyr.o)
 .debug_abbrev  0x00007a10      0x1c4 c:/users/luke/desktop/mcha toolchain windows/toolchain/gcc-arm-none-eabi/bin/../lib/gcc/arm-none-eabi/11.2.1/thumb/v7e-m+fp/hard\libc_nano.a(lib_a-lseekr.o)
 .debug_abbrev  0x00007bd4       0xac c:/users/luke/desktop/mcha toolchain windows/toolchain/gcc-arm-none-eabi/bin/../lib/gcc/arm-none-eabi/11.2.1/thumb/v7e-m+fp/hard\libc_nano.a(lib_a-memmove.o)
 .debug_abbrev  0x00007c80      0x217 c:/users/luke/desktop/mcha toolchain windows/toolchain/gcc-arm-none-eabi/bin/../lib/gcc/arm-none-eabi/11.2.1/thumb/v7e-m+fp/hard\libc_nano.a(lib_a-nano-reallocr.o)
 .debug_abbrev  0x00007e97      0x1b0 c:/users/luke/desktop/mcha toolchain windows/toolchain/gcc-arm-none-eabi/bin/../lib/gcc/arm-none-eabi/11.2.1/thumb/v7e-m+fp/hard\libc_nano.a(lib_a-readr.o)
 .debug_abbrev  0x00008047       0x99 c:/users/luke/desktop/mcha toolchain windows/toolchain/gcc-arm-none-eabi/bin/../lib/gcc/arm-none-eabi/11.2.1/thumb/v7e-m+fp/hard\libc_nano.a(lib_a-abort.o)
 .debug_abbrev  0x000080e0      0x196 c:/users/luke/desktop/mcha toolchain windows/toolchain/gcc-arm-none-eabi/bin/../lib/gcc/arm-none-eabi/11.2.1/thumb/v7e-m+fp/hard\libc_nano.a(lib_a-nano-msizer.o)
 .debug_abbrev  0x00008276      0x296 c:/users/luke/desktop/mcha toolchain windows/toolchain/gcc-arm-none-eabi/bin/../lib/gcc/arm-none-eabi/11.2.1/thumb/v7e-m+fp/hard\libc_nano.a(lib_a-signal.o)
 .debug_abbrev  0x0000850c      0x1fd c:/users/luke/desktop/mcha toolchain windows/toolchain/gcc-arm-none-eabi/bin/../lib/gcc/arm-none-eabi/11.2.1/thumb/v7e-m+fp/hard\libc_nano.a(lib_a-signalr.o)
 .debug_abbrev  0x00008709       0x14 c:/users/luke/desktop/mcha toolchain windows/toolchain/gcc-arm-none-eabi/bin/../lib/gcc/arm-none-eabi/11.2.1/thumb/v7e-m+fp/hard\libgcc.a(_arm_muldf3.o)
 .debug_abbrev  0x0000871d       0x14 c:/users/luke/desktop/mcha toolchain windows/toolchain/gcc-arm-none-eabi/bin/../lib/gcc/arm-none-eabi/11.2.1/thumb/v7e-m+fp/hard\libgcc.a(_arm_addsubdf3.o)
 .debug_abbrev  0x00008731       0x14 c:/users/luke/desktop/mcha toolchain windows/toolchain/gcc-arm-none-eabi/bin/../lib/gcc/arm-none-eabi/11.2.1/thumb/v7e-m+fp/hard\libgcc.a(_arm_muldivdf3.o)
 .debug_abbrev  0x00008745       0x14 c:/users/luke/desktop/mcha toolchain windows/toolchain/gcc-arm-none-eabi/bin/../lib/gcc/arm-none-eabi/11.2.1/thumb/v7e-m+fp/hard\libgcc.a(_arm_cmpdf2.o)
 .debug_abbrev  0x00008759       0x14 c:/users/luke/desktop/mcha toolchain windows/toolchain/gcc-arm-none-eabi/bin/../lib/gcc/arm-none-eabi/11.2.1/thumb/v7e-m+fp/hard\libgcc.a(_arm_unorddf2.o)
 .debug_abbrev  0x0000876d       0x14 c:/users/luke/desktop/mcha toolchain windows/toolchain/gcc-arm-none-eabi/bin/../lib/gcc/arm-none-eabi/11.2.1/thumb/v7e-m+fp/hard\libgcc.a(_arm_fixdfsi.o)
 .debug_abbrev  0x00008781       0x14 c:/users/luke/desktop/mcha toolchain windows/toolchain/gcc-arm-none-eabi/bin/../lib/gcc/arm-none-eabi/11.2.1/thumb/v7e-m+fp/hard\libgcc.a(_arm_fixunsdfsi.o)
 .debug_abbrev  0x00008795       0x14 c:/users/luke/desktop/mcha toolchain windows/toolchain/gcc-arm-none-eabi/bin/../lib/gcc/arm-none-eabi/11.2.1/thumb/v7e-m+fp/hard\libgcc.a(_arm_truncdfsf2.o)
 .debug_abbrev  0x000087a9      0x119 c:/users/luke/desktop/mcha toolchain windows/toolchain/gcc-arm-none-eabi/bin/../lib/gcc/arm-none-eabi/11.2.1/thumb/v7e-m+fp/hard\libgcc.a(_fixdfdi.o)
 .debug_abbrev  0x000088c2      0x103 c:/users/luke/desktop/mcha toolchain windows/toolchain/gcc-arm-none-eabi/bin/../lib/gcc/arm-none-eabi/11.2.1/thumb/v7e-m+fp/hard\libgcc.a(_fixunsdfdi.o)
 .debug_abbrev  0x000089c5       0x6c c:/users/luke/desktop/mcha toolchain windows/toolchain/gcc-arm-none-eabi/bin/../lib/gcc/arm-none-eabi/11.2.1/thumb/v7e-m+fp/hard\libnosys.a(close.o)
 .debug_abbrev  0x00008a31       0xcc c:/users/luke/desktop/mcha toolchain windows/toolchain/gcc-arm-none-eabi/bin/../lib/gcc/arm-none-eabi/11.2.1/thumb/v7e-m+fp/hard\libnosys.a(fstat.o)
 .debug_abbrev  0x00008afd       0x58 c:/users/luke/desktop/mcha toolchain windows/toolchain/gcc-arm-none-eabi/bin/../lib/gcc/arm-none-eabi/11.2.1/thumb/v7e-m+fp/hard\libnosys.a(getpid.o)
 .debug_abbrev  0x00008b55       0x6c c:/users/luke/desktop/mcha toolchain windows/toolchain/gcc-arm-none-eabi/bin/../lib/gcc/arm-none-eabi/11.2.1/thumb/v7e-m+fp/hard\libnosys.a(isatty.o)
 .debug_abbrev  0x00008bc1       0x7d c:/users/luke/desktop/mcha toolchain windows/toolchain/gcc-arm-none-eabi/bin/../lib/gcc/arm-none-eabi/11.2.1/thumb/v7e-m+fp/hard\libnosys.a(kill.o)
 .debug_abbrev  0x00008c3e       0x91 c:/users/luke/desktop/mcha toolchain windows/toolchain/gcc-arm-none-eabi/bin/../lib/gcc/arm-none-eabi/11.2.1/thumb/v7e-m+fp/hard\libnosys.a(lseek.o)
 .debug_abbrev  0x00008ccf       0x60 c:/users/luke/desktop/mcha toolchain windows/toolchain/gcc-arm-none-eabi/bin/../lib/gcc/arm-none-eabi/11.2.1/thumb/v7e-m+fp/hard\libnosys.a(_exit.o)

.debug_aranges  0x00000000      0xe18
 .debug_aranges
                0x00000000       0x20 c:/users/luke/desktop/mcha toolchain windows/toolchain/gcc-arm-none-eabi/bin/../lib/gcc/arm-none-eabi/11.2.1/thumb/v7e-m+fp/hard/crt0.o
 .debug_aranges
                0x00000020       0x20 c:/users/luke/desktop/mcha toolchain windows/toolchain/gcc-arm-none-eabi/bin/../lib/gcc/arm-none-eabi/11.2.1/thumb/v7e-m+fp/hard\libgcc.a(_aeabi_ldivmod.o)
 .debug_aranges
                0x00000040       0x20 c:/users/luke/desktop/mcha toolchain windows/toolchain/gcc-arm-none-eabi/bin/../lib/gcc/arm-none-eabi/11.2.1/thumb/v7e-m+fp/hard\libgcc.a(_aeabi_uldivmod.o)
 .debug_aranges
                0x00000060       0x20 c:/users/luke/desktop/mcha toolchain windows/toolchain/gcc-arm-none-eabi/bin/../lib/gcc/arm-none-eabi/11.2.1/thumb/v7e-m+fp/hard\libgcc.a(_udivmoddi4.o)
 .debug_aranges
                0x00000080       0x20 c:/users/luke/desktop/mcha toolchain windows/toolchain/gcc-arm-none-eabi/bin/../lib/gcc/arm-none-eabi/11.2.1/thumb/v7e-m+fp/hard\libgcc.a(_dvmd_tls.o)
 .debug_aranges
                0x000000a0       0x18 c:/users/luke/desktop/mcha toolchain windows/toolchain/gcc-arm-none-eabi/bin/../lib/gcc/arm-none-eabi/11.2.1/thumb/v7e-m+fp/hard\libc_nano.a(lib_a-ctype_.o)
 .debug_aranges
                0x000000b8       0x20 c:/users/luke/desktop/mcha toolchain windows/toolchain/gcc-arm-none-eabi/bin/../lib/gcc/arm-none-eabi/11.2.1/thumb/v7e-m+fp/hard\libc_nano.a(lib_a-exit.o)
 .debug_aranges
                0x000000d8       0x28 c:/users/luke/desktop/mcha toolchain windows/toolchain/gcc-arm-none-eabi/bin/../lib/gcc/arm-none-eabi/11.2.1/thumb/v7e-m+fp/hard\libc_nano.a(lib_a-getchar.o)
 .debug_aranges
                0x00000100       0x28 c:/users/luke/desktop/mcha toolchain windows/toolchain/gcc-arm-none-eabi/bin/../lib/gcc/arm-none-eabi/11.2.1/thumb/v7e-m+fp/hard\libc_nano.a(lib_a-getc.o)
 .debug_aranges
                0x00000128       0x18 c:/users/luke/desktop/mcha toolchain windows/toolchain/gcc-arm-none-eabi/bin/../lib/gcc/arm-none-eabi/11.2.1/thumb/v7e-m+fp/hard\libc_nano.a(lib_a-impure.o)
 .debug_aranges
                0x00000140       0x20 c:/users/luke/desktop/mcha toolchain windows/toolchain/gcc-arm-none-eabi/bin/../lib/gcc/arm-none-eabi/11.2.1/thumb/v7e-m+fp/hard\libc_nano.a(lib_a-init.o)
 .debug_aranges
                0x00000160       0x28 c:/users/luke/desktop/mcha toolchain windows/toolchain/gcc-arm-none-eabi/bin/../lib/gcc/arm-none-eabi/11.2.1/thumb/v7e-m+fp/hard\libc_nano.a(lib_a-malloc.o)
 .debug_aranges
                0x00000188       0x20 c:/users/luke/desktop/mcha toolchain windows/toolchain/gcc-arm-none-eabi/bin/../lib/gcc/arm-none-eabi/11.2.1/thumb/v7e-m+fp/hard\libc_nano.a(lib_a-memcpy-stub.o)
 .debug_aranges
                0x000001a8       0x20 c:/users/luke/desktop/mcha toolchain windows/toolchain/gcc-arm-none-eabi/bin/../lib/gcc/arm-none-eabi/11.2.1/thumb/v7e-m+fp/hard\libc_nano.a(lib_a-memset.o)
 .debug_aranges
                0x000001c8       0x40 c:/users/luke/desktop/mcha toolchain windows/toolchain/gcc-arm-none-eabi/bin/../lib/gcc/arm-none-eabi/11.2.1/thumb/v7e-m+fp/hard\libc_nano.a(lib_a-mstats.o)
 .debug_aranges
                0x00000208       0x20 c:/users/luke/desktop/mcha toolchain windows/toolchain/gcc-arm-none-eabi/bin/../lib/gcc/arm-none-eabi/11.2.1/thumb/v7e-m+fp/hard\libc_nano.a(lib_a-nano-freer.o)
 .debug_aranges
                0x00000228       0x20 c:/users/luke/desktop/mcha toolchain windows/toolchain/gcc-arm-none-eabi/bin/../lib/gcc/arm-none-eabi/11.2.1/thumb/v7e-m+fp/hard\libc_nano.a(lib_a-nano-mallinfor.o)
 .debug_aranges
                0x00000248       0x28 c:/users/luke/desktop/mcha toolchain windows/toolchain/gcc-arm-none-eabi/bin/../lib/gcc/arm-none-eabi/11.2.1/thumb/v7e-m+fp/hard\libc_nano.a(lib_a-nano-mallocr.o)
 .debug_aranges
                0x00000270       0x20 c:/users/luke/desktop/mcha toolchain windows/toolchain/gcc-arm-none-eabi/bin/../lib/gcc/arm-none-eabi/11.2.1/thumb/v7e-m+fp/hard\libc_nano.a(lib_a-nano-malloptr.o)
 .debug_aranges
                0x00000290       0x20 c:/users/luke/desktop/mcha toolchain windows/toolchain/gcc-arm-none-eabi/bin/../lib/gcc/arm-none-eabi/11.2.1/thumb/v7e-m+fp/hard\libc_nano.a(lib_a-nano-mallstatsr.o)
 .debug_aranges
                0x000002b0       0x30 c:/users/luke/desktop/mcha toolchain windows/toolchain/gcc-arm-none-eabi/bin/../lib/gcc/arm-none-eabi/11.2.1/thumb/v7e-m+fp/hard\libc_nano.a(lib_a-nano-vfprintf_float.o)
 .debug_aranges
                0x000002e0       0x28 c:/users/luke/desktop/mcha toolchain windows/toolchain/gcc-arm-none-eabi/bin/../lib/gcc/arm-none-eabi/11.2.1/thumb/v7e-m+fp/hard\libc_nano.a(lib_a-nano-vfprintf_i.o)
 .debug_aranges
                0x00000308       0x20 c:/users/luke/desktop/mcha toolchain windows/toolchain/gcc-arm-none-eabi/bin/../lib/gcc/arm-none-eabi/11.2.1/thumb/v7e-m+fp/hard\libc_nano.a(lib_a-nano-vfscanf_float.o)
 .debug_aranges
                0x00000328       0x28 c:/users/luke/desktop/mcha toolchain windows/toolchain/gcc-arm-none-eabi/bin/../lib/gcc/arm-none-eabi/11.2.1/thumb/v7e-m+fp/hard\libc_nano.a(lib_a-printf.o)
 .debug_aranges
                0x00000350       0x28 c:/users/luke/desktop/mcha toolchain windows/toolchain/gcc-arm-none-eabi/bin/../lib/gcc/arm-none-eabi/11.2.1/thumb/v7e-m+fp/hard\libc_nano.a(lib_a-reent.o)
 .debug_aranges
                0x00000378       0x28 c:/users/luke/desktop/mcha toolchain windows/toolchain/gcc-arm-none-eabi/bin/../lib/gcc/arm-none-eabi/11.2.1/thumb/v7e-m+fp/hard\libc_nano.a(lib_a-rget.o)
 .debug_aranges
                0x000003a0       0x20 c:/users/luke/desktop/mcha toolchain windows/toolchain/gcc-arm-none-eabi/bin/../lib/gcc/arm-none-eabi/11.2.1/thumb/v7e-m+fp/hard\libc_nano.a(lib_a-sbrkr.o)
 .debug_aranges
                0x000003c0       0x20 c:/users/luke/desktop/mcha toolchain windows/toolchain/gcc-arm-none-eabi/bin/../lib/gcc/arm-none-eabi/11.2.1/thumb/v7e-m+fp/hard\libc_nano.a(lib_a-setvbuf.o)
 .debug_aranges
                0x000003e0       0x20 c:/users/luke/desktop/mcha toolchain windows/toolchain/gcc-arm-none-eabi/bin/../lib/gcc/arm-none-eabi/11.2.1/thumb/v7e-m+fp/hard\libc_nano.a(lib_a-sf_nan.o)
 .debug_aranges
                0x00000400       0x28 c:/users/luke/desktop/mcha toolchain windows/toolchain/gcc-arm-none-eabi/bin/../lib/gcc/arm-none-eabi/11.2.1/thumb/v7e-m+fp/hard\libc_nano.a(lib_a-sprintf.o)
 .debug_aranges
                0x00000428       0x20 c:/users/luke/desktop/mcha toolchain windows/toolchain/gcc-arm-none-eabi/bin/../lib/gcc/arm-none-eabi/11.2.1/thumb/v7e-m+fp/hard\libc_nano.a(lib_a-strcmp.o)
 .debug_aranges
                0x00000448       0x20 c:/users/luke/desktop/mcha toolchain windows/toolchain/gcc-arm-none-eabi/bin/../lib/gcc/arm-none-eabi/11.2.1/thumb/v7e-m+fp/hard\libc_nano.a(lib_a-strlen.o)
 .debug_aranges
                0x00000468       0x50 c:/users/luke/desktop/mcha toolchain windows/toolchain/gcc-arm-none-eabi/bin/../lib/gcc/arm-none-eabi/11.2.1/thumb/v7e-m+fp/hard\libc_nano.a(lib_a-strtod.o)
 .debug_aranges
                0x000004b8       0x38 c:/users/luke/desktop/mcha toolchain windows/toolchain/gcc-arm-none-eabi/bin/../lib/gcc/arm-none-eabi/11.2.1/thumb/v7e-m+fp/hard\libc_nano.a(lib_a-strtol.o)
 .debug_aranges
                0x000004f0       0x28 c:/users/luke/desktop/mcha toolchain windows/toolchain/gcc-arm-none-eabi/bin/../lib/gcc/arm-none-eabi/11.2.1/thumb/v7e-m+fp/hard\libc_nano.a(lib_a-vprintf.o)
 .debug_aranges
                0x00000518       0x28 c:/users/luke/desktop/mcha toolchain windows/toolchain/gcc-arm-none-eabi/bin/../lib/gcc/arm-none-eabi/11.2.1/thumb/v7e-m+fp/hard\libc_nano.a(lib_a-dtoa.o)
 .debug_aranges
                0x00000540       0x20 c:/users/luke/desktop/mcha toolchain windows/toolchain/gcc-arm-none-eabi/bin/../lib/gcc/arm-none-eabi/11.2.1/thumb/v7e-m+fp/hard\libc_nano.a(lib_a-errno.o)
 .debug_aranges
                0x00000560       0x30 c:/users/luke/desktop/mcha toolchain windows/toolchain/gcc-arm-none-eabi/bin/../lib/gcc/arm-none-eabi/11.2.1/thumb/v7e-m+fp/hard\libc_nano.a(lib_a-fflush.o)
 .debug_aranges
                0x00000590       0x68 c:/users/luke/desktop/mcha toolchain windows/toolchain/gcc-arm-none-eabi/bin/../lib/gcc/arm-none-eabi/11.2.1/thumb/v7e-m+fp/hard\libc_nano.a(lib_a-findfp.o)
 .debug_aranges
                0x000005f8       0x28 c:/users/luke/desktop/mcha toolchain windows/toolchain/gcc-arm-none-eabi/bin/../lib/gcc/arm-none-eabi/11.2.1/thumb/v7e-m+fp/hard\libc_nano.a(lib_a-fprintf.o)
 .debug_aranges
                0x00000620       0x28 c:/users/luke/desktop/mcha toolchain windows/toolchain/gcc-arm-none-eabi/bin/../lib/gcc/arm-none-eabi/11.2.1/thumb/v7e-m+fp/hard\libc_nano.a(lib_a-fwalk.o)
 .debug_aranges
                0x00000648       0x30 c:/users/luke/desktop/mcha toolchain windows/toolchain/gcc-arm-none-eabi/bin/../lib/gcc/arm-none-eabi/11.2.1/thumb/v7e-m+fp/hard\libc_nano.a(lib_a-gdtoa-gethex.o)
 .debug_aranges
                0x00000678       0x30 c:/users/luke/desktop/mcha toolchain windows/toolchain/gcc-arm-none-eabi/bin/../lib/gcc/arm-none-eabi/11.2.1/thumb/v7e-m+fp/hard\libc_nano.a(lib_a-gdtoa-hexnan.o)
 .debug_aranges
                0x000006a8       0x20 c:/users/luke/desktop/mcha toolchain windows/toolchain/gcc-arm-none-eabi/bin/../lib/gcc/arm-none-eabi/11.2.1/thumb/v7e-m+fp/hard\libc_nano.a(lib_a-lnumeric.o)
 .debug_aranges
                0x000006c8       0x30 c:/users/luke/desktop/mcha toolchain windows/toolchain/gcc-arm-none-eabi/bin/../lib/gcc/arm-none-eabi/11.2.1/thumb/v7e-m+fp/hard\libc_nano.a(lib_a-localeconv.o)
 .debug_aranges
                0x000006f8       0x30 c:/users/luke/desktop/mcha toolchain windows/toolchain/gcc-arm-none-eabi/bin/../lib/gcc/arm-none-eabi/11.2.1/thumb/v7e-m+fp/hard\libc_nano.a(lib_a-locale.o)
 .debug_aranges
                0x00000728       0x28 c:/users/luke/desktop/mcha toolchain windows/toolchain/gcc-arm-none-eabi/bin/../lib/gcc/arm-none-eabi/11.2.1/thumb/v7e-m+fp/hard\libc_nano.a(lib_a-makebuf.o)
 .debug_aranges
                0x00000750       0x28 c:/users/luke/desktop/mcha toolchain windows/toolchain/gcc-arm-none-eabi/bin/../lib/gcc/arm-none-eabi/11.2.1/thumb/v7e-m+fp/hard\libc_nano.a(lib_a-mbtowc_r.o)
 .debug_aranges
                0x00000778       0x20 c:/users/luke/desktop/mcha toolchain windows/toolchain/gcc-arm-none-eabi/bin/../lib/gcc/arm-none-eabi/11.2.1/thumb/v7e-m+fp/hard\libc_nano.a(lib_a-memchr.o)
 .debug_aranges
                0x00000798       0xb0 c:/users/luke/desktop/mcha toolchain windows/toolchain/gcc-arm-none-eabi/bin/../lib/gcc/arm-none-eabi/11.2.1/thumb/v7e-m+fp/hard\libc_nano.a(lib_a-mprec.o)
 .debug_aranges
                0x00000848       0x20 c:/users/luke/desktop/mcha toolchain windows/toolchain/gcc-arm-none-eabi/bin/../lib/gcc/arm-none-eabi/11.2.1/thumb/v7e-m+fp/hard\libc_nano.a(lib_a-nano-callocr.o)
 .debug_aranges
                0x00000868       0x30 c:/users/luke/desktop/mcha toolchain windows/toolchain/gcc-arm-none-eabi/bin/../lib/gcc/arm-none-eabi/11.2.1/thumb/v7e-m+fp/hard\libc_nano.a(lib_a-nano-svfprintf.o)
 .debug_aranges
                0x00000898       0x40 c:/users/luke/desktop/mcha toolchain windows/toolchain/gcc-arm-none-eabi/bin/../lib/gcc/arm-none-eabi/11.2.1/thumb/v7e-m+fp/hard\libc_nano.a(lib_a-nano-vfprintf.o)
 .debug_aranges
                0x000008d8       0x28 c:/users/luke/desktop/mcha toolchain windows/toolchain/gcc-arm-none-eabi/bin/../lib/gcc/arm-none-eabi/11.2.1/thumb/v7e-m+fp/hard\libc_nano.a(lib_a-refill.o)
 .debug_aranges
                0x00000900       0x20 c:/users/luke/desktop/mcha toolchain windows/toolchain/gcc-arm-none-eabi/bin/../lib/gcc/arm-none-eabi/11.2.1/thumb/v7e-m+fp/hard\libc_nano.a(lib_a-s_nan.o)
 .debug_aranges
                0x00000920       0x40 c:/users/luke/desktop/mcha toolchain windows/toolchain/gcc-arm-none-eabi/bin/../lib/gcc/arm-none-eabi/11.2.1/thumb/v7e-m+fp/hard\libc_nano.a(lib_a-stdio.o)
 .debug_aranges
                0x00000960       0x20 c:/users/luke/desktop/mcha toolchain windows/toolchain/gcc-arm-none-eabi/bin/../lib/gcc/arm-none-eabi/11.2.1/thumb/v7e-m+fp/hard\libc_nano.a(lib_a-strncmp.o)
 .debug_aranges
                0x00000980       0x28 c:/users/luke/desktop/mcha toolchain windows/toolchain/gcc-arm-none-eabi/bin/../lib/gcc/arm-none-eabi/11.2.1/thumb/v7e-m+fp/hard\libc_nano.a(lib_a-wbuf.o)
 .debug_aranges
                0x000009a8       0x28 c:/users/luke/desktop/mcha toolchain windows/toolchain/gcc-arm-none-eabi/bin/../lib/gcc/arm-none-eabi/11.2.1/thumb/v7e-m+fp/hard\libc_nano.a(lib_a-wctomb_r.o)
 .debug_aranges
                0x000009d0       0x20 c:/users/luke/desktop/mcha toolchain windows/toolchain/gcc-arm-none-eabi/bin/../lib/gcc/arm-none-eabi/11.2.1/thumb/v7e-m+fp/hard\libc_nano.a(lib_a-writer.o)
 .debug_aranges
                0x000009f0       0x20 c:/users/luke/desktop/mcha toolchain windows/toolchain/gcc-arm-none-eabi/bin/../lib/gcc/arm-none-eabi/11.2.1/thumb/v7e-m+fp/hard\libc_nano.a(lib_a-wsetup.o)
 .debug_aranges
                0x00000a10       0x28 c:/users/luke/desktop/mcha toolchain windows/toolchain/gcc-arm-none-eabi/bin/../lib/gcc/arm-none-eabi/11.2.1/thumb/v7e-m+fp/hard\libc_nano.a(lib_a-assert.o)
 .debug_aranges
                0x00000a38       0x20 c:/users/luke/desktop/mcha toolchain windows/toolchain/gcc-arm-none-eabi/bin/../lib/gcc/arm-none-eabi/11.2.1/thumb/v7e-m+fp/hard\libc_nano.a(lib_a-closer.o)
 .debug_aranges
                0x00000a58       0x20 c:/users/luke/desktop/mcha toolchain windows/toolchain/gcc-arm-none-eabi/bin/../lib/gcc/arm-none-eabi/11.2.1/thumb/v7e-m+fp/hard\libc_nano.a(lib_a-fstatr.o)
 .debug_aranges
                0x00000a78       0x20 c:/users/luke/desktop/mcha toolchain windows/toolchain/gcc-arm-none-eabi/bin/../lib/gcc/arm-none-eabi/11.2.1/thumb/v7e-m+fp/hard\libc_nano.a(lib_a-fvwrite.o)
 .debug_aranges
                0x00000a98       0x20 c:/users/luke/desktop/mcha toolchain windows/toolchain/gcc-arm-none-eabi/bin/../lib/gcc/arm-none-eabi/11.2.1/thumb/v7e-m+fp/hard\libc_nano.a(lib_a-isattyr.o)
 .debug_aranges
                0x00000ab8       0x20 c:/users/luke/desktop/mcha toolchain windows/toolchain/gcc-arm-none-eabi/bin/../lib/gcc/arm-none-eabi/11.2.1/thumb/v7e-m+fp/hard\libc_nano.a(lib_a-lseekr.o)
 .debug_aranges
                0x00000ad8       0x20 c:/users/luke/desktop/mcha toolchain windows/toolchain/gcc-arm-none-eabi/bin/../lib/gcc/arm-none-eabi/11.2.1/thumb/v7e-m+fp/hard\libc_nano.a(lib_a-memmove.o)
 .debug_aranges
                0x00000af8       0x20 c:/users/luke/desktop/mcha toolchain windows/toolchain/gcc-arm-none-eabi/bin/../lib/gcc/arm-none-eabi/11.2.1/thumb/v7e-m+fp/hard\libc_nano.a(lib_a-nano-reallocr.o)
 .debug_aranges
                0x00000b18       0x20 c:/users/luke/desktop/mcha toolchain windows/toolchain/gcc-arm-none-eabi/bin/../lib/gcc/arm-none-eabi/11.2.1/thumb/v7e-m+fp/hard\libc_nano.a(lib_a-readr.o)
 .debug_aranges
                0x00000b38       0x20 c:/users/luke/desktop/mcha toolchain windows/toolchain/gcc-arm-none-eabi/bin/../lib/gcc/arm-none-eabi/11.2.1/thumb/v7e-m+fp/hard\libc_nano.a(lib_a-abort.o)
 .debug_aranges
                0x00000b58       0x20 c:/users/luke/desktop/mcha toolchain windows/toolchain/gcc-arm-none-eabi/bin/../lib/gcc/arm-none-eabi/11.2.1/thumb/v7e-m+fp/hard\libc_nano.a(lib_a-nano-msizer.o)
 .debug_aranges
                0x00000b78       0x58 c:/users/luke/desktop/mcha toolchain windows/toolchain/gcc-arm-none-eabi/bin/../lib/gcc/arm-none-eabi/11.2.1/thumb/v7e-m+fp/hard\libc_nano.a(lib_a-signal.o)
 .debug_aranges
                0x00000bd0       0x28 c:/users/luke/desktop/mcha toolchain windows/toolchain/gcc-arm-none-eabi/bin/../lib/gcc/arm-none-eabi/11.2.1/thumb/v7e-m+fp/hard\libc_nano.a(lib_a-signalr.o)
 .debug_aranges
                0x00000bf8       0x20 c:/users/luke/desktop/mcha toolchain windows/toolchain/gcc-arm-none-eabi/bin/../lib/gcc/arm-none-eabi/11.2.1/thumb/v7e-m+fp/hard\libgcc.a(_arm_muldf3.o)
 .debug_aranges
                0x00000c18       0x20 c:/users/luke/desktop/mcha toolchain windows/toolchain/gcc-arm-none-eabi/bin/../lib/gcc/arm-none-eabi/11.2.1/thumb/v7e-m+fp/hard\libgcc.a(_arm_addsubdf3.o)
 .debug_aranges
                0x00000c38       0x20 c:/users/luke/desktop/mcha toolchain windows/toolchain/gcc-arm-none-eabi/bin/../lib/gcc/arm-none-eabi/11.2.1/thumb/v7e-m+fp/hard\libgcc.a(_arm_muldivdf3.o)
 .debug_aranges
                0x00000c58       0x20 c:/users/luke/desktop/mcha toolchain windows/toolchain/gcc-arm-none-eabi/bin/../lib/gcc/arm-none-eabi/11.2.1/thumb/v7e-m+fp/hard\libgcc.a(_arm_cmpdf2.o)
 .debug_aranges
                0x00000c78       0x20 c:/users/luke/desktop/mcha toolchain windows/toolchain/gcc-arm-none-eabi/bin/../lib/gcc/arm-none-eabi/11.2.1/thumb/v7e-m+fp/hard\libgcc.a(_arm_unorddf2.o)
 .debug_aranges
                0x00000c98       0x20 c:/users/luke/desktop/mcha toolchain windows/toolchain/gcc-arm-none-eabi/bin/../lib/gcc/arm-none-eabi/11.2.1/thumb/v7e-m+fp/hard\libgcc.a(_arm_fixdfsi.o)
 .debug_aranges
                0x00000cb8       0x20 c:/users/luke/desktop/mcha toolchain windows/toolchain/gcc-arm-none-eabi/bin/../lib/gcc/arm-none-eabi/11.2.1/thumb/v7e-m+fp/hard\libgcc.a(_arm_fixunsdfsi.o)
 .debug_aranges
                0x00000cd8       0x20 c:/users/luke/desktop/mcha toolchain windows/toolchain/gcc-arm-none-eabi/bin/../lib/gcc/arm-none-eabi/11.2.1/thumb/v7e-m+fp/hard\libgcc.a(_arm_truncdfsf2.o)
 .debug_aranges
                0x00000cf8       0x20 c:/users/luke/desktop/mcha toolchain windows/toolchain/gcc-arm-none-eabi/bin/../lib/gcc/arm-none-eabi/11.2.1/thumb/v7e-m+fp/hard\libgcc.a(_fixdfdi.o)
 .debug_aranges
                0x00000d18       0x20 c:/users/luke/desktop/mcha toolchain windows/toolchain/gcc-arm-none-eabi/bin/../lib/gcc/arm-none-eabi/11.2.1/thumb/v7e-m+fp/hard\libgcc.a(_fixunsdfdi.o)
 .debug_aranges
                0x00000d38       0x20 c:/users/luke/desktop/mcha toolchain windows/toolchain/gcc-arm-none-eabi/bin/../lib/gcc/arm-none-eabi/11.2.1/thumb/v7e-m+fp/hard\libnosys.a(close.o)
 .debug_aranges
                0x00000d58       0x20 c:/users/luke/desktop/mcha toolchain windows/toolchain/gcc-arm-none-eabi/bin/../lib/gcc/arm-none-eabi/11.2.1/thumb/v7e-m+fp/hard\libnosys.a(fstat.o)
 .debug_aranges
                0x00000d78       0x20 c:/users/luke/desktop/mcha toolchain windows/toolchain/gcc-arm-none-eabi/bin/../lib/gcc/arm-none-eabi/11.2.1/thumb/v7e-m+fp/hard\libnosys.a(getpid.o)
 .debug_aranges
                0x00000d98       0x20 c:/users/luke/desktop/mcha toolchain windows/toolchain/gcc-arm-none-eabi/bin/../lib/gcc/arm-none-eabi/11.2.1/thumb/v7e-m+fp/hard\libnosys.a(isatty.o)
 .debug_aranges
                0x00000db8       0x20 c:/users/luke/desktop/mcha toolchain windows/toolchain/gcc-arm-none-eabi/bin/../lib/gcc/arm-none-eabi/11.2.1/thumb/v7e-m+fp/hard\libnosys.a(kill.o)
 .debug_aranges
                0x00000dd8       0x20 c:/users/luke/desktop/mcha toolchain windows/toolchain/gcc-arm-none-eabi/bin/../lib/gcc/arm-none-eabi/11.2.1/thumb/v7e-m+fp/hard\libnosys.a(lseek.o)
 .debug_aranges
                0x00000df8       0x20 c:/users/luke/desktop/mcha toolchain windows/toolchain/gcc-arm-none-eabi/bin/../lib/gcc/arm-none-eabi/11.2.1/thumb/v7e-m+fp/hard\libnosys.a(_exit.o)

.debug_str      0x00000000     0x3e00
 .debug_str     0x00000000       0xa3 c:/users/luke/desktop/mcha toolchain windows/toolchain/gcc-arm-none-eabi/bin/../lib/gcc/arm-none-eabi/11.2.1/thumb/v7e-m+fp/hard/crt0.o
 .debug_str     0x000000a3       0x82 c:/users/luke/desktop/mcha toolchain windows/toolchain/gcc-arm-none-eabi/bin/../lib/gcc/arm-none-eabi/11.2.1/thumb/v7e-m+fp/hard\libgcc.a(_aeabi_ldivmod.o)
                                 0x8e (size before relaxing)
 .debug_str     0x00000125       0x8e c:/users/luke/desktop/mcha toolchain windows/toolchain/gcc-arm-none-eabi/bin/../lib/gcc/arm-none-eabi/11.2.1/thumb/v7e-m+fp/hard\libgcc.a(_aeabi_uldivmod.o)
 .debug_str     0x00000125      0x5f1 c:/users/luke/desktop/mcha toolchain windows/toolchain/gcc-arm-none-eabi/bin/../lib/gcc/arm-none-eabi/11.2.1/thumb/v7e-m+fp/hard\libgcc.a(_udivmoddi4.o)
                                0x6a4 (size before relaxing)
 .debug_str     0x00000716        0xc c:/users/luke/desktop/mcha toolchain windows/toolchain/gcc-arm-none-eabi/bin/../lib/gcc/arm-none-eabi/11.2.1/thumb/v7e-m+fp/hard\libgcc.a(_dvmd_tls.o)
                                 0x92 (size before relaxing)
 .debug_str     0x00000722      0x17b c:/users/luke/desktop/mcha toolchain windows/toolchain/gcc-arm-none-eabi/bin/../lib/gcc/arm-none-eabi/11.2.1/thumb/v7e-m+fp/hard\libc_nano.a(lib_a-ctype_.o)
                                0x210 (size before relaxing)
 .debug_str     0x0000089d      0x3f1 c:/users/luke/desktop/mcha toolchain windows/toolchain/gcc-arm-none-eabi/bin/../lib/gcc/arm-none-eabi/11.2.1/thumb/v7e-m+fp/hard\libc_nano.a(lib_a-exit.o)
                                0x594 (size before relaxing)
 .debug_str     0x00000c8e      0x10a c:/users/luke/desktop/mcha toolchain windows/toolchain/gcc-arm-none-eabi/bin/../lib/gcc/arm-none-eabi/11.2.1/thumb/v7e-m+fp/hard\libc_nano.a(lib_a-getchar.o)
                                0x59b (size before relaxing)
 .debug_str     0x00000d98       0xb1 c:/users/luke/desktop/mcha toolchain windows/toolchain/gcc-arm-none-eabi/bin/../lib/gcc/arm-none-eabi/11.2.1/thumb/v7e-m+fp/hard\libc_nano.a(lib_a-getc.o)
                                0x5ea (size before relaxing)
 .debug_str     0x00000e49       0xf2 c:/users/luke/desktop/mcha toolchain windows/toolchain/gcc-arm-none-eabi/bin/../lib/gcc/arm-none-eabi/11.2.1/thumb/v7e-m+fp/hard\libc_nano.a(lib_a-impure.o)
                                0x5ca (size before relaxing)
 .debug_str     0x00000f3b      0x142 c:/users/luke/desktop/mcha toolchain windows/toolchain/gcc-arm-none-eabi/bin/../lib/gcc/arm-none-eabi/11.2.1/thumb/v7e-m+fp/hard\libc_nano.a(lib_a-init.o)
                                0x277 (size before relaxing)
 .debug_str     0x0000107d       0x80 c:/users/luke/desktop/mcha toolchain windows/toolchain/gcc-arm-none-eabi/bin/../lib/gcc/arm-none-eabi/11.2.1/thumb/v7e-m+fp/hard\libc_nano.a(lib_a-malloc.o)
                                0x59f (size before relaxing)
 .debug_str     0x000010fd      0x112 c:/users/luke/desktop/mcha toolchain windows/toolchain/gcc-arm-none-eabi/bin/../lib/gcc/arm-none-eabi/11.2.1/thumb/v7e-m+fp/hard\libc_nano.a(lib_a-memcpy-stub.o)
                                0x23b (size before relaxing)
 .debug_str     0x0000120f       0xef c:/users/luke/desktop/mcha toolchain windows/toolchain/gcc-arm-none-eabi/bin/../lib/gcc/arm-none-eabi/11.2.1/thumb/v7e-m+fp/hard\libc_nano.a(lib_a-memset.o)
                                0x218 (size before relaxing)
 .debug_str     0x000012fe       0xef c:/users/luke/desktop/mcha toolchain windows/toolchain/gcc-arm-none-eabi/bin/../lib/gcc/arm-none-eabi/11.2.1/thumb/v7e-m+fp/hard\libc_nano.a(lib_a-mstats.o)
                                0x62e (size before relaxing)
 .debug_str     0x000013ed       0xdb c:/users/luke/desktop/mcha toolchain windows/toolchain/gcc-arm-none-eabi/bin/../lib/gcc/arm-none-eabi/11.2.1/thumb/v7e-m+fp/hard\libc_nano.a(lib_a-nano-freer.o)
                                0x601 (size before relaxing)
 .debug_str     0x000014c8       0x5e c:/users/luke/desktop/mcha toolchain windows/toolchain/gcc-arm-none-eabi/bin/../lib/gcc/arm-none-eabi/11.2.1/thumb/v7e-m+fp/hard\libc_nano.a(lib_a-nano-mallinfor.o)
                                0x687 (size before relaxing)
 .debug_str     0x00001526       0x41 c:/users/luke/desktop/mcha toolchain windows/toolchain/gcc-arm-none-eabi/bin/../lib/gcc/arm-none-eabi/11.2.1/thumb/v7e-m+fp/hard\libc_nano.a(lib_a-nano-mallocr.o)
                                0x660 (size before relaxing)
 .debug_str     0x00001567       0x21 c:/users/luke/desktop/mcha toolchain windows/toolchain/gcc-arm-none-eabi/bin/../lib/gcc/arm-none-eabi/11.2.1/thumb/v7e-m+fp/hard\libc_nano.a(lib_a-nano-malloptr.o)
                                0x59e (size before relaxing)
 .debug_str     0x00001588      0x61f c:/users/luke/desktop/mcha toolchain windows/toolchain/gcc-arm-none-eabi/bin/../lib/gcc/arm-none-eabi/11.2.1/thumb/v7e-m+fp/hard\libc_nano.a(lib_a-nano-mallstatsr.o)
 .debug_str     0x00001588      0x30e c:/users/luke/desktop/mcha toolchain windows/toolchain/gcc-arm-none-eabi/bin/../lib/gcc/arm-none-eabi/11.2.1/thumb/v7e-m+fp/hard\libc_nano.a(lib_a-nano-vfprintf_float.o)
                                0x917 (size before relaxing)
 .debug_str     0x00001896       0xa2 c:/users/luke/desktop/mcha toolchain windows/toolchain/gcc-arm-none-eabi/bin/../lib/gcc/arm-none-eabi/11.2.1/thumb/v7e-m+fp/hard\libc_nano.a(lib_a-nano-vfprintf_i.o)
                                0x858 (size before relaxing)
 .debug_str     0x00001938      0x12e c:/users/luke/desktop/mcha toolchain windows/toolchain/gcc-arm-none-eabi/bin/../lib/gcc/arm-none-eabi/11.2.1/thumb/v7e-m+fp/hard\libc_nano.a(lib_a-nano-vfscanf_float.o)
                                0x87c (size before relaxing)
 .debug_str     0x00001a66       0x70 c:/users/luke/desktop/mcha toolchain windows/toolchain/gcc-arm-none-eabi/bin/../lib/gcc/arm-none-eabi/11.2.1/thumb/v7e-m+fp/hard\libc_nano.a(lib_a-printf.o)
                                0x5bc (size before relaxing)
 .debug_str     0x00001ad6       0x85 c:/users/luke/desktop/mcha toolchain windows/toolchain/gcc-arm-none-eabi/bin/../lib/gcc/arm-none-eabi/11.2.1/thumb/v7e-m+fp/hard\libc_nano.a(lib_a-reent.o)
                                0x5aa (size before relaxing)
 .debug_str     0x00001b5b       0x6c c:/users/luke/desktop/mcha toolchain windows/toolchain/gcc-arm-none-eabi/bin/../lib/gcc/arm-none-eabi/11.2.1/thumb/v7e-m+fp/hard\libc_nano.a(lib_a-rget.o)
                                0x5e4 (size before relaxing)
 .debug_str     0x00001bc7       0x64 c:/users/luke/desktop/mcha toolchain windows/toolchain/gcc-arm-none-eabi/bin/../lib/gcc/arm-none-eabi/11.2.1/thumb/v7e-m+fp/hard\libc_nano.a(lib_a-sbrkr.o)
                                0x582 (size before relaxing)
 .debug_str     0x00001c2b       0x89 c:/users/luke/desktop/mcha toolchain windows/toolchain/gcc-arm-none-eabi/bin/../lib/gcc/arm-none-eabi/11.2.1/thumb/v7e-m+fp/hard\libc_nano.a(lib_a-setvbuf.o)
                                0x61d (size before relaxing)
 .debug_str     0x00001cb4      0x189 c:/users/luke/desktop/mcha toolchain windows/toolchain/gcc-arm-none-eabi/bin/../lib/gcc/arm-none-eabi/11.2.1/thumb/v7e-m+fp/hard\libc_nano.a(lib_a-sf_nan.o)
                                0x230 (size before relaxing)
 .debug_str     0x00001e3d       0x73 c:/users/luke/desktop/mcha toolchain windows/toolchain/gcc-arm-none-eabi/bin/../lib/gcc/arm-none-eabi/11.2.1/thumb/v7e-m+fp/hard\libc_nano.a(lib_a-sprintf.o)
                                0x5b8 (size before relaxing)
 .debug_str     0x00001eb0       0x12 c:/users/luke/desktop/mcha toolchain windows/toolchain/gcc-arm-none-eabi/bin/../lib/gcc/arm-none-eabi/11.2.1/thumb/v7e-m+fp/hard\libc_nano.a(lib_a-strcmp.o)
                                 0xb0 (size before relaxing)
 .debug_str     0x00001ec2       0x13 c:/users/luke/desktop/mcha toolchain windows/toolchain/gcc-arm-none-eabi/bin/../lib/gcc/arm-none-eabi/11.2.1/thumb/v7e-m+fp/hard\libc_nano.a(lib_a-strlen.o)
                                 0xb1 (size before relaxing)
 .debug_str     0x00001ed5      0x399 c:/users/luke/desktop/mcha toolchain windows/toolchain/gcc-arm-none-eabi/bin/../lib/gcc/arm-none-eabi/11.2.1/thumb/v7e-m+fp/hard\libc_nano.a(lib_a-strtod.o)
                                0xb44 (size before relaxing)
 .debug_str     0x0000226e       0xa3 c:/users/luke/desktop/mcha toolchain windows/toolchain/gcc-arm-none-eabi/bin/../lib/gcc/arm-none-eabi/11.2.1/thumb/v7e-m+fp/hard\libc_nano.a(lib_a-strtol.o)
                                0x7fb (size before relaxing)
 .debug_str     0x00002311       0x6e c:/users/luke/desktop/mcha toolchain windows/toolchain/gcc-arm-none-eabi/bin/../lib/gcc/arm-none-eabi/11.2.1/thumb/v7e-m+fp/hard\libc_nano.a(lib_a-vprintf.o)
                                0x5c5 (size before relaxing)
 .debug_str     0x0000237f      0x141 c:/users/luke/desktop/mcha toolchain windows/toolchain/gcc-arm-none-eabi/bin/../lib/gcc/arm-none-eabi/11.2.1/thumb/v7e-m+fp/hard\libc_nano.a(lib_a-dtoa.o)
                                0x959 (size before relaxing)
 .debug_str     0x000024c0       0xe5 c:/users/luke/desktop/mcha toolchain windows/toolchain/gcc-arm-none-eabi/bin/../lib/gcc/arm-none-eabi/11.2.1/thumb/v7e-m+fp/hard\libc_nano.a(lib_a-errno.o)
                                0x573 (size before relaxing)
 .debug_str     0x000025a5       0x8a c:/users/luke/desktop/mcha toolchain windows/toolchain/gcc-arm-none-eabi/bin/../lib/gcc/arm-none-eabi/11.2.1/thumb/v7e-m+fp/hard\libc_nano.a(lib_a-fflush.o)
                                0x62a (size before relaxing)
 .debug_str     0x0000262f      0x213 c:/users/luke/desktop/mcha toolchain windows/toolchain/gcc-arm-none-eabi/bin/../lib/gcc/arm-none-eabi/11.2.1/thumb/v7e-m+fp/hard\libc_nano.a(lib_a-findfp.o)
                                0x7d6 (size before relaxing)
 .debug_str     0x00002842       0x66 c:/users/luke/desktop/mcha toolchain windows/toolchain/gcc-arm-none-eabi/bin/../lib/gcc/arm-none-eabi/11.2.1/thumb/v7e-m+fp/hard\libc_nano.a(lib_a-fprintf.o)
                                0x5b7 (size before relaxing)
 .debug_str     0x000028a8       0x68 c:/users/luke/desktop/mcha toolchain windows/toolchain/gcc-arm-none-eabi/bin/../lib/gcc/arm-none-eabi/11.2.1/thumb/v7e-m+fp/hard\libc_nano.a(lib_a-fwalk.o)
                                0x590 (size before relaxing)
 .debug_str     0x00002910       0xfd c:/users/luke/desktop/mcha toolchain windows/toolchain/gcc-arm-none-eabi/bin/../lib/gcc/arm-none-eabi/11.2.1/thumb/v7e-m+fp/hard\libc_nano.a(lib_a-gdtoa-gethex.o)
                                0x9aa (size before relaxing)
 .debug_str     0x00002a0d       0x69 c:/users/luke/desktop/mcha toolchain windows/toolchain/gcc-arm-none-eabi/bin/../lib/gcc/arm-none-eabi/11.2.1/thumb/v7e-m+fp/hard\libc_nano.a(lib_a-gdtoa-hexnan.o)
                                0x347 (size before relaxing)
 .debug_str     0x00002a76      0x124 c:/users/luke/desktop/mcha toolchain windows/toolchain/gcc-arm-none-eabi/bin/../lib/gcc/arm-none-eabi/11.2.1/thumb/v7e-m+fp/hard\libc_nano.a(lib_a-lnumeric.o)
                                0x7a2 (size before relaxing)
 .debug_str     0x00002b9a       0x88 c:/users/luke/desktop/mcha toolchain windows/toolchain/gcc-arm-none-eabi/bin/../lib/gcc/arm-none-eabi/11.2.1/thumb/v7e-m+fp/hard\libc_nano.a(lib_a-localeconv.o)
                                0x7c0 (size before relaxing)
 .debug_str     0x00002c22       0xc0 c:/users/luke/desktop/mcha toolchain windows/toolchain/gcc-arm-none-eabi/bin/../lib/gcc/arm-none-eabi/11.2.1/thumb/v7e-m+fp/hard\libc_nano.a(lib_a-locale.o)
                                0x7f9 (size before relaxing)
 .debug_str     0x00002ce2      0x188 c:/users/luke/desktop/mcha toolchain windows/toolchain/gcc-arm-none-eabi/bin/../lib/gcc/arm-none-eabi/11.2.1/thumb/v7e-m+fp/hard\libc_nano.a(lib_a-makebuf.o)
                                0x717 (size before relaxing)
 .debug_str     0x00002e6a       0x6d c:/users/luke/desktop/mcha toolchain windows/toolchain/gcc-arm-none-eabi/bin/../lib/gcc/arm-none-eabi/11.2.1/thumb/v7e-m+fp/hard\libc_nano.a(lib_a-mbtowc_r.o)
                                0x7a0 (size before relaxing)
 .debug_str     0x00002ed7        0x9 c:/users/luke/desktop/mcha toolchain windows/toolchain/gcc-arm-none-eabi/bin/../lib/gcc/arm-none-eabi/11.2.1/thumb/v7e-m+fp/hard\libc_nano.a(lib_a-memchr.o)
                                 0xa7 (size before relaxing)
 .debug_str     0x00002ee0       0x9d c:/users/luke/desktop/mcha toolchain windows/toolchain/gcc-arm-none-eabi/bin/../lib/gcc/arm-none-eabi/11.2.1/thumb/v7e-m+fp/hard\libc_nano.a(lib_a-mprec.o)
                                0x897 (size before relaxing)
 .debug_str     0x00002f7d        0x5 c:/users/luke/desktop/mcha toolchain windows/toolchain/gcc-arm-none-eabi/bin/../lib/gcc/arm-none-eabi/11.2.1/thumb/v7e-m+fp/hard\libc_nano.a(lib_a-nano-callocr.o)
                                0x5ad (size before relaxing)
 .debug_str     0x00002f82       0xf7 c:/users/luke/desktop/mcha toolchain windows/toolchain/gcc-arm-none-eabi/bin/../lib/gcc/arm-none-eabi/11.2.1/thumb/v7e-m+fp/hard\libc_nano.a(lib_a-nano-svfprintf.o)
                                0x8c1 (size before relaxing)
 .debug_str     0x00003079       0x4d c:/users/luke/desktop/mcha toolchain windows/toolchain/gcc-arm-none-eabi/bin/../lib/gcc/arm-none-eabi/11.2.1/thumb/v7e-m+fp/hard\libc_nano.a(lib_a-nano-vfprintf.o)
                                0x925 (size before relaxing)
 .debug_str     0x000030c6       0x6c c:/users/luke/desktop/mcha toolchain windows/toolchain/gcc-arm-none-eabi/bin/../lib/gcc/arm-none-eabi/11.2.1/thumb/v7e-m+fp/hard\libc_nano.a(lib_a-refill.o)
                                0x625 (size before relaxing)
 .debug_str     0x00003132       0x5a c:/users/luke/desktop/mcha toolchain windows/toolchain/gcc-arm-none-eabi/bin/../lib/gcc/arm-none-eabi/11.2.1/thumb/v7e-m+fp/hard\libc_nano.a(lib_a-s_nan.o)
                                0x22a (size before relaxing)
 .debug_str     0x0000318c       0x97 c:/users/luke/desktop/mcha toolchain windows/toolchain/gcc-arm-none-eabi/bin/../lib/gcc/arm-none-eabi/11.2.1/thumb/v7e-m+fp/hard\libc_nano.a(lib_a-stdio.o)
                                0x5e6 (size before relaxing)
 .debug_str     0x00003223       0x5c c:/users/luke/desktop/mcha toolchain windows/toolchain/gcc-arm-none-eabi/bin/../lib/gcc/arm-none-eabi/11.2.1/thumb/v7e-m+fp/hard\libc_nano.a(lib_a-strncmp.o)
                                0x21a (size before relaxing)
 .debug_str     0x0000327f       0x60 c:/users/luke/desktop/mcha toolchain windows/toolchain/gcc-arm-none-eabi/bin/../lib/gcc/arm-none-eabi/11.2.1/thumb/v7e-m+fp/hard\libc_nano.a(lib_a-wbuf.o)
                                0x5ee (size before relaxing)
 .debug_str     0x000032df       0x6e c:/users/luke/desktop/mcha toolchain windows/toolchain/gcc-arm-none-eabi/bin/../lib/gcc/arm-none-eabi/11.2.1/thumb/v7e-m+fp/hard\libc_nano.a(lib_a-wctomb_r.o)
                                0x7a7 (size before relaxing)
 .debug_str     0x0000334d       0x5a c:/users/luke/desktop/mcha toolchain windows/toolchain/gcc-arm-none-eabi/bin/../lib/gcc/arm-none-eabi/11.2.1/thumb/v7e-m+fp/hard\libc_nano.a(lib_a-writer.o)
                                0x57f (size before relaxing)
 .debug_str     0x000033a7       0x5a c:/users/luke/desktop/mcha toolchain windows/toolchain/gcc-arm-none-eabi/bin/../lib/gcc/arm-none-eabi/11.2.1/thumb/v7e-m+fp/hard\libc_nano.a(lib_a-wsetup.o)
                                0x5e9 (size before relaxing)
 .debug_str     0x00003401       0x7a c:/users/luke/desktop/mcha toolchain windows/toolchain/gcc-arm-none-eabi/bin/../lib/gcc/arm-none-eabi/11.2.1/thumb/v7e-m+fp/hard\libc_nano.a(lib_a-assert.o)
                                0x5b3 (size before relaxing)
 .debug_str     0x0000347b       0x5a c:/users/luke/desktop/mcha toolchain windows/toolchain/gcc-arm-none-eabi/bin/../lib/gcc/arm-none-eabi/11.2.1/thumb/v7e-m+fp/hard\libc_nano.a(lib_a-closer.o)
                                0x56f (size before relaxing)
 .debug_str     0x000034d5       0x67 c:/users/luke/desktop/mcha toolchain windows/toolchain/gcc-arm-none-eabi/bin/../lib/gcc/arm-none-eabi/11.2.1/thumb/v7e-m+fp/hard\libc_nano.a(lib_a-fstatr.o)
                                0x6c1 (size before relaxing)
 .debug_str     0x0000353c       0x6a c:/users/luke/desktop/mcha toolchain windows/toolchain/gcc-arm-none-eabi/bin/../lib/gcc/arm-none-eabi/11.2.1/thumb/v7e-m+fp/hard\libc_nano.a(lib_a-fvwrite.o)
                                0x61d (size before relaxing)
 .debug_str     0x000035a6       0x63 c:/users/luke/desktop/mcha toolchain windows/toolchain/gcc-arm-none-eabi/bin/../lib/gcc/arm-none-eabi/11.2.1/thumb/v7e-m+fp/hard\libc_nano.a(lib_a-isattyr.o)
                                0x579 (size before relaxing)
 .debug_str     0x00003609       0x61 c:/users/luke/desktop/mcha toolchain windows/toolchain/gcc-arm-none-eabi/bin/../lib/gcc/arm-none-eabi/11.2.1/thumb/v7e-m+fp/hard\libc_nano.a(lib_a-lseekr.o)
                                0x57d (size before relaxing)
 .debug_str     0x0000366a       0x6e c:/users/luke/desktop/mcha toolchain windows/toolchain/gcc-arm-none-eabi/bin/../lib/gcc/arm-none-eabi/11.2.1/thumb/v7e-m+fp/hard\libc_nano.a(lib_a-memmove.o)
                                0x233 (size before relaxing)
 .debug_str     0x000036d8       0x2c c:/users/luke/desktop/mcha toolchain windows/toolchain/gcc-arm-none-eabi/bin/../lib/gcc/arm-none-eabi/11.2.1/thumb/v7e-m+fp/hard\libc_nano.a(lib_a-nano-reallocr.o)
                                0x5f4 (size before relaxing)
 .debug_str     0x00003704       0x59 c:/users/luke/desktop/mcha toolchain windows/toolchain/gcc-arm-none-eabi/bin/../lib/gcc/arm-none-eabi/11.2.1/thumb/v7e-m+fp/hard\libc_nano.a(lib_a-readr.o)
                                0x57d (size before relaxing)
 .debug_str     0x0000375d       0x60 c:/users/luke/desktop/mcha toolchain windows/toolchain/gcc-arm-none-eabi/bin/../lib/gcc/arm-none-eabi/11.2.1/thumb/v7e-m+fp/hard\libc_nano.a(lib_a-abort.o)
                                0x21b (size before relaxing)
 .debug_str     0x000037bd        0xf c:/users/luke/desktop/mcha toolchain windows/toolchain/gcc-arm-none-eabi/bin/../lib/gcc/arm-none-eabi/11.2.1/thumb/v7e-m+fp/hard\libc_nano.a(lib_a-nano-msizer.o)
                                0x5c9 (size before relaxing)
 .debug_str     0x000037cc      0x14e c:/users/luke/desktop/mcha toolchain windows/toolchain/gcc-arm-none-eabi/bin/../lib/gcc/arm-none-eabi/11.2.1/thumb/v7e-m+fp/hard\libc_nano.a(lib_a-signal.o)
                                0x601 (size before relaxing)
 .debug_str     0x0000391a       0x71 c:/users/luke/desktop/mcha toolchain windows/toolchain/gcc-arm-none-eabi/bin/../lib/gcc/arm-none-eabi/11.2.1/thumb/v7e-m+fp/hard\libc_nano.a(lib_a-signalr.o)
                                0x595 (size before relaxing)
 .debug_str     0x0000398b        0xd c:/users/luke/desktop/mcha toolchain windows/toolchain/gcc-arm-none-eabi/bin/../lib/gcc/arm-none-eabi/11.2.1/thumb/v7e-m+fp/hard\libgcc.a(_arm_muldf3.o)
                                 0x93 (size before relaxing)
 .debug_str     0x00003998       0x93 c:/users/luke/desktop/mcha toolchain windows/toolchain/gcc-arm-none-eabi/bin/../lib/gcc/arm-none-eabi/11.2.1/thumb/v7e-m+fp/hard\libgcc.a(_arm_addsubdf3.o)
 .debug_str     0x00003998       0x93 c:/users/luke/desktop/mcha toolchain windows/toolchain/gcc-arm-none-eabi/bin/../lib/gcc/arm-none-eabi/11.2.1/thumb/v7e-m+fp/hard\libgcc.a(_arm_muldivdf3.o)
 .debug_str     0x00003998       0x93 c:/users/luke/desktop/mcha toolchain windows/toolchain/gcc-arm-none-eabi/bin/../lib/gcc/arm-none-eabi/11.2.1/thumb/v7e-m+fp/hard\libgcc.a(_arm_cmpdf2.o)
 .debug_str     0x00003998       0x93 c:/users/luke/desktop/mcha toolchain windows/toolchain/gcc-arm-none-eabi/bin/../lib/gcc/arm-none-eabi/11.2.1/thumb/v7e-m+fp/hard\libgcc.a(_arm_unorddf2.o)
 .debug_str     0x00003998       0x93 c:/users/luke/desktop/mcha toolchain windows/toolchain/gcc-arm-none-eabi/bin/../lib/gcc/arm-none-eabi/11.2.1/thumb/v7e-m+fp/hard\libgcc.a(_arm_fixdfsi.o)
 .debug_str     0x00003998       0x93 c:/users/luke/desktop/mcha toolchain windows/toolchain/gcc-arm-none-eabi/bin/../lib/gcc/arm-none-eabi/11.2.1/thumb/v7e-m+fp/hard\libgcc.a(_arm_fixunsdfsi.o)
 .debug_str     0x00003998       0x93 c:/users/luke/desktop/mcha toolchain windows/toolchain/gcc-arm-none-eabi/bin/../lib/gcc/arm-none-eabi/11.2.1/thumb/v7e-m+fp/hard\libgcc.a(_arm_truncdfsf2.o)
 .debug_str     0x00003998       0xf0 c:/users/luke/desktop/mcha toolchain windows/toolchain/gcc-arm-none-eabi/bin/../lib/gcc/arm-none-eabi/11.2.1/thumb/v7e-m+fp/hard\libgcc.a(_fixdfdi.o)
                                0x67d (size before relaxing)
 .debug_str     0x00003a88      0x68c c:/users/luke/desktop/mcha toolchain windows/toolchain/gcc-arm-none-eabi/bin/../lib/gcc/arm-none-eabi/11.2.1/thumb/v7e-m+fp/hard\libgcc.a(_fixunsdfdi.o)
 .debug_str     0x00003a88      0x161 c:/users/luke/desktop/mcha toolchain windows/toolchain/gcc-arm-none-eabi/bin/../lib/gcc/arm-none-eabi/11.2.1/thumb/v7e-m+fp/hard\libnosys.a(close.o)
                                0x203 (size before relaxing)
 .debug_str     0x00003be9       0x59 c:/users/luke/desktop/mcha toolchain windows/toolchain/gcc-arm-none-eabi/bin/../lib/gcc/arm-none-eabi/11.2.1/thumb/v7e-m+fp/hard\libnosys.a(fstat.o)
                                0x34f (size before relaxing)
 .debug_str     0x00003c42       0x5a c:/users/luke/desktop/mcha toolchain windows/toolchain/gcc-arm-none-eabi/bin/../lib/gcc/arm-none-eabi/11.2.1/thumb/v7e-m+fp/hard\libnosys.a(getpid.o)
                                0x1fe (size before relaxing)
 .debug_str     0x00003c9c       0x5a c:/users/luke/desktop/mcha toolchain windows/toolchain/gcc-arm-none-eabi/bin/../lib/gcc/arm-none-eabi/11.2.1/thumb/v7e-m+fp/hard\libnosys.a(isatty.o)
                                0x203 (size before relaxing)
 .debug_str     0x00003cf6       0x58 c:/users/luke/desktop/mcha toolchain windows/toolchain/gcc-arm-none-eabi/bin/../lib/gcc/arm-none-eabi/11.2.1/thumb/v7e-m+fp/hard\libnosys.a(kill.o)
                                0x1fa (size before relaxing)
 .debug_str     0x00003d4e       0x59 c:/users/luke/desktop/mcha toolchain windows/toolchain/gcc-arm-none-eabi/bin/../lib/gcc/arm-none-eabi/11.2.1/thumb/v7e-m+fp/hard\libnosys.a(lseek.o)
                                0x201 (size before relaxing)
 .debug_str     0x00003da7       0x59 c:/users/luke/desktop/mcha toolchain windows/toolchain/gcc-arm-none-eabi/bin/../lib/gcc/arm-none-eabi/11.2.1/thumb/v7e-m+fp/hard\libnosys.a(_exit.o)
                                0x160 (size before relaxing)

.debug_frame    0x00000000     0x1a6c
 .debug_frame   0x00000000       0x44 c:/users/luke/desktop/mcha toolchain windows/toolchain/gcc-arm-none-eabi/bin/../lib/gcc/arm-none-eabi/11.2.1/thumb/v7e-m+fp/hard\libgcc.a(_aeabi_ldivmod.o)
 .debug_frame   0x00000044       0x2c c:/users/luke/desktop/mcha toolchain windows/toolchain/gcc-arm-none-eabi/bin/../lib/gcc/arm-none-eabi/11.2.1/thumb/v7e-m+fp/hard\libgcc.a(_aeabi_uldivmod.o)
 .debug_frame   0x00000070       0x34 c:/users/luke/desktop/mcha toolchain windows/toolchain/gcc-arm-none-eabi/bin/../lib/gcc/arm-none-eabi/11.2.1/thumb/v7e-m+fp/hard\libgcc.a(_udivmoddi4.o)
 .debug_frame   0x000000a4       0x28 c:/users/luke/desktop/mcha toolchain windows/toolchain/gcc-arm-none-eabi/bin/../lib/gcc/arm-none-eabi/11.2.1/thumb/v7e-m+fp/hard\libc_nano.a(lib_a-exit.o)
 .debug_frame   0x000000cc       0x48 c:/users/luke/desktop/mcha toolchain windows/toolchain/gcc-arm-none-eabi/bin/../lib/gcc/arm-none-eabi/11.2.1/thumb/v7e-m+fp/hard\libc_nano.a(lib_a-getchar.o)
 .debug_frame   0x00000114       0x60 c:/users/luke/desktop/mcha toolchain windows/toolchain/gcc-arm-none-eabi/bin/../lib/gcc/arm-none-eabi/11.2.1/thumb/v7e-m+fp/hard\libc_nano.a(lib_a-getc.o)
 .debug_frame   0x00000174       0x2c c:/users/luke/desktop/mcha toolchain windows/toolchain/gcc-arm-none-eabi/bin/../lib/gcc/arm-none-eabi/11.2.1/thumb/v7e-m+fp/hard\libc_nano.a(lib_a-init.o)
 .debug_frame   0x000001a0       0x30 c:/users/luke/desktop/mcha toolchain windows/toolchain/gcc-arm-none-eabi/bin/../lib/gcc/arm-none-eabi/11.2.1/thumb/v7e-m+fp/hard\libc_nano.a(lib_a-malloc.o)
 .debug_frame   0x000001d0       0x28 c:/users/luke/desktop/mcha toolchain windows/toolchain/gcc-arm-none-eabi/bin/../lib/gcc/arm-none-eabi/11.2.1/thumb/v7e-m+fp/hard\libc_nano.a(lib_a-memcpy-stub.o)
 .debug_frame   0x000001f8       0x20 c:/users/luke/desktop/mcha toolchain windows/toolchain/gcc-arm-none-eabi/bin/../lib/gcc/arm-none-eabi/11.2.1/thumb/v7e-m+fp/hard\libc_nano.a(lib_a-memset.o)
 .debug_frame   0x00000218       0x78 c:/users/luke/desktop/mcha toolchain windows/toolchain/gcc-arm-none-eabi/bin/../lib/gcc/arm-none-eabi/11.2.1/thumb/v7e-m+fp/hard\libc_nano.a(lib_a-mstats.o)
 .debug_frame   0x00000290       0x38 c:/users/luke/desktop/mcha toolchain windows/toolchain/gcc-arm-none-eabi/bin/../lib/gcc/arm-none-eabi/11.2.1/thumb/v7e-m+fp/hard\libc_nano.a(lib_a-nano-freer.o)
 .debug_frame   0x000002c8       0x2c c:/users/luke/desktop/mcha toolchain windows/toolchain/gcc-arm-none-eabi/bin/../lib/gcc/arm-none-eabi/11.2.1/thumb/v7e-m+fp/hard\libc_nano.a(lib_a-nano-mallinfor.o)
 .debug_frame   0x000002f4       0x4c c:/users/luke/desktop/mcha toolchain windows/toolchain/gcc-arm-none-eabi/bin/../lib/gcc/arm-none-eabi/11.2.1/thumb/v7e-m+fp/hard\libc_nano.a(lib_a-nano-mallocr.o)
 .debug_frame   0x00000340       0x20 c:/users/luke/desktop/mcha toolchain windows/toolchain/gcc-arm-none-eabi/bin/../lib/gcc/arm-none-eabi/11.2.1/thumb/v7e-m+fp/hard\libc_nano.a(lib_a-nano-malloptr.o)
 .debug_frame   0x00000360       0x38 c:/users/luke/desktop/mcha toolchain windows/toolchain/gcc-arm-none-eabi/bin/../lib/gcc/arm-none-eabi/11.2.1/thumb/v7e-m+fp/hard\libc_nano.a(lib_a-nano-mallstatsr.o)
 .debug_frame   0x00000398       0xa0 c:/users/luke/desktop/mcha toolchain windows/toolchain/gcc-arm-none-eabi/bin/../lib/gcc/arm-none-eabi/11.2.1/thumb/v7e-m+fp/hard\libc_nano.a(lib_a-nano-vfprintf_float.o)
 .debug_frame   0x00000438       0x60 c:/users/luke/desktop/mcha toolchain windows/toolchain/gcc-arm-none-eabi/bin/../lib/gcc/arm-none-eabi/11.2.1/thumb/v7e-m+fp/hard\libc_nano.a(lib_a-nano-vfprintf_i.o)
 .debug_frame   0x00000498       0x40 c:/users/luke/desktop/mcha toolchain windows/toolchain/gcc-arm-none-eabi/bin/../lib/gcc/arm-none-eabi/11.2.1/thumb/v7e-m+fp/hard\libc_nano.a(lib_a-nano-vfscanf_float.o)
 .debug_frame   0x000004d8       0x74 c:/users/luke/desktop/mcha toolchain windows/toolchain/gcc-arm-none-eabi/bin/../lib/gcc/arm-none-eabi/11.2.1/thumb/v7e-m+fp/hard\libc_nano.a(lib_a-printf.o)
 .debug_frame   0x0000054c       0x5c c:/users/luke/desktop/mcha toolchain windows/toolchain/gcc-arm-none-eabi/bin/../lib/gcc/arm-none-eabi/11.2.1/thumb/v7e-m+fp/hard\libc_nano.a(lib_a-reent.o)
 .debug_frame   0x000005a8       0x3c c:/users/luke/desktop/mcha toolchain windows/toolchain/gcc-arm-none-eabi/bin/../lib/gcc/arm-none-eabi/11.2.1/thumb/v7e-m+fp/hard\libc_nano.a(lib_a-rget.o)
 .debug_frame   0x000005e4       0x2c c:/users/luke/desktop/mcha toolchain windows/toolchain/gcc-arm-none-eabi/bin/../lib/gcc/arm-none-eabi/11.2.1/thumb/v7e-m+fp/hard\libc_nano.a(lib_a-sbrkr.o)
 .debug_frame   0x00000610       0x38 c:/users/luke/desktop/mcha toolchain windows/toolchain/gcc-arm-none-eabi/bin/../lib/gcc/arm-none-eabi/11.2.1/thumb/v7e-m+fp/hard\libc_nano.a(lib_a-setvbuf.o)
 .debug_frame   0x00000648       0x20 c:/users/luke/desktop/mcha toolchain windows/toolchain/gcc-arm-none-eabi/bin/../lib/gcc/arm-none-eabi/11.2.1/thumb/v7e-m+fp/hard\libc_nano.a(lib_a-sf_nan.o)
 .debug_frame   0x00000668       0x6c c:/users/luke/desktop/mcha toolchain windows/toolchain/gcc-arm-none-eabi/bin/../lib/gcc/arm-none-eabi/11.2.1/thumb/v7e-m+fp/hard\libc_nano.a(lib_a-sprintf.o)
 .debug_frame   0x000006d4       0x20 c:/users/luke/desktop/mcha toolchain windows/toolchain/gcc-arm-none-eabi/bin/../lib/gcc/arm-none-eabi/11.2.1/thumb/v7e-m+fp/hard\libc_nano.a(lib_a-strcmp.o)
 .debug_frame   0x000006f4      0x12c c:/users/luke/desktop/mcha toolchain windows/toolchain/gcc-arm-none-eabi/bin/../lib/gcc/arm-none-eabi/11.2.1/thumb/v7e-m+fp/hard\libc_nano.a(lib_a-strtod.o)
 .debug_frame   0x00000820       0x64 c:/users/luke/desktop/mcha toolchain windows/toolchain/gcc-arm-none-eabi/bin/../lib/gcc/arm-none-eabi/11.2.1/thumb/v7e-m+fp/hard\libc_nano.a(lib_a-strtol.o)
 .debug_frame   0x00000884       0x54 c:/users/luke/desktop/mcha toolchain windows/toolchain/gcc-arm-none-eabi/bin/../lib/gcc/arm-none-eabi/11.2.1/thumb/v7e-m+fp/hard\libc_nano.a(lib_a-vprintf.o)
 .debug_frame   0x000008d8       0x88 c:/users/luke/desktop/mcha toolchain windows/toolchain/gcc-arm-none-eabi/bin/../lib/gcc/arm-none-eabi/11.2.1/thumb/v7e-m+fp/hard\libc_nano.a(lib_a-dtoa.o)
 .debug_frame   0x00000960       0x20 c:/users/luke/desktop/mcha toolchain windows/toolchain/gcc-arm-none-eabi/bin/../lib/gcc/arm-none-eabi/11.2.1/thumb/v7e-m+fp/hard\libc_nano.a(lib_a-errno.o)
 .debug_frame   0x00000980       0x68 c:/users/luke/desktop/mcha toolchain windows/toolchain/gcc-arm-none-eabi/bin/../lib/gcc/arm-none-eabi/11.2.1/thumb/v7e-m+fp/hard\libc_nano.a(lib_a-fflush.o)
 .debug_frame   0x000009e8      0x11c c:/users/luke/desktop/mcha toolchain windows/toolchain/gcc-arm-none-eabi/bin/../lib/gcc/arm-none-eabi/11.2.1/thumb/v7e-m+fp/hard\libc_nano.a(lib_a-findfp.o)
 .debug_frame   0x00000b04       0x64 c:/users/luke/desktop/mcha toolchain windows/toolchain/gcc-arm-none-eabi/bin/../lib/gcc/arm-none-eabi/11.2.1/thumb/v7e-m+fp/hard\libc_nano.a(lib_a-fprintf.o)
 .debug_frame   0x00000b68       0x54 c:/users/luke/desktop/mcha toolchain windows/toolchain/gcc-arm-none-eabi/bin/../lib/gcc/arm-none-eabi/11.2.1/thumb/v7e-m+fp/hard\libc_nano.a(lib_a-fwalk.o)
 .debug_frame   0x00000bbc       0x84 c:/users/luke/desktop/mcha toolchain windows/toolchain/gcc-arm-none-eabi/bin/../lib/gcc/arm-none-eabi/11.2.1/thumb/v7e-m+fp/hard\libc_nano.a(lib_a-gdtoa-gethex.o)
 .debug_frame   0x00000c40       0x74 c:/users/luke/desktop/mcha toolchain windows/toolchain/gcc-arm-none-eabi/bin/../lib/gcc/arm-none-eabi/11.2.1/thumb/v7e-m+fp/hard\libc_nano.a(lib_a-gdtoa-hexnan.o)
 .debug_frame   0x00000cb4       0x20 c:/users/luke/desktop/mcha toolchain windows/toolchain/gcc-arm-none-eabi/bin/../lib/gcc/arm-none-eabi/11.2.1/thumb/v7e-m+fp/hard\libc_nano.a(lib_a-lnumeric.o)
 .debug_frame   0x00000cd4       0x40 c:/users/luke/desktop/mcha toolchain windows/toolchain/gcc-arm-none-eabi/bin/../lib/gcc/arm-none-eabi/11.2.1/thumb/v7e-m+fp/hard\libc_nano.a(lib_a-localeconv.o)
 .debug_frame   0x00000d14       0x48 c:/users/luke/desktop/mcha toolchain windows/toolchain/gcc-arm-none-eabi/bin/../lib/gcc/arm-none-eabi/11.2.1/thumb/v7e-m+fp/hard\libc_nano.a(lib_a-locale.o)
 .debug_frame   0x00000d5c       0x58 c:/users/luke/desktop/mcha toolchain windows/toolchain/gcc-arm-none-eabi/bin/../lib/gcc/arm-none-eabi/11.2.1/thumb/v7e-m+fp/hard\libc_nano.a(lib_a-makebuf.o)
 .debug_frame   0x00000db4       0x48 c:/users/luke/desktop/mcha toolchain windows/toolchain/gcc-arm-none-eabi/bin/../lib/gcc/arm-none-eabi/11.2.1/thumb/v7e-m+fp/hard\libc_nano.a(lib_a-mbtowc_r.o)
 .debug_frame   0x00000dfc      0x258 c:/users/luke/desktop/mcha toolchain windows/toolchain/gcc-arm-none-eabi/bin/../lib/gcc/arm-none-eabi/11.2.1/thumb/v7e-m+fp/hard\libc_nano.a(lib_a-mprec.o)
 .debug_frame   0x00001054       0x30 c:/users/luke/desktop/mcha toolchain windows/toolchain/gcc-arm-none-eabi/bin/../lib/gcc/arm-none-eabi/11.2.1/thumb/v7e-m+fp/hard\libc_nano.a(lib_a-nano-callocr.o)
 .debug_frame   0x00001084       0x90 c:/users/luke/desktop/mcha toolchain windows/toolchain/gcc-arm-none-eabi/bin/../lib/gcc/arm-none-eabi/11.2.1/thumb/v7e-m+fp/hard\libc_nano.a(lib_a-nano-svfprintf.o)
 .debug_frame   0x00001114       0xa8 c:/users/luke/desktop/mcha toolchain windows/toolchain/gcc-arm-none-eabi/bin/../lib/gcc/arm-none-eabi/11.2.1/thumb/v7e-m+fp/hard\libc_nano.a(lib_a-nano-vfprintf.o)
 .debug_frame   0x000011bc       0x40 c:/users/luke/desktop/mcha toolchain windows/toolchain/gcc-arm-none-eabi/bin/../lib/gcc/arm-none-eabi/11.2.1/thumb/v7e-m+fp/hard\libc_nano.a(lib_a-refill.o)
 .debug_frame   0x000011fc       0x20 c:/users/luke/desktop/mcha toolchain windows/toolchain/gcc-arm-none-eabi/bin/../lib/gcc/arm-none-eabi/11.2.1/thumb/v7e-m+fp/hard\libc_nano.a(lib_a-s_nan.o)
 .debug_frame   0x0000121c       0x88 c:/users/luke/desktop/mcha toolchain windows/toolchain/gcc-arm-none-eabi/bin/../lib/gcc/arm-none-eabi/11.2.1/thumb/v7e-m+fp/hard\libc_nano.a(lib_a-stdio.o)
 .debug_frame   0x000012a4       0x28 c:/users/luke/desktop/mcha toolchain windows/toolchain/gcc-arm-none-eabi/bin/../lib/gcc/arm-none-eabi/11.2.1/thumb/v7e-m+fp/hard\libc_nano.a(lib_a-strncmp.o)
 .debug_frame   0x000012cc       0x40 c:/users/luke/desktop/mcha toolchain windows/toolchain/gcc-arm-none-eabi/bin/../lib/gcc/arm-none-eabi/11.2.1/thumb/v7e-m+fp/hard\libc_nano.a(lib_a-wbuf.o)
 .debug_frame   0x0000130c       0x3c c:/users/luke/desktop/mcha toolchain windows/toolchain/gcc-arm-none-eabi/bin/../lib/gcc/arm-none-eabi/11.2.1/thumb/v7e-m+fp/hard\libc_nano.a(lib_a-wctomb_r.o)
 .debug_frame   0x00001348       0x2c c:/users/luke/desktop/mcha toolchain windows/toolchain/gcc-arm-none-eabi/bin/../lib/gcc/arm-none-eabi/11.2.1/thumb/v7e-m+fp/hard\libc_nano.a(lib_a-writer.o)
 .debug_frame   0x00001374       0x2c c:/users/luke/desktop/mcha toolchain windows/toolchain/gcc-arm-none-eabi/bin/../lib/gcc/arm-none-eabi/11.2.1/thumb/v7e-m+fp/hard\libc_nano.a(lib_a-wsetup.o)
 .debug_frame   0x000013a0       0x40 c:/users/luke/desktop/mcha toolchain windows/toolchain/gcc-arm-none-eabi/bin/../lib/gcc/arm-none-eabi/11.2.1/thumb/v7e-m+fp/hard\libc_nano.a(lib_a-assert.o)
 .debug_frame   0x000013e0       0x2c c:/users/luke/desktop/mcha toolchain windows/toolchain/gcc-arm-none-eabi/bin/../lib/gcc/arm-none-eabi/11.2.1/thumb/v7e-m+fp/hard\libc_nano.a(lib_a-closer.o)
 .debug_frame   0x0000140c       0x2c c:/users/luke/desktop/mcha toolchain windows/toolchain/gcc-arm-none-eabi/bin/../lib/gcc/arm-none-eabi/11.2.1/thumb/v7e-m+fp/hard\libc_nano.a(lib_a-fstatr.o)
 .debug_frame   0x00001438       0x3c c:/users/luke/desktop/mcha toolchain windows/toolchain/gcc-arm-none-eabi/bin/../lib/gcc/arm-none-eabi/11.2.1/thumb/v7e-m+fp/hard\libc_nano.a(lib_a-fvwrite.o)
 .debug_frame   0x00001474       0x2c c:/users/luke/desktop/mcha toolchain windows/toolchain/gcc-arm-none-eabi/bin/../lib/gcc/arm-none-eabi/11.2.1/thumb/v7e-m+fp/hard\libc_nano.a(lib_a-isattyr.o)
 .debug_frame   0x000014a0       0x2c c:/users/luke/desktop/mcha toolchain windows/toolchain/gcc-arm-none-eabi/bin/../lib/gcc/arm-none-eabi/11.2.1/thumb/v7e-m+fp/hard\libc_nano.a(lib_a-lseekr.o)
 .debug_frame   0x000014cc       0x28 c:/users/luke/desktop/mcha toolchain windows/toolchain/gcc-arm-none-eabi/bin/../lib/gcc/arm-none-eabi/11.2.1/thumb/v7e-m+fp/hard\libc_nano.a(lib_a-memmove.o)
 .debug_frame   0x000014f4       0x3c c:/users/luke/desktop/mcha toolchain windows/toolchain/gcc-arm-none-eabi/bin/../lib/gcc/arm-none-eabi/11.2.1/thumb/v7e-m+fp/hard\libc_nano.a(lib_a-nano-reallocr.o)
 .debug_frame   0x00001530       0x2c c:/users/luke/desktop/mcha toolchain windows/toolchain/gcc-arm-none-eabi/bin/../lib/gcc/arm-none-eabi/11.2.1/thumb/v7e-m+fp/hard\libc_nano.a(lib_a-readr.o)
 .debug_frame   0x0000155c       0x28 c:/users/luke/desktop/mcha toolchain windows/toolchain/gcc-arm-none-eabi/bin/../lib/gcc/arm-none-eabi/11.2.1/thumb/v7e-m+fp/hard\libc_nano.a(lib_a-abort.o)
 .debug_frame   0x00001584       0x20 c:/users/luke/desktop/mcha toolchain windows/toolchain/gcc-arm-none-eabi/bin/../lib/gcc/arm-none-eabi/11.2.1/thumb/v7e-m+fp/hard\libc_nano.a(lib_a-nano-msizer.o)
 .debug_frame   0x000015a4       0xcc c:/users/luke/desktop/mcha toolchain windows/toolchain/gcc-arm-none-eabi/bin/../lib/gcc/arm-none-eabi/11.2.1/thumb/v7e-m+fp/hard\libc_nano.a(lib_a-signal.o)
 .debug_frame   0x00001670       0x3c c:/users/luke/desktop/mcha toolchain windows/toolchain/gcc-arm-none-eabi/bin/../lib/gcc/arm-none-eabi/11.2.1/thumb/v7e-m+fp/hard\libc_nano.a(lib_a-signalr.o)
 .debug_frame   0x000016ac       0x30 c:/users/luke/desktop/mcha toolchain windows/toolchain/gcc-arm-none-eabi/bin/../lib/gcc/arm-none-eabi/11.2.1/thumb/v7e-m+fp/hard\libgcc.a(_arm_muldf3.o)
 .debug_frame   0x000016dc       0xac c:/users/luke/desktop/mcha toolchain windows/toolchain/gcc-arm-none-eabi/bin/../lib/gcc/arm-none-eabi/11.2.1/thumb/v7e-m+fp/hard\libgcc.a(_arm_addsubdf3.o)
 .debug_frame   0x00001788       0x50 c:/users/luke/desktop/mcha toolchain windows/toolchain/gcc-arm-none-eabi/bin/../lib/gcc/arm-none-eabi/11.2.1/thumb/v7e-m+fp/hard\libgcc.a(_arm_muldivdf3.o)
 .debug_frame   0x000017d8       0xc4 c:/users/luke/desktop/mcha toolchain windows/toolchain/gcc-arm-none-eabi/bin/../lib/gcc/arm-none-eabi/11.2.1/thumb/v7e-m+fp/hard\libgcc.a(_arm_cmpdf2.o)
 .debug_frame   0x0000189c       0x20 c:/users/luke/desktop/mcha toolchain windows/toolchain/gcc-arm-none-eabi/bin/../lib/gcc/arm-none-eabi/11.2.1/thumb/v7e-m+fp/hard\libgcc.a(_arm_unorddf2.o)
 .debug_frame   0x000018bc       0x24 c:/users/luke/desktop/mcha toolchain windows/toolchain/gcc-arm-none-eabi/bin/../lib/gcc/arm-none-eabi/11.2.1/thumb/v7e-m+fp/hard\libgcc.a(_arm_fixdfsi.o)
 .debug_frame   0x000018e0       0x24 c:/users/luke/desktop/mcha toolchain windows/toolchain/gcc-arm-none-eabi/bin/../lib/gcc/arm-none-eabi/11.2.1/thumb/v7e-m+fp/hard\libgcc.a(_arm_fixunsdfsi.o)
 .debug_frame   0x00001904       0x24 c:/users/luke/desktop/mcha toolchain windows/toolchain/gcc-arm-none-eabi/bin/../lib/gcc/arm-none-eabi/11.2.1/thumb/v7e-m+fp/hard\libgcc.a(_arm_truncdfsf2.o)
 .debug_frame   0x00001928       0x38 c:/users/luke/desktop/mcha toolchain windows/toolchain/gcc-arm-none-eabi/bin/../lib/gcc/arm-none-eabi/11.2.1/thumb/v7e-m+fp/hard\libgcc.a(_fixdfdi.o)
 .debug_frame   0x00001960       0x2c c:/users/luke/desktop/mcha toolchain windows/toolchain/gcc-arm-none-eabi/bin/../lib/gcc/arm-none-eabi/11.2.1/thumb/v7e-m+fp/hard\libgcc.a(_fixunsdfdi.o)
 .debug_frame   0x0000198c       0x20 c:/users/luke/desktop/mcha toolchain windows/toolchain/gcc-arm-none-eabi/bin/../lib/gcc/arm-none-eabi/11.2.1/thumb/v7e-m+fp/hard\libnosys.a(close.o)
 .debug_frame   0x000019ac       0x20 c:/users/luke/desktop/mcha toolchain windows/toolchain/gcc-arm-none-eabi/bin/../lib/gcc/arm-none-eabi/11.2.1/thumb/v7e-m+fp/hard\libnosys.a(fstat.o)
 .debug_frame   0x000019cc       0x20 c:/users/luke/desktop/mcha toolchain windows/toolchain/gcc-arm-none-eabi/bin/../lib/gcc/arm-none-eabi/11.2.1/thumb/v7e-m+fp/hard\libnosys.a(getpid.o)
 .debug_frame   0x000019ec       0x20 c:/users/luke/desktop/mcha toolchain windows/toolchain/gcc-arm-none-eabi/bin/../lib/gcc/arm-none-eabi/11.2.1/thumb/v7e-m+fp/hard\libnosys.a(isatty.o)
 .debug_frame   0x00001a0c       0x20 c:/users/luke/desktop/mcha toolchain windows/toolchain/gcc-arm-none-eabi/bin/../lib/gcc/arm-none-eabi/11.2.1/thumb/v7e-m+fp/hard\libnosys.a(kill.o)
 .debug_frame   0x00001a2c       0x20 c:/users/luke/desktop/mcha toolchain windows/toolchain/gcc-arm-none-eabi/bin/../lib/gcc/arm-none-eabi/11.2.1/thumb/v7e-m+fp/hard\libnosys.a(lseek.o)
 .debug_frame   0x00001a4c       0x20 c:/users/luke/desktop/mcha toolchain windows/toolchain/gcc-arm-none-eabi/bin/../lib/gcc/arm-none-eabi/11.2.1/thumb/v7e-m+fp/hard\libnosys.a(_exit.o)

.debug_loclists
                0x00000000     0x9ff5
 .debug_loclists
                0x00000000      0xb0f c:/users/luke/desktop/mcha toolchain windows/toolchain/gcc-arm-none-eabi/bin/../lib/gcc/arm-none-eabi/11.2.1/thumb/v7e-m+fp/hard\libgcc.a(_udivmoddi4.o)
 .debug_loclists
                0x00000b0f       0x20 c:/users/luke/desktop/mcha toolchain windows/toolchain/gcc-arm-none-eabi/bin/../lib/gcc/arm-none-eabi/11.2.1/thumb/v7e-m+fp/hard\libc_nano.a(lib_a-exit.o)
 .debug_loclists
                0x00000b2f       0x45 c:/users/luke/desktop/mcha toolchain windows/toolchain/gcc-arm-none-eabi/bin/../lib/gcc/arm-none-eabi/11.2.1/thumb/v7e-m+fp/hard\libc_nano.a(lib_a-getchar.o)
 .debug_loclists
                0x00000b74      0x110 c:/users/luke/desktop/mcha toolchain windows/toolchain/gcc-arm-none-eabi/bin/../lib/gcc/arm-none-eabi/11.2.1/thumb/v7e-m+fp/hard\libc_nano.a(lib_a-getc.o)
 .debug_loclists
                0x00000c84       0x44 c:/users/luke/desktop/mcha toolchain windows/toolchain/gcc-arm-none-eabi/bin/../lib/gcc/arm-none-eabi/11.2.1/thumb/v7e-m+fp/hard\libc_nano.a(lib_a-init.o)
 .debug_loclists
                0x00000cc8       0x48 c:/users/luke/desktop/mcha toolchain windows/toolchain/gcc-arm-none-eabi/bin/../lib/gcc/arm-none-eabi/11.2.1/thumb/v7e-m+fp/hard\libc_nano.a(lib_a-malloc.o)
 .debug_loclists
                0x00000d10       0x8f c:/users/luke/desktop/mcha toolchain windows/toolchain/gcc-arm-none-eabi/bin/../lib/gcc/arm-none-eabi/11.2.1/thumb/v7e-m+fp/hard\libc_nano.a(lib_a-memcpy-stub.o)
 .debug_loclists
                0x00000d9f       0x47 c:/users/luke/desktop/mcha toolchain windows/toolchain/gcc-arm-none-eabi/bin/../lib/gcc/arm-none-eabi/11.2.1/thumb/v7e-m+fp/hard\libc_nano.a(lib_a-memset.o)
 .debug_loclists
                0x00000de6       0xaa c:/users/luke/desktop/mcha toolchain windows/toolchain/gcc-arm-none-eabi/bin/../lib/gcc/arm-none-eabi/11.2.1/thumb/v7e-m+fp/hard\libc_nano.a(lib_a-mstats.o)
 .debug_loclists
                0x00000e90       0xd4 c:/users/luke/desktop/mcha toolchain windows/toolchain/gcc-arm-none-eabi/bin/../lib/gcc/arm-none-eabi/11.2.1/thumb/v7e-m+fp/hard\libc_nano.a(lib_a-nano-freer.o)
 .debug_loclists
                0x00000f64       0x92 c:/users/luke/desktop/mcha toolchain windows/toolchain/gcc-arm-none-eabi/bin/../lib/gcc/arm-none-eabi/11.2.1/thumb/v7e-m+fp/hard\libc_nano.a(lib_a-nano-mallinfor.o)
 .debug_loclists
                0x00000ff6      0x254 c:/users/luke/desktop/mcha toolchain windows/toolchain/gcc-arm-none-eabi/bin/../lib/gcc/arm-none-eabi/11.2.1/thumb/v7e-m+fp/hard\libc_nano.a(lib_a-nano-mallocr.o)
 .debug_loclists
                0x0000124a       0x23 c:/users/luke/desktop/mcha toolchain windows/toolchain/gcc-arm-none-eabi/bin/../lib/gcc/arm-none-eabi/11.2.1/thumb/v7e-m+fp/hard\libc_nano.a(lib_a-nano-malloptr.o)
 .debug_loclists
                0x0000126d       0x2a c:/users/luke/desktop/mcha toolchain windows/toolchain/gcc-arm-none-eabi/bin/../lib/gcc/arm-none-eabi/11.2.1/thumb/v7e-m+fp/hard\libc_nano.a(lib_a-nano-mallstatsr.o)
 .debug_loclists
                0x00001297      0x4de c:/users/luke/desktop/mcha toolchain windows/toolchain/gcc-arm-none-eabi/bin/../lib/gcc/arm-none-eabi/11.2.1/thumb/v7e-m+fp/hard\libc_nano.a(lib_a-nano-vfprintf_float.o)
 .debug_loclists
                0x00001775      0x3fe c:/users/luke/desktop/mcha toolchain windows/toolchain/gcc-arm-none-eabi/bin/../lib/gcc/arm-none-eabi/11.2.1/thumb/v7e-m+fp/hard\libc_nano.a(lib_a-nano-vfprintf_i.o)
 .debug_loclists
                0x00001b73      0x3c5 c:/users/luke/desktop/mcha toolchain windows/toolchain/gcc-arm-none-eabi/bin/../lib/gcc/arm-none-eabi/11.2.1/thumb/v7e-m+fp/hard\libc_nano.a(lib_a-nano-vfscanf_float.o)
 .debug_loclists
                0x00001f38       0x4b c:/users/luke/desktop/mcha toolchain windows/toolchain/gcc-arm-none-eabi/bin/../lib/gcc/arm-none-eabi/11.2.1/thumb/v7e-m+fp/hard\libc_nano.a(lib_a-printf.o)
 .debug_loclists
                0x00001f83       0xcd c:/users/luke/desktop/mcha toolchain windows/toolchain/gcc-arm-none-eabi/bin/../lib/gcc/arm-none-eabi/11.2.1/thumb/v7e-m+fp/hard\libc_nano.a(lib_a-reent.o)
 .debug_loclists
                0x00002050       0x66 c:/users/luke/desktop/mcha toolchain windows/toolchain/gcc-arm-none-eabi/bin/../lib/gcc/arm-none-eabi/11.2.1/thumb/v7e-m+fp/hard\libc_nano.a(lib_a-rget.o)
 .debug_loclists
                0x000020b6       0x4c c:/users/luke/desktop/mcha toolchain windows/toolchain/gcc-arm-none-eabi/bin/../lib/gcc/arm-none-eabi/11.2.1/thumb/v7e-m+fp/hard\libc_nano.a(lib_a-sbrkr.o)
 .debug_loclists
                0x00002102      0x144 c:/users/luke/desktop/mcha toolchain windows/toolchain/gcc-arm-none-eabi/bin/../lib/gcc/arm-none-eabi/11.2.1/thumb/v7e-m+fp/hard\libc_nano.a(lib_a-setvbuf.o)
 .debug_loclists
                0x00002246       0x89 c:/users/luke/desktop/mcha toolchain windows/toolchain/gcc-arm-none-eabi/bin/../lib/gcc/arm-none-eabi/11.2.1/thumb/v7e-m+fp/hard\libc_nano.a(lib_a-sprintf.o)
 .debug_loclists
                0x000022cf     0x14c9 c:/users/luke/desktop/mcha toolchain windows/toolchain/gcc-arm-none-eabi/bin/../lib/gcc/arm-none-eabi/11.2.1/thumb/v7e-m+fp/hard\libc_nano.a(lib_a-strtod.o)
 .debug_loclists
                0x00003798      0x467 c:/users/luke/desktop/mcha toolchain windows/toolchain/gcc-arm-none-eabi/bin/../lib/gcc/arm-none-eabi/11.2.1/thumb/v7e-m+fp/hard\libc_nano.a(lib_a-strtol.o)
 .debug_loclists
                0x00003bff       0xb8 c:/users/luke/desktop/mcha toolchain windows/toolchain/gcc-arm-none-eabi/bin/../lib/gcc/arm-none-eabi/11.2.1/thumb/v7e-m+fp/hard\libc_nano.a(lib_a-vprintf.o)
 .debug_loclists
                0x00003cb7     0x1c10 c:/users/luke/desktop/mcha toolchain windows/toolchain/gcc-arm-none-eabi/bin/../lib/gcc/arm-none-eabi/11.2.1/thumb/v7e-m+fp/hard\libc_nano.a(lib_a-dtoa.o)
 .debug_loclists
                0x000058c7      0x1b4 c:/users/luke/desktop/mcha toolchain windows/toolchain/gcc-arm-none-eabi/bin/../lib/gcc/arm-none-eabi/11.2.1/thumb/v7e-m+fp/hard\libc_nano.a(lib_a-fflush.o)
 .debug_loclists
                0x00005a7b      0x180 c:/users/luke/desktop/mcha toolchain windows/toolchain/gcc-arm-none-eabi/bin/../lib/gcc/arm-none-eabi/11.2.1/thumb/v7e-m+fp/hard\libc_nano.a(lib_a-findfp.o)
 .debug_loclists
                0x00005bfb       0x6e c:/users/luke/desktop/mcha toolchain windows/toolchain/gcc-arm-none-eabi/bin/../lib/gcc/arm-none-eabi/11.2.1/thumb/v7e-m+fp/hard\libc_nano.a(lib_a-fprintf.o)
 .debug_loclists
                0x00005c69       0xef c:/users/luke/desktop/mcha toolchain windows/toolchain/gcc-arm-none-eabi/bin/../lib/gcc/arm-none-eabi/11.2.1/thumb/v7e-m+fp/hard\libc_nano.a(lib_a-fwalk.o)
 .debug_loclists
                0x00005d58      0xa27 c:/users/luke/desktop/mcha toolchain windows/toolchain/gcc-arm-none-eabi/bin/../lib/gcc/arm-none-eabi/11.2.1/thumb/v7e-m+fp/hard\libc_nano.a(lib_a-gdtoa-gethex.o)
 .debug_loclists
                0x0000677f      0x343 c:/users/luke/desktop/mcha toolchain windows/toolchain/gcc-arm-none-eabi/bin/../lib/gcc/arm-none-eabi/11.2.1/thumb/v7e-m+fp/hard\libc_nano.a(lib_a-gdtoa-hexnan.o)
 .debug_loclists
                0x00006ac2       0x23 c:/users/luke/desktop/mcha toolchain windows/toolchain/gcc-arm-none-eabi/bin/../lib/gcc/arm-none-eabi/11.2.1/thumb/v7e-m+fp/hard\libc_nano.a(lib_a-lnumeric.o)
 .debug_loclists
                0x00006ae5       0x51 c:/users/luke/desktop/mcha toolchain windows/toolchain/gcc-arm-none-eabi/bin/../lib/gcc/arm-none-eabi/11.2.1/thumb/v7e-m+fp/hard\libc_nano.a(lib_a-localeconv.o)
 .debug_loclists
                0x00006b36       0xe1 c:/users/luke/desktop/mcha toolchain windows/toolchain/gcc-arm-none-eabi/bin/../lib/gcc/arm-none-eabi/11.2.1/thumb/v7e-m+fp/hard\libc_nano.a(lib_a-locale.o)
 .debug_loclists
                0x00006c17      0x11f c:/users/luke/desktop/mcha toolchain windows/toolchain/gcc-arm-none-eabi/bin/../lib/gcc/arm-none-eabi/11.2.1/thumb/v7e-m+fp/hard\libc_nano.a(lib_a-makebuf.o)
 .debug_loclists
                0x00006d36      0x143 c:/users/luke/desktop/mcha toolchain windows/toolchain/gcc-arm-none-eabi/bin/../lib/gcc/arm-none-eabi/11.2.1/thumb/v7e-m+fp/hard\libc_nano.a(lib_a-mbtowc_r.o)
 .debug_loclists
                0x00006e79     0x1463 c:/users/luke/desktop/mcha toolchain windows/toolchain/gcc-arm-none-eabi/bin/../lib/gcc/arm-none-eabi/11.2.1/thumb/v7e-m+fp/hard\libc_nano.a(lib_a-mprec.o)
 .debug_loclists
                0x000082dc       0x8e c:/users/luke/desktop/mcha toolchain windows/toolchain/gcc-arm-none-eabi/bin/../lib/gcc/arm-none-eabi/11.2.1/thumb/v7e-m+fp/hard\libc_nano.a(lib_a-nano-callocr.o)
 .debug_loclists
                0x0000836a      0x49b c:/users/luke/desktop/mcha toolchain windows/toolchain/gcc-arm-none-eabi/bin/../lib/gcc/arm-none-eabi/11.2.1/thumb/v7e-m+fp/hard\libc_nano.a(lib_a-nano-svfprintf.o)
 .debug_loclists
                0x00008805      0x3f6 c:/users/luke/desktop/mcha toolchain windows/toolchain/gcc-arm-none-eabi/bin/../lib/gcc/arm-none-eabi/11.2.1/thumb/v7e-m+fp/hard\libc_nano.a(lib_a-nano-vfprintf.o)
 .debug_loclists
                0x00008bfb       0x7e c:/users/luke/desktop/mcha toolchain windows/toolchain/gcc-arm-none-eabi/bin/../lib/gcc/arm-none-eabi/11.2.1/thumb/v7e-m+fp/hard\libc_nano.a(lib_a-refill.o)
 .debug_loclists
                0x00008c79      0x203 c:/users/luke/desktop/mcha toolchain windows/toolchain/gcc-arm-none-eabi/bin/../lib/gcc/arm-none-eabi/11.2.1/thumb/v7e-m+fp/hard\libc_nano.a(lib_a-stdio.o)
 .debug_loclists
                0x00008e7c       0xc2 c:/users/luke/desktop/mcha toolchain windows/toolchain/gcc-arm-none-eabi/bin/../lib/gcc/arm-none-eabi/11.2.1/thumb/v7e-m+fp/hard\libc_nano.a(lib_a-strncmp.o)
 .debug_loclists
                0x00008f3e       0xdf c:/users/luke/desktop/mcha toolchain windows/toolchain/gcc-arm-none-eabi/bin/../lib/gcc/arm-none-eabi/11.2.1/thumb/v7e-m+fp/hard\libc_nano.a(lib_a-wbuf.o)
 .debug_loclists
                0x0000901d       0xb9 c:/users/luke/desktop/mcha toolchain windows/toolchain/gcc-arm-none-eabi/bin/../lib/gcc/arm-none-eabi/11.2.1/thumb/v7e-m+fp/hard\libc_nano.a(lib_a-wctomb_r.o)
 .debug_loclists
                0x000090d6       0x88 c:/users/luke/desktop/mcha toolchain windows/toolchain/gcc-arm-none-eabi/bin/../lib/gcc/arm-none-eabi/11.2.1/thumb/v7e-m+fp/hard\libc_nano.a(lib_a-writer.o)
 .debug_loclists
                0x0000915e       0x4a c:/users/luke/desktop/mcha toolchain windows/toolchain/gcc-arm-none-eabi/bin/../lib/gcc/arm-none-eabi/11.2.1/thumb/v7e-m+fp/hard\libc_nano.a(lib_a-wsetup.o)
 .debug_loclists
                0x000091a8       0xe6 c:/users/luke/desktop/mcha toolchain windows/toolchain/gcc-arm-none-eabi/bin/../lib/gcc/arm-none-eabi/11.2.1/thumb/v7e-m+fp/hard\libc_nano.a(lib_a-assert.o)
 .debug_loclists
                0x0000928e       0x4c c:/users/luke/desktop/mcha toolchain windows/toolchain/gcc-arm-none-eabi/bin/../lib/gcc/arm-none-eabi/11.2.1/thumb/v7e-m+fp/hard\libc_nano.a(lib_a-closer.o)
 .debug_loclists
                0x000092da       0x6a c:/users/luke/desktop/mcha toolchain windows/toolchain/gcc-arm-none-eabi/bin/../lib/gcc/arm-none-eabi/11.2.1/thumb/v7e-m+fp/hard\libc_nano.a(lib_a-fstatr.o)
 .debug_loclists
                0x00009344      0x420 c:/users/luke/desktop/mcha toolchain windows/toolchain/gcc-arm-none-eabi/bin/../lib/gcc/arm-none-eabi/11.2.1/thumb/v7e-m+fp/hard\libc_nano.a(lib_a-fvwrite.o)
 .debug_loclists
                0x00009764       0x4c c:/users/luke/desktop/mcha toolchain windows/toolchain/gcc-arm-none-eabi/bin/../lib/gcc/arm-none-eabi/11.2.1/thumb/v7e-m+fp/hard\libc_nano.a(lib_a-isattyr.o)
 .debug_loclists
                0x000097b0       0x88 c:/users/luke/desktop/mcha toolchain windows/toolchain/gcc-arm-none-eabi/bin/../lib/gcc/arm-none-eabi/11.2.1/thumb/v7e-m+fp/hard\libc_nano.a(lib_a-lseekr.o)
 .debug_loclists
                0x00009838      0x130 c:/users/luke/desktop/mcha toolchain windows/toolchain/gcc-arm-none-eabi/bin/../lib/gcc/arm-none-eabi/11.2.1/thumb/v7e-m+fp/hard\libc_nano.a(lib_a-memmove.o)
 .debug_loclists
                0x00009968       0xf0 c:/users/luke/desktop/mcha toolchain windows/toolchain/gcc-arm-none-eabi/bin/../lib/gcc/arm-none-eabi/11.2.1/thumb/v7e-m+fp/hard\libc_nano.a(lib_a-nano-reallocr.o)
 .debug_loclists
                0x00009a58       0x88 c:/users/luke/desktop/mcha toolchain windows/toolchain/gcc-arm-none-eabi/bin/../lib/gcc/arm-none-eabi/11.2.1/thumb/v7e-m+fp/hard\libc_nano.a(lib_a-readr.o)
 .debug_loclists
                0x00009ae0       0x62 c:/users/luke/desktop/mcha toolchain windows/toolchain/gcc-arm-none-eabi/bin/../lib/gcc/arm-none-eabi/11.2.1/thumb/v7e-m+fp/hard\libc_nano.a(lib_a-nano-msizer.o)
 .debug_loclists
                0x00009b42      0x2a2 c:/users/luke/desktop/mcha toolchain windows/toolchain/gcc-arm-none-eabi/bin/../lib/gcc/arm-none-eabi/11.2.1/thumb/v7e-m+fp/hard\libc_nano.a(lib_a-signal.o)
 .debug_loclists
                0x00009de4       0x81 c:/users/luke/desktop/mcha toolchain windows/toolchain/gcc-arm-none-eabi/bin/../lib/gcc/arm-none-eabi/11.2.1/thumb/v7e-m+fp/hard\libc_nano.a(lib_a-signalr.o)
 .debug_loclists
                0x00009e65       0x2a c:/users/luke/desktop/mcha toolchain windows/toolchain/gcc-arm-none-eabi/bin/../lib/gcc/arm-none-eabi/11.2.1/thumb/v7e-m+fp/hard\libgcc.a(_fixdfdi.o)
 .debug_loclists
                0x00009e8f       0x89 c:/users/luke/desktop/mcha toolchain windows/toolchain/gcc-arm-none-eabi/bin/../lib/gcc/arm-none-eabi/11.2.1/thumb/v7e-m+fp/hard\libgcc.a(_fixunsdfdi.o)
 .debug_loclists
                0x00009f18       0x23 c:/users/luke/desktop/mcha toolchain windows/toolchain/gcc-arm-none-eabi/bin/../lib/gcc/arm-none-eabi/11.2.1/thumb/v7e-m+fp/hard\libnosys.a(close.o)
 .debug_loclists
                0x00009f3b       0x23 c:/users/luke/desktop/mcha toolchain windows/toolchain/gcc-arm-none-eabi/bin/../lib/gcc/arm-none-eabi/11.2.1/thumb/v7e-m+fp/hard\libnosys.a(fstat.o)
 .debug_loclists
                0x00009f5e       0x23 c:/users/luke/desktop/mcha toolchain windows/toolchain/gcc-arm-none-eabi/bin/../lib/gcc/arm-none-eabi/11.2.1/thumb/v7e-m+fp/hard\libnosys.a(isatty.o)
 .debug_loclists
                0x00009f81       0x23 c:/users/luke/desktop/mcha toolchain windows/toolchain/gcc-arm-none-eabi/bin/../lib/gcc/arm-none-eabi/11.2.1/thumb/v7e-m+fp/hard\libnosys.a(kill.o)
 .debug_loclists
                0x00009fa4       0x3a c:/users/luke/desktop/mcha toolchain windows/toolchain/gcc-arm-none-eabi/bin/../lib/gcc/arm-none-eabi/11.2.1/thumb/v7e-m+fp/hard\libnosys.a(lseek.o)
 .debug_loclists
                0x00009fde       0x17 c:/users/luke/desktop/mcha toolchain windows/toolchain/gcc-arm-none-eabi/bin/../lib/gcc/arm-none-eabi/11.2.1/thumb/v7e-m+fp/hard\libnosys.a(_exit.o)

.debug_rnglists
                0x00000000      0xb10
 .debug_rnglists
                0x00000000       0x92 c:/users/luke/desktop/mcha toolchain windows/toolchain/gcc-arm-none-eabi/bin/../lib/gcc/arm-none-eabi/11.2.1/thumb/v7e-m+fp/hard\libgcc.a(_udivmoddi4.o)
 .debug_rnglists
                0x00000092       0x13 c:/users/luke/desktop/mcha toolchain windows/toolchain/gcc-arm-none-eabi/bin/../lib/gcc/arm-none-eabi/11.2.1/thumb/v7e-m+fp/hard\libc_nano.a(lib_a-exit.o)
 .debug_rnglists
                0x000000a5       0x19 c:/users/luke/desktop/mcha toolchain windows/toolchain/gcc-arm-none-eabi/bin/../lib/gcc/arm-none-eabi/11.2.1/thumb/v7e-m+fp/hard\libc_nano.a(lib_a-getchar.o)
 .debug_rnglists
                0x000000be       0x37 c:/users/luke/desktop/mcha toolchain windows/toolchain/gcc-arm-none-eabi/bin/../lib/gcc/arm-none-eabi/11.2.1/thumb/v7e-m+fp/hard\libc_nano.a(lib_a-getc.o)
 .debug_rnglists
                0x000000f5       0x13 c:/users/luke/desktop/mcha toolchain windows/toolchain/gcc-arm-none-eabi/bin/../lib/gcc/arm-none-eabi/11.2.1/thumb/v7e-m+fp/hard\libc_nano.a(lib_a-init.o)
 .debug_rnglists
                0x00000108       0x19 c:/users/luke/desktop/mcha toolchain windows/toolchain/gcc-arm-none-eabi/bin/../lib/gcc/arm-none-eabi/11.2.1/thumb/v7e-m+fp/hard\libc_nano.a(lib_a-malloc.o)
 .debug_rnglists
                0x00000121       0x13 c:/users/luke/desktop/mcha toolchain windows/toolchain/gcc-arm-none-eabi/bin/../lib/gcc/arm-none-eabi/11.2.1/thumb/v7e-m+fp/hard\libc_nano.a(lib_a-memcpy-stub.o)
 .debug_rnglists
                0x00000134       0x13 c:/users/luke/desktop/mcha toolchain windows/toolchain/gcc-arm-none-eabi/bin/../lib/gcc/arm-none-eabi/11.2.1/thumb/v7e-m+fp/hard\libc_nano.a(lib_a-memset.o)
 .debug_rnglists
                0x00000147       0x2b c:/users/luke/desktop/mcha toolchain windows/toolchain/gcc-arm-none-eabi/bin/../lib/gcc/arm-none-eabi/11.2.1/thumb/v7e-m+fp/hard\libc_nano.a(lib_a-mstats.o)
 .debug_rnglists
                0x00000172       0x20 c:/users/luke/desktop/mcha toolchain windows/toolchain/gcc-arm-none-eabi/bin/../lib/gcc/arm-none-eabi/11.2.1/thumb/v7e-m+fp/hard\libc_nano.a(lib_a-nano-freer.o)
 .debug_rnglists
                0x00000192       0x13 c:/users/luke/desktop/mcha toolchain windows/toolchain/gcc-arm-none-eabi/bin/../lib/gcc/arm-none-eabi/11.2.1/thumb/v7e-m+fp/hard\libc_nano.a(lib_a-nano-mallinfor.o)
 .debug_rnglists
                0x000001a5       0x26 c:/users/luke/desktop/mcha toolchain windows/toolchain/gcc-arm-none-eabi/bin/../lib/gcc/arm-none-eabi/11.2.1/thumb/v7e-m+fp/hard\libc_nano.a(lib_a-nano-mallocr.o)
 .debug_rnglists
                0x000001cb       0x13 c:/users/luke/desktop/mcha toolchain windows/toolchain/gcc-arm-none-eabi/bin/../lib/gcc/arm-none-eabi/11.2.1/thumb/v7e-m+fp/hard\libc_nano.a(lib_a-nano-malloptr.o)
 .debug_rnglists
                0x000001de       0x13 c:/users/luke/desktop/mcha toolchain windows/toolchain/gcc-arm-none-eabi/bin/../lib/gcc/arm-none-eabi/11.2.1/thumb/v7e-m+fp/hard\libc_nano.a(lib_a-nano-mallstatsr.o)
 .debug_rnglists
                0x000001f1       0x8c c:/users/luke/desktop/mcha toolchain windows/toolchain/gcc-arm-none-eabi/bin/../lib/gcc/arm-none-eabi/11.2.1/thumb/v7e-m+fp/hard\libc_nano.a(lib_a-nano-vfprintf_float.o)
 .debug_rnglists
                0x0000027d       0x5c c:/users/luke/desktop/mcha toolchain windows/toolchain/gcc-arm-none-eabi/bin/../lib/gcc/arm-none-eabi/11.2.1/thumb/v7e-m+fp/hard\libc_nano.a(lib_a-nano-vfprintf_i.o)
 .debug_rnglists
                0x000002d9       0x14 c:/users/luke/desktop/mcha toolchain windows/toolchain/gcc-arm-none-eabi/bin/../lib/gcc/arm-none-eabi/11.2.1/thumb/v7e-m+fp/hard\libc_nano.a(lib_a-nano-vfscanf_float.o)
 .debug_rnglists
                0x000002ed       0x19 c:/users/luke/desktop/mcha toolchain windows/toolchain/gcc-arm-none-eabi/bin/../lib/gcc/arm-none-eabi/11.2.1/thumb/v7e-m+fp/hard\libc_nano.a(lib_a-printf.o)
 .debug_rnglists
                0x00000306       0x2c c:/users/luke/desktop/mcha toolchain windows/toolchain/gcc-arm-none-eabi/bin/../lib/gcc/arm-none-eabi/11.2.1/thumb/v7e-m+fp/hard\libc_nano.a(lib_a-reent.o)
 .debug_rnglists
                0x00000332       0x28 c:/users/luke/desktop/mcha toolchain windows/toolchain/gcc-arm-none-eabi/bin/../lib/gcc/arm-none-eabi/11.2.1/thumb/v7e-m+fp/hard\libc_nano.a(lib_a-rget.o)
 .debug_rnglists
                0x0000035a       0x13 c:/users/luke/desktop/mcha toolchain windows/toolchain/gcc-arm-none-eabi/bin/../lib/gcc/arm-none-eabi/11.2.1/thumb/v7e-m+fp/hard\libc_nano.a(lib_a-sbrkr.o)
 .debug_rnglists
                0x0000036d       0x25 c:/users/luke/desktop/mcha toolchain windows/toolchain/gcc-arm-none-eabi/bin/../lib/gcc/arm-none-eabi/11.2.1/thumb/v7e-m+fp/hard\libc_nano.a(lib_a-setvbuf.o)
 .debug_rnglists
                0x00000392       0x13 c:/users/luke/desktop/mcha toolchain windows/toolchain/gcc-arm-none-eabi/bin/../lib/gcc/arm-none-eabi/11.2.1/thumb/v7e-m+fp/hard\libc_nano.a(lib_a-sf_nan.o)
 .debug_rnglists
                0x000003a5       0x19 c:/users/luke/desktop/mcha toolchain windows/toolchain/gcc-arm-none-eabi/bin/../lib/gcc/arm-none-eabi/11.2.1/thumb/v7e-m+fp/hard\libc_nano.a(lib_a-sprintf.o)
 .debug_rnglists
                0x000003be       0x80 c:/users/luke/desktop/mcha toolchain windows/toolchain/gcc-arm-none-eabi/bin/../lib/gcc/arm-none-eabi/11.2.1/thumb/v7e-m+fp/hard\libc_nano.a(lib_a-strtod.o)
 .debug_rnglists
                0x0000043e       0x26 c:/users/luke/desktop/mcha toolchain windows/toolchain/gcc-arm-none-eabi/bin/../lib/gcc/arm-none-eabi/11.2.1/thumb/v7e-m+fp/hard\libc_nano.a(lib_a-strtol.o)
 .debug_rnglists
                0x00000464       0x19 c:/users/luke/desktop/mcha toolchain windows/toolchain/gcc-arm-none-eabi/bin/../lib/gcc/arm-none-eabi/11.2.1/thumb/v7e-m+fp/hard\libc_nano.a(lib_a-vprintf.o)
 .debug_rnglists
                0x0000047d       0x40 c:/users/luke/desktop/mcha toolchain windows/toolchain/gcc-arm-none-eabi/bin/../lib/gcc/arm-none-eabi/11.2.1/thumb/v7e-m+fp/hard\libc_nano.a(lib_a-dtoa.o)
 .debug_rnglists
                0x000004bd       0x13 c:/users/luke/desktop/mcha toolchain windows/toolchain/gcc-arm-none-eabi/bin/../lib/gcc/arm-none-eabi/11.2.1/thumb/v7e-m+fp/hard\libc_nano.a(lib_a-errno.o)
 .debug_rnglists
                0x000004d0       0x47 c:/users/luke/desktop/mcha toolchain windows/toolchain/gcc-arm-none-eabi/bin/../lib/gcc/arm-none-eabi/11.2.1/thumb/v7e-m+fp/hard\libc_nano.a(lib_a-fflush.o)
 .debug_rnglists
                0x00000517       0x55 c:/users/luke/desktop/mcha toolchain windows/toolchain/gcc-arm-none-eabi/bin/../lib/gcc/arm-none-eabi/11.2.1/thumb/v7e-m+fp/hard\libc_nano.a(lib_a-findfp.o)
 .debug_rnglists
                0x0000056c       0x19 c:/users/luke/desktop/mcha toolchain windows/toolchain/gcc-arm-none-eabi/bin/../lib/gcc/arm-none-eabi/11.2.1/thumb/v7e-m+fp/hard\libc_nano.a(lib_a-fprintf.o)
 .debug_rnglists
                0x00000585       0x19 c:/users/luke/desktop/mcha toolchain windows/toolchain/gcc-arm-none-eabi/bin/../lib/gcc/arm-none-eabi/11.2.1/thumb/v7e-m+fp/hard\libc_nano.a(lib_a-fwalk.o)
 .debug_rnglists
                0x0000059e       0x4e c:/users/luke/desktop/mcha toolchain windows/toolchain/gcc-arm-none-eabi/bin/../lib/gcc/arm-none-eabi/11.2.1/thumb/v7e-m+fp/hard\libc_nano.a(lib_a-gdtoa-gethex.o)
 .debug_rnglists
                0x000005ec       0x20 c:/users/luke/desktop/mcha toolchain windows/toolchain/gcc-arm-none-eabi/bin/../lib/gcc/arm-none-eabi/11.2.1/thumb/v7e-m+fp/hard\libc_nano.a(lib_a-gdtoa-hexnan.o)
 .debug_rnglists
                0x0000060c       0x13 c:/users/luke/desktop/mcha toolchain windows/toolchain/gcc-arm-none-eabi/bin/../lib/gcc/arm-none-eabi/11.2.1/thumb/v7e-m+fp/hard\libc_nano.a(lib_a-lnumeric.o)
 .debug_rnglists
                0x0000061f       0x1f c:/users/luke/desktop/mcha toolchain windows/toolchain/gcc-arm-none-eabi/bin/../lib/gcc/arm-none-eabi/11.2.1/thumb/v7e-m+fp/hard\libc_nano.a(lib_a-localeconv.o)
 .debug_rnglists
                0x0000063e       0x1f c:/users/luke/desktop/mcha toolchain windows/toolchain/gcc-arm-none-eabi/bin/../lib/gcc/arm-none-eabi/11.2.1/thumb/v7e-m+fp/hard\libc_nano.a(lib_a-locale.o)
 .debug_rnglists
                0x0000065d       0x1a c:/users/luke/desktop/mcha toolchain windows/toolchain/gcc-arm-none-eabi/bin/../lib/gcc/arm-none-eabi/11.2.1/thumb/v7e-m+fp/hard\libc_nano.a(lib_a-makebuf.o)
 .debug_rnglists
                0x00000677       0x19 c:/users/luke/desktop/mcha toolchain windows/toolchain/gcc-arm-none-eabi/bin/../lib/gcc/arm-none-eabi/11.2.1/thumb/v7e-m+fp/hard\libc_nano.a(lib_a-mbtowc_r.o)
 .debug_rnglists
                0x00000690       0xf7 c:/users/luke/desktop/mcha toolchain windows/toolchain/gcc-arm-none-eabi/bin/../lib/gcc/arm-none-eabi/11.2.1/thumb/v7e-m+fp/hard\libc_nano.a(lib_a-mprec.o)
 .debug_rnglists
                0x00000787       0x13 c:/users/luke/desktop/mcha toolchain windows/toolchain/gcc-arm-none-eabi/bin/../lib/gcc/arm-none-eabi/11.2.1/thumb/v7e-m+fp/hard\libc_nano.a(lib_a-nano-callocr.o)
 .debug_rnglists
                0x0000079a       0x44 c:/users/luke/desktop/mcha toolchain windows/toolchain/gcc-arm-none-eabi/bin/../lib/gcc/arm-none-eabi/11.2.1/thumb/v7e-m+fp/hard\libc_nano.a(lib_a-nano-svfprintf.o)
 .debug_rnglists
                0x000007de       0x3d c:/users/luke/desktop/mcha toolchain windows/toolchain/gcc-arm-none-eabi/bin/../lib/gcc/arm-none-eabi/11.2.1/thumb/v7e-m+fp/hard\libc_nano.a(lib_a-nano-vfprintf.o)
 .debug_rnglists
                0x0000081b       0x29 c:/users/luke/desktop/mcha toolchain windows/toolchain/gcc-arm-none-eabi/bin/../lib/gcc/arm-none-eabi/11.2.1/thumb/v7e-m+fp/hard\libc_nano.a(lib_a-refill.o)
 .debug_rnglists
                0x00000844       0x13 c:/users/luke/desktop/mcha toolchain windows/toolchain/gcc-arm-none-eabi/bin/../lib/gcc/arm-none-eabi/11.2.1/thumb/v7e-m+fp/hard\libc_nano.a(lib_a-s_nan.o)
 .debug_rnglists
                0x00000857       0x2b c:/users/luke/desktop/mcha toolchain windows/toolchain/gcc-arm-none-eabi/bin/../lib/gcc/arm-none-eabi/11.2.1/thumb/v7e-m+fp/hard\libc_nano.a(lib_a-stdio.o)
 .debug_rnglists
                0x00000882       0x13 c:/users/luke/desktop/mcha toolchain windows/toolchain/gcc-arm-none-eabi/bin/../lib/gcc/arm-none-eabi/11.2.1/thumb/v7e-m+fp/hard\libc_nano.a(lib_a-strncmp.o)
 .debug_rnglists
                0x00000895       0x2a c:/users/luke/desktop/mcha toolchain windows/toolchain/gcc-arm-none-eabi/bin/../lib/gcc/arm-none-eabi/11.2.1/thumb/v7e-m+fp/hard\libc_nano.a(lib_a-wbuf.o)
 .debug_rnglists
                0x000008bf       0x19 c:/users/luke/desktop/mcha toolchain windows/toolchain/gcc-arm-none-eabi/bin/../lib/gcc/arm-none-eabi/11.2.1/thumb/v7e-m+fp/hard\libc_nano.a(lib_a-wctomb_r.o)
 .debug_rnglists
                0x000008d8       0x13 c:/users/luke/desktop/mcha toolchain windows/toolchain/gcc-arm-none-eabi/bin/../lib/gcc/arm-none-eabi/11.2.1/thumb/v7e-m+fp/hard\libc_nano.a(lib_a-writer.o)
 .debug_rnglists
                0x000008eb       0x26 c:/users/luke/desktop/mcha toolchain windows/toolchain/gcc-arm-none-eabi/bin/../lib/gcc/arm-none-eabi/11.2.1/thumb/v7e-m+fp/hard\libc_nano.a(lib_a-wsetup.o)
 .debug_rnglists
                0x00000911       0x19 c:/users/luke/desktop/mcha toolchain windows/toolchain/gcc-arm-none-eabi/bin/../lib/gcc/arm-none-eabi/11.2.1/thumb/v7e-m+fp/hard\libc_nano.a(lib_a-assert.o)
 .debug_rnglists
                0x0000092a       0x13 c:/users/luke/desktop/mcha toolchain windows/toolchain/gcc-arm-none-eabi/bin/../lib/gcc/arm-none-eabi/11.2.1/thumb/v7e-m+fp/hard\libc_nano.a(lib_a-closer.o)
 .debug_rnglists
                0x0000093d       0x13 c:/users/luke/desktop/mcha toolchain windows/toolchain/gcc-arm-none-eabi/bin/../lib/gcc/arm-none-eabi/11.2.1/thumb/v7e-m+fp/hard\libc_nano.a(lib_a-fstatr.o)
 .debug_rnglists
                0x00000950       0x2e c:/users/luke/desktop/mcha toolchain windows/toolchain/gcc-arm-none-eabi/bin/../lib/gcc/arm-none-eabi/11.2.1/thumb/v7e-m+fp/hard\libc_nano.a(lib_a-fvwrite.o)
 .debug_rnglists
                0x0000097e       0x13 c:/users/luke/desktop/mcha toolchain windows/toolchain/gcc-arm-none-eabi/bin/../lib/gcc/arm-none-eabi/11.2.1/thumb/v7e-m+fp/hard\libc_nano.a(lib_a-isattyr.o)
 .debug_rnglists
                0x00000991       0x13 c:/users/luke/desktop/mcha toolchain windows/toolchain/gcc-arm-none-eabi/bin/../lib/gcc/arm-none-eabi/11.2.1/thumb/v7e-m+fp/hard\libc_nano.a(lib_a-lseekr.o)
 .debug_rnglists
                0x000009a4       0x13 c:/users/luke/desktop/mcha toolchain windows/toolchain/gcc-arm-none-eabi/bin/../lib/gcc/arm-none-eabi/11.2.1/thumb/v7e-m+fp/hard\libc_nano.a(lib_a-memmove.o)
 .debug_rnglists
                0x000009b7       0x13 c:/users/luke/desktop/mcha toolchain windows/toolchain/gcc-arm-none-eabi/bin/../lib/gcc/arm-none-eabi/11.2.1/thumb/v7e-m+fp/hard\libc_nano.a(lib_a-nano-reallocr.o)
 .debug_rnglists
                0x000009ca       0x13 c:/users/luke/desktop/mcha toolchain windows/toolchain/gcc-arm-none-eabi/bin/../lib/gcc/arm-none-eabi/11.2.1/thumb/v7e-m+fp/hard\libc_nano.a(lib_a-readr.o)
 .debug_rnglists
                0x000009dd       0x13 c:/users/luke/desktop/mcha toolchain windows/toolchain/gcc-arm-none-eabi/bin/../lib/gcc/arm-none-eabi/11.2.1/thumb/v7e-m+fp/hard\libc_nano.a(lib_a-abort.o)
 .debug_rnglists
                0x000009f0       0x13 c:/users/luke/desktop/mcha toolchain windows/toolchain/gcc-arm-none-eabi/bin/../lib/gcc/arm-none-eabi/11.2.1/thumb/v7e-m+fp/hard\libc_nano.a(lib_a-nano-msizer.o)
 .debug_rnglists
                0x00000a03       0x49 c:/users/luke/desktop/mcha toolchain windows/toolchain/gcc-arm-none-eabi/bin/../lib/gcc/arm-none-eabi/11.2.1/thumb/v7e-m+fp/hard\libc_nano.a(lib_a-signal.o)
 .debug_rnglists
                0x00000a4c       0x19 c:/users/luke/desktop/mcha toolchain windows/toolchain/gcc-arm-none-eabi/bin/../lib/gcc/arm-none-eabi/11.2.1/thumb/v7e-m+fp/hard\libc_nano.a(lib_a-signalr.o)
 .debug_rnglists
                0x00000a65       0x13 c:/users/luke/desktop/mcha toolchain windows/toolchain/gcc-arm-none-eabi/bin/../lib/gcc/arm-none-eabi/11.2.1/thumb/v7e-m+fp/hard\libgcc.a(_fixdfdi.o)
 .debug_rnglists
                0x00000a78       0x13 c:/users/luke/desktop/mcha toolchain windows/toolchain/gcc-arm-none-eabi/bin/../lib/gcc/arm-none-eabi/11.2.1/thumb/v7e-m+fp/hard\libgcc.a(_fixunsdfdi.o)
 .debug_rnglists
                0x00000a8b       0x13 c:/users/luke/desktop/mcha toolchain windows/toolchain/gcc-arm-none-eabi/bin/../lib/gcc/arm-none-eabi/11.2.1/thumb/v7e-m+fp/hard\libnosys.a(close.o)
 .debug_rnglists
                0x00000a9e       0x13 c:/users/luke/desktop/mcha toolchain windows/toolchain/gcc-arm-none-eabi/bin/../lib/gcc/arm-none-eabi/11.2.1/thumb/v7e-m+fp/hard\libnosys.a(fstat.o)
 .debug_rnglists
                0x00000ab1       0x13 c:/users/luke/desktop/mcha toolchain windows/toolchain/gcc-arm-none-eabi/bin/../lib/gcc/arm-none-eabi/11.2.1/thumb/v7e-m+fp/hard\libnosys.a(getpid.o)
 .debug_rnglists
                0x00000ac4       0x13 c:/users/luke/desktop/mcha toolchain windows/toolchain/gcc-arm-none-eabi/bin/../lib/gcc/arm-none-eabi/11.2.1/thumb/v7e-m+fp/hard\libnosys.a(isatty.o)
 .debug_rnglists
                0x00000ad7       0x13 c:/users/luke/desktop/mcha toolchain windows/toolchain/gcc-arm-none-eabi/bin/../lib/gcc/arm-none-eabi/11.2.1/thumb/v7e-m+fp/hard\libnosys.a(kill.o)
 .debug_rnglists
                0x00000aea       0x13 c:/users/luke/desktop/mcha toolchain windows/toolchain/gcc-arm-none-eabi/bin/../lib/gcc/arm-none-eabi/11.2.1/thumb/v7e-m+fp/hard\libnosys.a(lseek.o)
 .debug_rnglists
                0x00000afd       0x13 c:/users/luke/desktop/mcha toolchain windows/toolchain/gcc-arm-none-eabi/bin/../lib/gcc/arm-none-eabi/11.2.1/thumb/v7e-m+fp/hard\libnosys.a(_exit.o)

.stab           0x00000000       0x9c
 .stab          0x00000000       0x24 c:/users/luke/desktop/mcha toolchain windows/toolchain/gcc-arm-none-eabi/bin/../lib/gcc/arm-none-eabi/11.2.1/thumb/v7e-m+fp/hard\libnosys.a(close.o)
 .stab          0x00000024       0x18 c:/users/luke/desktop/mcha toolchain windows/toolchain/gcc-arm-none-eabi/bin/../lib/gcc/arm-none-eabi/11.2.1/thumb/v7e-m+fp/hard\libnosys.a(fstat.o)
                                 0x24 (size before relaxing)
 .stab          0x0000003c       0x18 c:/users/luke/desktop/mcha toolchain windows/toolchain/gcc-arm-none-eabi/bin/../lib/gcc/arm-none-eabi/11.2.1/thumb/v7e-m+fp/hard\libnosys.a(getpid.o)
                                 0x24 (size before relaxing)
 .stab          0x00000054       0x18 c:/users/luke/desktop/mcha toolchain windows/toolchain/gcc-arm-none-eabi/bin/../lib/gcc/arm-none-eabi/11.2.1/thumb/v7e-m+fp/hard\libnosys.a(isatty.o)
                                 0x24 (size before relaxing)
 .stab          0x0000006c       0x18 c:/users/luke/desktop/mcha toolchain windows/toolchain/gcc-arm-none-eabi/bin/../lib/gcc/arm-none-eabi/11.2.1/thumb/v7e-m+fp/hard\libnosys.a(kill.o)
                                 0x24 (size before relaxing)
 .stab          0x00000084       0x18 c:/users/luke/desktop/mcha toolchain windows/toolchain/gcc-arm-none-eabi/bin/../lib/gcc/arm-none-eabi/11.2.1/thumb/v7e-m+fp/hard\libnosys.a(lseek.o)
                                 0x24 (size before relaxing)

.stabstr        0x00000000      0x14f
 .stabstr       0x00000000      0x14f c:/users/luke/desktop/mcha toolchain windows/toolchain/gcc-arm-none-eabi/bin/../lib/gcc/arm-none-eabi/11.2.1/thumb/v7e-m+fp/hard\libnosys.a(close.o)

Cross Reference Table

Symbol                                            File
ADC_IRQHandler                                    build/startup_stm32f446xx.o
AHBPrescTable                                     build/system_stm32f4xx.o
                                                  build/stm32f4_HAL/stm32f4xx_hal_rcc.o
                                                  build/stm32f4_HAL/stm32f4xx_ll_rcc.o
APBPrescTable                                     build/system_stm32f4xx.o
                                                  build/stm32f4_HAL/stm32f4xx_hal_rcc.o
                                                  build/stm32f4_HAL/stm32f4xx_ll_rcc.o
BusFault_Handler                                  build/stm32f4xx_it.o
CAN1_RX0_IRQHandler                               build/startup_stm32f446xx.o
CAN1_RX1_IRQHandler                               build/startup_stm32f446xx.o
CAN1_SCE_IRQHandler                               build/startup_stm32f446xx.o
CAN1_TX_IRQHandler                                build/startup_stm32f446xx.o
CAN2_RX0_IRQHandler                               build/startup_stm32f446xx.o
CAN2_RX1_IRQHandler                               build/startup_stm32f446xx.o
CAN2_SCE_IRQHandler                               build/startup_stm32f446xx.o
CAN2_TX_IRQHandler                                build/startup_stm32f446xx.o
CEC_IRQHandler                                    build/startup_stm32f446xx.o
DCMI_IRQHandler                                   build/startup_stm32f446xx.o
DMA1_Stream0_IRQHandler                           build/startup_stm32f446xx.o
DMA1_Stream1_IRQHandler                           build/startup_stm32f446xx.o
DMA1_Stream2_IRQHandler                           build/startup_stm32f446xx.o
DMA1_Stream3_IRQHandler                           build/startup_stm32f446xx.o
DMA1_Stream4_IRQHandler                           build/startup_stm32f446xx.o
DMA1_Stream5_IRQHandler                           build/startup_stm32f446xx.o
DMA1_Stream6_IRQHandler                           build/startup_stm32f446xx.o
DMA1_Stream7_IRQHandler                           build/startup_stm32f446xx.o
DMA2_Stream0_IRQHandler                           build/startup_stm32f446xx.o
DMA2_Stream1_IRQHandler                           build/startup_stm32f446xx.o
DMA2_Stream2_IRQHandler                           build/startup_stm32f446xx.o
DMA2_Stream3_IRQHandler                           build/startup_stm32f446xx.o
DMA2_Stream4_IRQHandler                           build/startup_stm32f446xx.o
DMA2_Stream5_IRQHandler                           build/startup_stm32f446xx.o
DMA2_Stream6_IRQHandler                           build/startup_stm32f446xx.o
DMA2_Stream7_IRQHandler                           build/startup_stm32f446xx.o
DebugMon_Handler                                  build/stm32f4xx_it.o
Default_Handler                                   build/startup_stm32f446xx.o
EXTI0_IRQHandler                                  build/startup_stm32f446xx.o
EXTI15_10_IRQHandler                              build/startup_stm32f446xx.o
EXTI1_IRQHandler                                  build/startup_stm32f446xx.o
EXTI2_IRQHandler                                  build/startup_stm32f446xx.o
EXTI3_IRQHandler                                  build/startup_stm32f446xx.o
EXTI4_IRQHandler                                  build/startup_stm32f446xx.o
EXTI9_5_IRQHandler                                build/startup_stm32f446xx.o
FLASH_IRQHandler                                  build/startup_stm32f446xx.o
FMC_IRQHandler                                    build/startup_stm32f446xx.o
FMPI2C1_Error_IRQHandler                          build/startup_stm32f446xx.o
FMPI2C1_Event_IRQHandler                          build/startup_stm32f446xx.o
FPU_IRQHandler                                    build/startup_stm32f446xx.o
HAL_ADCEx_InjectedConfigChannel                   build/stm32f4_HAL/stm32f4xx_hal_adc_ex.o
HAL_ADCEx_InjectedConvCpltCallback                build/stm32f4_HAL/stm32f4xx_hal_adc_ex.o
                                                  build/stm32f4_HAL/stm32f4xx_hal_adc.o
HAL_ADCEx_InjectedGetValue                        build/stm32f4_HAL/stm32f4xx_hal_adc_ex.o
HAL_ADCEx_InjectedPollForConversion               build/stm32f4_HAL/stm32f4xx_hal_adc_ex.o
HAL_ADCEx_InjectedStart                           build/stm32f4_HAL/stm32f4xx_hal_adc_ex.o
HAL_ADCEx_InjectedStart_IT                        build/stm32f4_HAL/stm32f4xx_hal_adc_ex.o
HAL_ADCEx_InjectedStop                            build/stm32f4_HAL/stm32f4xx_hal_adc_ex.o
HAL_ADCEx_InjectedStop_IT                         build/stm32f4_HAL/stm32f4xx_hal_adc_ex.o
HAL_ADCEx_MultiModeConfigChannel                  build/stm32f4_HAL/stm32f4xx_hal_adc_ex.o
HAL_ADCEx_MultiModeGetValue                       build/stm32f4_HAL/stm32f4xx_hal_adc_ex.o
HAL_ADCEx_MultiModeStart_DMA                      build/stm32f4_HAL/stm32f4xx_hal_adc_ex.o
HAL_ADCEx_MultiModeStop_DMA                       build/stm32f4_HAL/stm32f4xx_hal_adc_ex.o
HAL_ADC_AnalogWDGConfig                           build/stm32f4_HAL/stm32f4xx_hal_adc.o
HAL_ADC_ConfigChannel                             build/stm32f4_HAL/stm32f4xx_hal_adc.o
HAL_ADC_ConvCpltCallback                          build/stm32f4_HAL/stm32f4xx_hal_adc.o
                                                  build/stm32f4_HAL/stm32f4xx_hal_adc_ex.o
HAL_ADC_ConvHalfCpltCallback                      build/stm32f4_HAL/stm32f4xx_hal_adc.o
                                                  build/stm32f4_HAL/stm32f4xx_hal_adc_ex.o
HAL_ADC_DeInit                                    build/stm32f4_HAL/stm32f4xx_hal_adc.o
HAL_ADC_ErrorCallback                             build/stm32f4_HAL/stm32f4xx_hal_adc.o
                                                  build/stm32f4_HAL/stm32f4xx_hal_adc_ex.o
HAL_ADC_GetError                                  build/stm32f4_HAL/stm32f4xx_hal_adc.o
HAL_ADC_GetState                                  build/stm32f4_HAL/stm32f4xx_hal_adc.o
HAL_ADC_GetValue                                  build/stm32f4_HAL/stm32f4xx_hal_adc.o
HAL_ADC_IRQHandler                                build/stm32f4_HAL/stm32f4xx_hal_adc.o
HAL_ADC_Init                                      build/stm32f4_HAL/stm32f4xx_hal_adc.o
HAL_ADC_LevelOutOfWindowCallback                  build/stm32f4_HAL/stm32f4xx_hal_adc.o
HAL_ADC_MspDeInit                                 build/stm32f4_HAL/stm32f4xx_hal_adc.o
HAL_ADC_MspInit                                   build/stm32f4_HAL/stm32f4xx_hal_adc.o
HAL_ADC_PollForConversion                         build/stm32f4_HAL/stm32f4xx_hal_adc.o
HAL_ADC_PollForEvent                              build/stm32f4_HAL/stm32f4xx_hal_adc.o
HAL_ADC_Start                                     build/stm32f4_HAL/stm32f4xx_hal_adc.o
HAL_ADC_Start_DMA                                 build/stm32f4_HAL/stm32f4xx_hal_adc.o
HAL_ADC_Start_IT                                  build/stm32f4_HAL/stm32f4xx_hal_adc.o
HAL_ADC_Stop                                      build/stm32f4_HAL/stm32f4xx_hal_adc.o
HAL_ADC_Stop_DMA                                  build/stm32f4_HAL/stm32f4xx_hal_adc.o
HAL_ADC_Stop_IT                                   build/stm32f4_HAL/stm32f4xx_hal_adc.o
HAL_DBGMCU_DisableDBGSleepMode                    build/stm32f4_HAL/stm32f4xx_hal.o
HAL_DBGMCU_DisableDBGStandbyMode                  build/stm32f4_HAL/stm32f4xx_hal.o
HAL_DBGMCU_DisableDBGStopMode                     build/stm32f4_HAL/stm32f4xx_hal.o
HAL_DBGMCU_EnableDBGSleepMode                     build/stm32f4_HAL/stm32f4xx_hal.o
HAL_DBGMCU_EnableDBGStandbyMode                   build/stm32f4_HAL/stm32f4xx_hal.o
HAL_DBGMCU_EnableDBGStopMode                      build/stm32f4_HAL/stm32f4xx_hal.o
HAL_DMA_Abort                                     build/stm32f4_HAL/stm32f4xx_hal_dma.o
                                                  build/stm32f4_HAL/stm32f4xx_hal_spi.o
                                                  build/stm32f4_HAL/stm32f4xx_hal_adc_ex.o
                                                  build/stm32f4_HAL/stm32f4xx_hal_adc.o
HAL_DMA_Abort_IT                                  build/stm32f4_HAL/stm32f4xx_hal_dma.o
                                                  build/stm32f4_HAL/stm32f4xx_hal_spi.o
                                                  build/stm32f4_HAL/stm32f4xx_hal_tim_ex.o
                                                  build/stm32f4_HAL/stm32f4xx_hal_tim.o
                                                  build/stm32f4_HAL/stm32f4xx_hal_i2c.o
HAL_DMA_DeInit                                    build/stm32f4_HAL/stm32f4xx_hal_dma.o
HAL_DMA_GetError                                  build/stm32f4_HAL/stm32f4xx_hal_dma.o
                                                  build/stm32f4_HAL/stm32f4xx_hal_i2c.o
HAL_DMA_GetState                                  build/stm32f4_HAL/stm32f4xx_hal_dma.o
                                                  build/stm32f4_HAL/stm32f4xx_hal_i2c.o
HAL_DMA_IRQHandler                                build/stm32f4_HAL/stm32f4xx_hal_dma.o
HAL_DMA_Init                                      build/stm32f4_HAL/stm32f4xx_hal_dma.o
HAL_DMA_PollForTransfer                           build/stm32f4_HAL/stm32f4xx_hal_dma.o
HAL_DMA_RegisterCallback                          build/stm32f4_HAL/stm32f4xx_hal_dma.o
HAL_DMA_Start                                     build/stm32f4_HAL/stm32f4xx_hal_dma.o
HAL_DMA_Start_IT                                  build/stm32f4_HAL/stm32f4xx_hal_dma.o
                                                  build/stm32f4_HAL/stm32f4xx_hal_spi.o
                                                  build/stm32f4_HAL/stm32f4xx_hal_tim_ex.o
                                                  build/stm32f4_HAL/stm32f4xx_hal_tim.o
                                                  build/stm32f4_HAL/stm32f4xx_hal_i2c.o
                                                  build/stm32f4_HAL/stm32f4xx_hal_adc_ex.o
                                                  build/stm32f4_HAL/stm32f4xx_hal_adc.o
HAL_DMA_UnRegisterCallback                        build/stm32f4_HAL/stm32f4xx_hal_dma.o
HAL_DeInit                                        build/stm32f4_HAL/stm32f4xx_hal.o
HAL_Delay                                         build/stm32f4_HAL/stm32f4xx_hal.o
HAL_DisableCompensationCell                       build/stm32f4_HAL/stm32f4xx_hal.o
HAL_EnableCompensationCell                        build/stm32f4_HAL/stm32f4xx_hal.o
HAL_GPIO_DeInit                                   build/stm32f4_HAL/stm32f4xx_hal_gpio.o
HAL_GPIO_EXTI_Callback                            build/stm32f4_HAL/stm32f4xx_hal_gpio.o
HAL_GPIO_EXTI_IRQHandler                          build/stm32f4_HAL/stm32f4xx_hal_gpio.o
HAL_GPIO_Init                                     build/stm32f4_HAL/stm32f4xx_hal_gpio.o
                                                  build/stm32f4_HAL/stm32f4xx_hal_rcc.o
                                                  build/heartbeat_task.o
HAL_GPIO_LockPin                                  build/stm32f4_HAL/stm32f4xx_hal_gpio.o
HAL_GPIO_ReadPin                                  build/stm32f4_HAL/stm32f4xx_hal_gpio.o
HAL_GPIO_TogglePin                                build/stm32f4_HAL/stm32f4xx_hal_gpio.o
                                                  build/heartbeat_task.o
HAL_GPIO_WritePin                                 build/stm32f4_HAL/stm32f4xx_hal_gpio.o
HAL_GetDEVID                                      build/stm32f4_HAL/stm32f4xx_hal.o
HAL_GetHalVersion                                 build/stm32f4_HAL/stm32f4xx_hal.o
HAL_GetREVID                                      build/stm32f4_HAL/stm32f4xx_hal.o
HAL_GetTick                                       build/stm32f4_HAL/stm32f4xx_hal.o
                                                  build/stm32f4_HAL/stm32f4xx_hal_spi.o
                                                  build/stm32f4_HAL/stm32f4xx_hal_pwr_ex.o
                                                  build/stm32f4_HAL/stm32f4xx_hal_rcc_ex.o
                                                  build/stm32f4_HAL/stm32f4xx_hal_rcc.o
                                                  build/stm32f4_HAL/stm32f4xx_hal_i2c.o
                                                  build/stm32f4_HAL/stm32f4xx_hal_adc_ex.o
                                                  build/stm32f4_HAL/stm32f4xx_hal_adc.o
                                                  build/stm32f4_HAL/stm32f4xx_hal_dma.o
HAL_GetTickFreq                                   build/stm32f4_HAL/stm32f4xx_hal.o
HAL_GetTickPrio                                   build/stm32f4_HAL/stm32f4xx_hal.o
HAL_GetUIDw0                                      build/stm32f4_HAL/stm32f4xx_hal.o
HAL_GetUIDw1                                      build/stm32f4_HAL/stm32f4xx_hal.o
HAL_GetUIDw2                                      build/stm32f4_HAL/stm32f4xx_hal.o
HAL_I2CEx_ConfigAnalogFilter                      build/stm32f4_HAL/stm32f4xx_hal_i2c_ex.o
HAL_I2CEx_ConfigDigitalFilter                     build/stm32f4_HAL/stm32f4xx_hal_i2c_ex.o
HAL_I2C_AbortCpltCallback                         build/stm32f4_HAL/stm32f4xx_hal_i2c.o
HAL_I2C_AddrCallback                              build/stm32f4_HAL/stm32f4xx_hal_i2c.o
HAL_I2C_DeInit                                    build/stm32f4_HAL/stm32f4xx_hal_i2c.o
HAL_I2C_DisableListen_IT                          build/stm32f4_HAL/stm32f4xx_hal_i2c.o
HAL_I2C_ER_IRQHandler                             build/stm32f4_HAL/stm32f4xx_hal_i2c.o
HAL_I2C_EV_IRQHandler                             build/stm32f4_HAL/stm32f4xx_hal_i2c.o
HAL_I2C_EnableListen_IT                           build/stm32f4_HAL/stm32f4xx_hal_i2c.o
HAL_I2C_ErrorCallback                             build/stm32f4_HAL/stm32f4xx_hal_i2c.o
HAL_I2C_GetError                                  build/stm32f4_HAL/stm32f4xx_hal_i2c.o
HAL_I2C_GetMode                                   build/stm32f4_HAL/stm32f4xx_hal_i2c.o
HAL_I2C_GetState                                  build/stm32f4_HAL/stm32f4xx_hal_i2c.o
HAL_I2C_Init                                      build/stm32f4_HAL/stm32f4xx_hal_i2c.o
HAL_I2C_IsDeviceReady                             build/stm32f4_HAL/stm32f4xx_hal_i2c.o
HAL_I2C_ListenCpltCallback                        build/stm32f4_HAL/stm32f4xx_hal_i2c.o
HAL_I2C_MasterRxCpltCallback                      build/stm32f4_HAL/stm32f4xx_hal_i2c.o
HAL_I2C_MasterTxCpltCallback                      build/stm32f4_HAL/stm32f4xx_hal_i2c.o
HAL_I2C_Master_Abort_IT                           build/stm32f4_HAL/stm32f4xx_hal_i2c.o
HAL_I2C_Master_Receive                            build/stm32f4_HAL/stm32f4xx_hal_i2c.o
HAL_I2C_Master_Receive_DMA                        build/stm32f4_HAL/stm32f4xx_hal_i2c.o
HAL_I2C_Master_Receive_IT                         build/stm32f4_HAL/stm32f4xx_hal_i2c.o
HAL_I2C_Master_Seq_Receive_DMA                    build/stm32f4_HAL/stm32f4xx_hal_i2c.o
HAL_I2C_Master_Seq_Receive_IT                     build/stm32f4_HAL/stm32f4xx_hal_i2c.o
HAL_I2C_Master_Seq_Transmit_DMA                   build/stm32f4_HAL/stm32f4xx_hal_i2c.o
HAL_I2C_Master_Seq_Transmit_IT                    build/stm32f4_HAL/stm32f4xx_hal_i2c.o
HAL_I2C_Master_Transmit                           build/stm32f4_HAL/stm32f4xx_hal_i2c.o
HAL_I2C_Master_Transmit_DMA                       build/stm32f4_HAL/stm32f4xx_hal_i2c.o
HAL_I2C_Master_Transmit_IT                        build/stm32f4_HAL/stm32f4xx_hal_i2c.o
HAL_I2C_MemRxCpltCallback                         build/stm32f4_HAL/stm32f4xx_hal_i2c.o
HAL_I2C_MemTxCpltCallback                         build/stm32f4_HAL/stm32f4xx_hal_i2c.o
HAL_I2C_Mem_Read                                  build/stm32f4_HAL/stm32f4xx_hal_i2c.o
HAL_I2C_Mem_Read_DMA                              build/stm32f4_HAL/stm32f4xx_hal_i2c.o
HAL_I2C_Mem_Read_IT                               build/stm32f4_HAL/stm32f4xx_hal_i2c.o
HAL_I2C_Mem_Write                                 build/stm32f4_HAL/stm32f4xx_hal_i2c.o
HAL_I2C_Mem_Write_DMA                             build/stm32f4_HAL/stm32f4xx_hal_i2c.o
HAL_I2C_Mem_Write_IT                              build/stm32f4_HAL/stm32f4xx_hal_i2c.o
HAL_I2C_MspDeInit                                 build/stm32f4_HAL/stm32f4xx_hal_i2c.o
HAL_I2C_MspInit                                   build/stm32f4_HAL/stm32f4xx_hal_i2c.o
HAL_I2C_SlaveRxCpltCallback                       build/stm32f4_HAL/stm32f4xx_hal_i2c.o
HAL_I2C_SlaveTxCpltCallback                       build/stm32f4_HAL/stm32f4xx_hal_i2c.o
HAL_I2C_Slave_Receive                             build/stm32f4_HAL/stm32f4xx_hal_i2c.o
HAL_I2C_Slave_Receive_DMA                         build/stm32f4_HAL/stm32f4xx_hal_i2c.o
HAL_I2C_Slave_Receive_IT                          build/stm32f4_HAL/stm32f4xx_hal_i2c.o
HAL_I2C_Slave_Seq_Receive_DMA                     build/stm32f4_HAL/stm32f4xx_hal_i2c.o
HAL_I2C_Slave_Seq_Receive_IT                      build/stm32f4_HAL/stm32f4xx_hal_i2c.o
HAL_I2C_Slave_Seq_Transmit_DMA                    build/stm32f4_HAL/stm32f4xx_hal_i2c.o
HAL_I2C_Slave_Seq_Transmit_IT                     build/stm32f4_HAL/stm32f4xx_hal_i2c.o
HAL_I2C_Slave_Transmit                            build/stm32f4_HAL/stm32f4xx_hal_i2c.o
HAL_I2C_Slave_Transmit_DMA                        build/stm32f4_HAL/stm32f4xx_hal_i2c.o
HAL_I2C_Slave_Transmit_IT                         build/stm32f4_HAL/stm32f4xx_hal_i2c.o
HAL_IncTick                                       build/stm32f4_HAL/stm32f4xx_hal.o
                                                  build/FreeRTOS/port.o
HAL_Init                                          build/stm32f4_HAL/stm32f4xx_hal.o
                                                  build/main.o
HAL_InitTick                                      build/stm32f4_HAL/stm32f4xx_hal.o
                                                  build/stm32f4_HAL/stm32f4xx_hal_rcc_ex.o
                                                  build/stm32f4_HAL/stm32f4xx_hal_rcc.o
HAL_MPU_ConfigRegion                              build/stm32f4_HAL/stm32f4xx_hal_cortex.o
HAL_MPU_Disable                                   build/stm32f4_HAL/stm32f4xx_hal_cortex.o
HAL_MPU_Enable                                    build/stm32f4_HAL/stm32f4xx_hal_cortex.o
HAL_MspDeInit                                     build/stm32f4_HAL/stm32f4xx_hal.o
HAL_MspInit                                       build/stm32f4_HAL/stm32f4xx_hal.o
HAL_NVIC_ClearPendingIRQ                          build/stm32f4_HAL/stm32f4xx_hal_cortex.o
HAL_NVIC_DisableIRQ                               build/stm32f4_HAL/stm32f4xx_hal_cortex.o
HAL_NVIC_EnableIRQ                                build/stm32f4_HAL/stm32f4xx_hal_cortex.o
HAL_NVIC_GetActive                                build/stm32f4_HAL/stm32f4xx_hal_cortex.o
HAL_NVIC_GetPendingIRQ                            build/stm32f4_HAL/stm32f4xx_hal_cortex.o
HAL_NVIC_GetPriority                              build/stm32f4_HAL/stm32f4xx_hal_cortex.o
HAL_NVIC_GetPriorityGrouping                      build/stm32f4_HAL/stm32f4xx_hal_cortex.o
HAL_NVIC_SetPendingIRQ                            build/stm32f4_HAL/stm32f4xx_hal_cortex.o
HAL_NVIC_SetPriority                              build/stm32f4_HAL/stm32f4xx_hal_cortex.o
                                                  build/stm32f4_HAL/stm32f4xx_hal.o
HAL_NVIC_SetPriorityGrouping                      build/stm32f4_HAL/stm32f4xx_hal_cortex.o
                                                  build/stm32f4_HAL/stm32f4xx_hal.o
HAL_NVIC_SystemReset                              build/stm32f4_HAL/stm32f4xx_hal_cortex.o
                                                  build/cmd_parser.o
HAL_PWREx_ControlVoltageScaling                   build/stm32f4_HAL/stm32f4xx_hal_pwr_ex.o
HAL_PWREx_DisableBkUpReg                          build/stm32f4_HAL/stm32f4xx_hal_pwr_ex.o
HAL_PWREx_DisableFlashPowerDown                   build/stm32f4_HAL/stm32f4xx_hal_pwr_ex.o
HAL_PWREx_DisableOverDrive                        build/stm32f4_HAL/stm32f4xx_hal_pwr_ex.o
HAL_PWREx_EnableBkUpReg                           build/stm32f4_HAL/stm32f4xx_hal_pwr_ex.o
HAL_PWREx_EnableFlashPowerDown                    build/stm32f4_HAL/stm32f4xx_hal_pwr_ex.o
HAL_PWREx_EnableOverDrive                         build/stm32f4_HAL/stm32f4xx_hal_pwr_ex.o
HAL_PWREx_EnterUnderDriveSTOPMode                 build/stm32f4_HAL/stm32f4xx_hal_pwr_ex.o
HAL_PWREx_GetVoltageRange                         build/stm32f4_HAL/stm32f4xx_hal_pwr_ex.o
HAL_PWR_ConfigPVD                                 build/stm32f4_HAL/stm32f4xx_hal_pwr.o
HAL_PWR_DeInit                                    build/stm32f4_HAL/stm32f4xx_hal_pwr.o
HAL_PWR_DisableBkUpAccess                         build/stm32f4_HAL/stm32f4xx_hal_pwr.o
HAL_PWR_DisablePVD                                build/stm32f4_HAL/stm32f4xx_hal_pwr.o
HAL_PWR_DisableSEVOnPend                          build/stm32f4_HAL/stm32f4xx_hal_pwr.o
HAL_PWR_DisableSleepOnExit                        build/stm32f4_HAL/stm32f4xx_hal_pwr.o
HAL_PWR_DisableWakeUpPin                          build/stm32f4_HAL/stm32f4xx_hal_pwr.o
HAL_PWR_EnableBkUpAccess                          build/stm32f4_HAL/stm32f4xx_hal_pwr.o
HAL_PWR_EnablePVD                                 build/stm32f4_HAL/stm32f4xx_hal_pwr.o
HAL_PWR_EnableSEVOnPend                           build/stm32f4_HAL/stm32f4xx_hal_pwr.o
HAL_PWR_EnableSleepOnExit                         build/stm32f4_HAL/stm32f4xx_hal_pwr.o
HAL_PWR_EnableWakeUpPin                           build/stm32f4_HAL/stm32f4xx_hal_pwr.o
HAL_PWR_EnterSLEEPMode                            build/stm32f4_HAL/stm32f4xx_hal_pwr.o
HAL_PWR_EnterSTANDBYMode                          build/stm32f4_HAL/stm32f4xx_hal_pwr.o
HAL_PWR_EnterSTOPMode                             build/stm32f4_HAL/stm32f4xx_hal_pwr.o
HAL_PWR_PVDCallback                               build/stm32f4_HAL/stm32f4xx_hal_pwr.o
HAL_PWR_PVD_IRQHandler                            build/stm32f4_HAL/stm32f4xx_hal_pwr.o
HAL_RCCEx_DisablePLLI2S                           build/stm32f4_HAL/stm32f4xx_hal_rcc_ex.o
HAL_RCCEx_DisablePLLSAI                           build/stm32f4_HAL/stm32f4xx_hal_rcc_ex.o
HAL_RCCEx_EnablePLLI2S                            build/stm32f4_HAL/stm32f4xx_hal_rcc_ex.o
HAL_RCCEx_EnablePLLSAI                            build/stm32f4_HAL/stm32f4xx_hal_rcc_ex.o
HAL_RCCEx_GetPeriphCLKConfig                      build/stm32f4_HAL/stm32f4xx_hal_rcc_ex.o
HAL_RCCEx_GetPeriphCLKFreq                        build/stm32f4_HAL/stm32f4xx_hal_rcc_ex.o
HAL_RCCEx_PeriphCLKConfig                         build/stm32f4_HAL/stm32f4xx_hal_rcc_ex.o
HAL_RCCEx_SelectLSEMode                           build/stm32f4_HAL/stm32f4xx_hal_rcc_ex.o
HAL_RCC_CSSCallback                               build/stm32f4_HAL/stm32f4xx_hal_rcc.o
HAL_RCC_ClockConfig                               build/stm32f4_HAL/stm32f4xx_hal_rcc.o
                                                  build/main.o
HAL_RCC_DeInit                                    build/stm32f4_HAL/stm32f4xx_hal_rcc_ex.o
                                                  build/stm32f4_HAL/stm32f4xx_hal_rcc.o
HAL_RCC_DisableCSS                                build/stm32f4_HAL/stm32f4xx_hal_rcc.o
HAL_RCC_EnableCSS                                 build/stm32f4_HAL/stm32f4xx_hal_rcc.o
HAL_RCC_GetClockConfig                            build/stm32f4_HAL/stm32f4xx_hal_rcc.o
HAL_RCC_GetHCLKFreq                               build/stm32f4_HAL/stm32f4xx_hal_rcc.o
HAL_RCC_GetOscConfig                              build/stm32f4_HAL/stm32f4xx_hal_rcc_ex.o
                                                  build/stm32f4_HAL/stm32f4xx_hal_rcc.o
HAL_RCC_GetPCLK1Freq                              build/stm32f4_HAL/stm32f4xx_hal_rcc.o
                                                  build/stm32f4_HAL/stm32f4xx_hal_i2c.o
HAL_RCC_GetPCLK2Freq                              build/stm32f4_HAL/stm32f4xx_hal_rcc.o
HAL_RCC_GetSysClockFreq                           build/stm32f4_HAL/stm32f4xx_hal_rcc_ex.o
                                                  build/stm32f4_HAL/stm32f4xx_hal_rcc.o
HAL_RCC_MCOConfig                                 build/stm32f4_HAL/stm32f4xx_hal_rcc.o
HAL_RCC_NMI_IRQHandler                            build/stm32f4_HAL/stm32f4xx_hal_rcc.o
HAL_RCC_OscConfig                                 build/stm32f4_HAL/stm32f4xx_hal_rcc_ex.o
                                                  build/stm32f4_HAL/stm32f4xx_hal_rcc.o
                                                  build/main.o
HAL_ResumeTick                                    build/stm32f4_HAL/stm32f4xx_hal.o
HAL_SPI_Abort                                     build/stm32f4_HAL/stm32f4xx_hal_spi.o
HAL_SPI_AbortCpltCallback                         build/stm32f4_HAL/stm32f4xx_hal_spi.o
HAL_SPI_Abort_IT                                  build/stm32f4_HAL/stm32f4xx_hal_spi.o
HAL_SPI_DMAPause                                  build/stm32f4_HAL/stm32f4xx_hal_spi.o
HAL_SPI_DMAResume                                 build/stm32f4_HAL/stm32f4xx_hal_spi.o
HAL_SPI_DMAStop                                   build/stm32f4_HAL/stm32f4xx_hal_spi.o
HAL_SPI_DeInit                                    build/stm32f4_HAL/stm32f4xx_hal_spi.o
HAL_SPI_ErrorCallback                             build/stm32f4_HAL/stm32f4xx_hal_spi.o
HAL_SPI_GetError                                  build/stm32f4_HAL/stm32f4xx_hal_spi.o
HAL_SPI_GetState                                  build/stm32f4_HAL/stm32f4xx_hal_spi.o
HAL_SPI_IRQHandler                                build/stm32f4_HAL/stm32f4xx_hal_spi.o
HAL_SPI_Init                                      build/stm32f4_HAL/stm32f4xx_hal_spi.o
HAL_SPI_MspDeInit                                 build/stm32f4_HAL/stm32f4xx_hal_spi.o
HAL_SPI_MspInit                                   build/stm32f4_HAL/stm32f4xx_hal_spi.o
HAL_SPI_Receive                                   build/stm32f4_HAL/stm32f4xx_hal_spi.o
HAL_SPI_Receive_DMA                               build/stm32f4_HAL/stm32f4xx_hal_spi.o
HAL_SPI_Receive_IT                                build/stm32f4_HAL/stm32f4xx_hal_spi.o
HAL_SPI_RxCpltCallback                            build/stm32f4_HAL/stm32f4xx_hal_spi.o
HAL_SPI_RxHalfCpltCallback                        build/stm32f4_HAL/stm32f4xx_hal_spi.o
HAL_SPI_Transmit                                  build/stm32f4_HAL/stm32f4xx_hal_spi.o
HAL_SPI_TransmitReceive                           build/stm32f4_HAL/stm32f4xx_hal_spi.o
HAL_SPI_TransmitReceive_DMA                       build/stm32f4_HAL/stm32f4xx_hal_spi.o
HAL_SPI_TransmitReceive_IT                        build/stm32f4_HAL/stm32f4xx_hal_spi.o
HAL_SPI_Transmit_DMA                              build/stm32f4_HAL/stm32f4xx_hal_spi.o
HAL_SPI_Transmit_IT                               build/stm32f4_HAL/stm32f4xx_hal_spi.o
HAL_SPI_TxCpltCallback                            build/stm32f4_HAL/stm32f4xx_hal_spi.o
HAL_SPI_TxHalfCpltCallback                        build/stm32f4_HAL/stm32f4xx_hal_spi.o
HAL_SPI_TxRxCpltCallback                          build/stm32f4_HAL/stm32f4xx_hal_spi.o
HAL_SPI_TxRxHalfCpltCallback                      build/stm32f4_HAL/stm32f4xx_hal_spi.o
HAL_SYSTICK_CLKSourceConfig                       build/stm32f4_HAL/stm32f4xx_hal_cortex.o
HAL_SYSTICK_Callback                              build/stm32f4_HAL/stm32f4xx_hal_cortex.o
HAL_SYSTICK_Config                                build/stm32f4_HAL/stm32f4xx_hal_cortex.o
                                                  build/stm32f4_HAL/stm32f4xx_hal.o
HAL_SYSTICK_IRQHandler                            build/stm32f4_HAL/stm32f4xx_hal_cortex.o
HAL_SetTickFreq                                   build/stm32f4_HAL/stm32f4xx_hal.o
HAL_SuspendTick                                   build/stm32f4_HAL/stm32f4xx_hal.o
HAL_TIMEx_BreakCallback                           build/stm32f4_HAL/stm32f4xx_hal_tim_ex.o
                                                  build/stm32f4_HAL/stm32f4xx_hal_tim.o
HAL_TIMEx_CommutCallback                          build/stm32f4_HAL/stm32f4xx_hal_tim_ex.o
                                                  build/stm32f4_HAL/stm32f4xx_hal_tim.o
HAL_TIMEx_CommutHalfCpltCallback                  build/stm32f4_HAL/stm32f4xx_hal_tim_ex.o
HAL_TIMEx_ConfigBreakDeadTime                     build/stm32f4_HAL/stm32f4xx_hal_tim_ex.o
HAL_TIMEx_ConfigCommutEvent                       build/stm32f4_HAL/stm32f4xx_hal_tim_ex.o
HAL_TIMEx_ConfigCommutEvent_DMA                   build/stm32f4_HAL/stm32f4xx_hal_tim_ex.o
HAL_TIMEx_ConfigCommutEvent_IT                    build/stm32f4_HAL/stm32f4xx_hal_tim_ex.o
HAL_TIMEx_HallSensor_DeInit                       build/stm32f4_HAL/stm32f4xx_hal_tim_ex.o
HAL_TIMEx_HallSensor_GetState                     build/stm32f4_HAL/stm32f4xx_hal_tim_ex.o
HAL_TIMEx_HallSensor_Init                         build/stm32f4_HAL/stm32f4xx_hal_tim_ex.o
HAL_TIMEx_HallSensor_MspDeInit                    build/stm32f4_HAL/stm32f4xx_hal_tim_ex.o
HAL_TIMEx_HallSensor_MspInit                      build/stm32f4_HAL/stm32f4xx_hal_tim_ex.o
HAL_TIMEx_HallSensor_Start                        build/stm32f4_HAL/stm32f4xx_hal_tim_ex.o
HAL_TIMEx_HallSensor_Start_DMA                    build/stm32f4_HAL/stm32f4xx_hal_tim_ex.o
HAL_TIMEx_HallSensor_Start_IT                     build/stm32f4_HAL/stm32f4xx_hal_tim_ex.o
HAL_TIMEx_HallSensor_Stop                         build/stm32f4_HAL/stm32f4xx_hal_tim_ex.o
HAL_TIMEx_HallSensor_Stop_DMA                     build/stm32f4_HAL/stm32f4xx_hal_tim_ex.o
HAL_TIMEx_HallSensor_Stop_IT                      build/stm32f4_HAL/stm32f4xx_hal_tim_ex.o
HAL_TIMEx_MasterConfigSynchronization             build/stm32f4_HAL/stm32f4xx_hal_tim_ex.o
HAL_TIMEx_OCN_Start                               build/stm32f4_HAL/stm32f4xx_hal_tim_ex.o
HAL_TIMEx_OCN_Start_DMA                           build/stm32f4_HAL/stm32f4xx_hal_tim_ex.o
HAL_TIMEx_OCN_Start_IT                            build/stm32f4_HAL/stm32f4xx_hal_tim_ex.o
HAL_TIMEx_OCN_Stop                                build/stm32f4_HAL/stm32f4xx_hal_tim_ex.o
HAL_TIMEx_OCN_Stop_DMA                            build/stm32f4_HAL/stm32f4xx_hal_tim_ex.o
HAL_TIMEx_OCN_Stop_IT                             build/stm32f4_HAL/stm32f4xx_hal_tim_ex.o
HAL_TIMEx_OnePulseN_Start                         build/stm32f4_HAL/stm32f4xx_hal_tim_ex.o
HAL_TIMEx_OnePulseN_Start_IT                      build/stm32f4_HAL/stm32f4xx_hal_tim_ex.o
HAL_TIMEx_OnePulseN_Stop                          build/stm32f4_HAL/stm32f4xx_hal_tim_ex.o
HAL_TIMEx_OnePulseN_Stop_IT                       build/stm32f4_HAL/stm32f4xx_hal_tim_ex.o
HAL_TIMEx_PWMN_Start                              build/stm32f4_HAL/stm32f4xx_hal_tim_ex.o
HAL_TIMEx_PWMN_Start_DMA                          build/stm32f4_HAL/stm32f4xx_hal_tim_ex.o
HAL_TIMEx_PWMN_Start_IT                           build/stm32f4_HAL/stm32f4xx_hal_tim_ex.o
HAL_TIMEx_PWMN_Stop                               build/stm32f4_HAL/stm32f4xx_hal_tim_ex.o
HAL_TIMEx_PWMN_Stop_DMA                           build/stm32f4_HAL/stm32f4xx_hal_tim_ex.o
HAL_TIMEx_PWMN_Stop_IT                            build/stm32f4_HAL/stm32f4xx_hal_tim_ex.o
HAL_TIMEx_RemapConfig                             build/stm32f4_HAL/stm32f4xx_hal_tim_ex.o
HAL_TIM_Base_DeInit                               build/stm32f4_HAL/stm32f4xx_hal_tim.o
HAL_TIM_Base_GetState                             build/stm32f4_HAL/stm32f4xx_hal_tim.o
HAL_TIM_Base_Init                                 build/stm32f4_HAL/stm32f4xx_hal_tim.o
HAL_TIM_Base_MspDeInit                            build/stm32f4_HAL/stm32f4xx_hal_tim.o
HAL_TIM_Base_MspInit                              build/stm32f4_HAL/stm32f4xx_hal_tim.o
HAL_TIM_Base_Start                                build/stm32f4_HAL/stm32f4xx_hal_tim.o
HAL_TIM_Base_Start_DMA                            build/stm32f4_HAL/stm32f4xx_hal_tim.o
HAL_TIM_Base_Start_IT                             build/stm32f4_HAL/stm32f4xx_hal_tim.o
HAL_TIM_Base_Stop                                 build/stm32f4_HAL/stm32f4xx_hal_tim.o
HAL_TIM_Base_Stop_DMA                             build/stm32f4_HAL/stm32f4xx_hal_tim.o
HAL_TIM_Base_Stop_IT                              build/stm32f4_HAL/stm32f4xx_hal_tim.o
HAL_TIM_ConfigClockSource                         build/stm32f4_HAL/stm32f4xx_hal_tim.o
HAL_TIM_ConfigOCrefClear                          build/stm32f4_HAL/stm32f4xx_hal_tim.o
HAL_TIM_ConfigTI1Input                            build/stm32f4_HAL/stm32f4xx_hal_tim.o
HAL_TIM_DMABurst_ReadStart                        build/stm32f4_HAL/stm32f4xx_hal_tim.o
HAL_TIM_DMABurst_ReadStop                         build/stm32f4_HAL/stm32f4xx_hal_tim.o
HAL_TIM_DMABurst_WriteStart                       build/stm32f4_HAL/stm32f4xx_hal_tim.o
HAL_TIM_DMABurst_WriteStop                        build/stm32f4_HAL/stm32f4xx_hal_tim.o
HAL_TIM_Encoder_DeInit                            build/stm32f4_HAL/stm32f4xx_hal_tim.o
HAL_TIM_Encoder_GetState                          build/stm32f4_HAL/stm32f4xx_hal_tim.o
HAL_TIM_Encoder_Init                              build/stm32f4_HAL/stm32f4xx_hal_tim.o
HAL_TIM_Encoder_MspDeInit                         build/stm32f4_HAL/stm32f4xx_hal_tim.o
HAL_TIM_Encoder_MspInit                           build/stm32f4_HAL/stm32f4xx_hal_tim.o
HAL_TIM_Encoder_Start                             build/stm32f4_HAL/stm32f4xx_hal_tim.o
HAL_TIM_Encoder_Start_DMA                         build/stm32f4_HAL/stm32f4xx_hal_tim.o
HAL_TIM_Encoder_Start_IT                          build/stm32f4_HAL/stm32f4xx_hal_tim.o
HAL_TIM_Encoder_Stop                              build/stm32f4_HAL/stm32f4xx_hal_tim.o
HAL_TIM_Encoder_Stop_DMA                          build/stm32f4_HAL/stm32f4xx_hal_tim.o
HAL_TIM_Encoder_Stop_IT                           build/stm32f4_HAL/stm32f4xx_hal_tim.o
HAL_TIM_ErrorCallback                             build/stm32f4_HAL/stm32f4xx_hal_tim.o
HAL_TIM_GenerateEvent                             build/stm32f4_HAL/stm32f4xx_hal_tim.o
HAL_TIM_IC_CaptureCallback                        build/stm32f4_HAL/stm32f4xx_hal_tim.o
HAL_TIM_IC_CaptureHalfCpltCallback                build/stm32f4_HAL/stm32f4xx_hal_tim.o
HAL_TIM_IC_ConfigChannel                          build/stm32f4_HAL/stm32f4xx_hal_tim.o
HAL_TIM_IC_DeInit                                 build/stm32f4_HAL/stm32f4xx_hal_tim.o
HAL_TIM_IC_GetState                               build/stm32f4_HAL/stm32f4xx_hal_tim.o
HAL_TIM_IC_Init                                   build/stm32f4_HAL/stm32f4xx_hal_tim.o
HAL_TIM_IC_MspDeInit                              build/stm32f4_HAL/stm32f4xx_hal_tim.o
HAL_TIM_IC_MspInit                                build/stm32f4_HAL/stm32f4xx_hal_tim.o
HAL_TIM_IC_Start                                  build/stm32f4_HAL/stm32f4xx_hal_tim.o
HAL_TIM_IC_Start_DMA                              build/stm32f4_HAL/stm32f4xx_hal_tim.o
HAL_TIM_IC_Start_IT                               build/stm32f4_HAL/stm32f4xx_hal_tim.o
HAL_TIM_IC_Stop                                   build/stm32f4_HAL/stm32f4xx_hal_tim.o
HAL_TIM_IC_Stop_DMA                               build/stm32f4_HAL/stm32f4xx_hal_tim.o
HAL_TIM_IC_Stop_IT                                build/stm32f4_HAL/stm32f4xx_hal_tim.o
HAL_TIM_IRQHandler                                build/stm32f4_HAL/stm32f4xx_hal_tim.o
HAL_TIM_OC_ConfigChannel                          build/stm32f4_HAL/stm32f4xx_hal_tim.o
HAL_TIM_OC_DeInit                                 build/stm32f4_HAL/stm32f4xx_hal_tim.o
HAL_TIM_OC_DelayElapsedCallback                   build/stm32f4_HAL/stm32f4xx_hal_tim.o
HAL_TIM_OC_GetState                               build/stm32f4_HAL/stm32f4xx_hal_tim.o
HAL_TIM_OC_Init                                   build/stm32f4_HAL/stm32f4xx_hal_tim.o
HAL_TIM_OC_MspDeInit                              build/stm32f4_HAL/stm32f4xx_hal_tim.o
HAL_TIM_OC_MspInit                                build/stm32f4_HAL/stm32f4xx_hal_tim.o
HAL_TIM_OC_Start                                  build/stm32f4_HAL/stm32f4xx_hal_tim.o
HAL_TIM_OC_Start_DMA                              build/stm32f4_HAL/stm32f4xx_hal_tim.o
HAL_TIM_OC_Start_IT                               build/stm32f4_HAL/stm32f4xx_hal_tim.o
HAL_TIM_OC_Stop                                   build/stm32f4_HAL/stm32f4xx_hal_tim.o
HAL_TIM_OC_Stop_DMA                               build/stm32f4_HAL/stm32f4xx_hal_tim.o
HAL_TIM_OC_Stop_IT                                build/stm32f4_HAL/stm32f4xx_hal_tim.o
HAL_TIM_OnePulse_ConfigChannel                    build/stm32f4_HAL/stm32f4xx_hal_tim.o
HAL_TIM_OnePulse_DeInit                           build/stm32f4_HAL/stm32f4xx_hal_tim.o
HAL_TIM_OnePulse_GetState                         build/stm32f4_HAL/stm32f4xx_hal_tim.o
HAL_TIM_OnePulse_Init                             build/stm32f4_HAL/stm32f4xx_hal_tim.o
HAL_TIM_OnePulse_MspDeInit                        build/stm32f4_HAL/stm32f4xx_hal_tim.o
HAL_TIM_OnePulse_MspInit                          build/stm32f4_HAL/stm32f4xx_hal_tim.o
HAL_TIM_OnePulse_Start                            build/stm32f4_HAL/stm32f4xx_hal_tim.o
HAL_TIM_OnePulse_Start_IT                         build/stm32f4_HAL/stm32f4xx_hal_tim.o
HAL_TIM_OnePulse_Stop                             build/stm32f4_HAL/stm32f4xx_hal_tim.o
HAL_TIM_OnePulse_Stop_IT                          build/stm32f4_HAL/stm32f4xx_hal_tim.o
HAL_TIM_PWM_ConfigChannel                         build/stm32f4_HAL/stm32f4xx_hal_tim.o
HAL_TIM_PWM_DeInit                                build/stm32f4_HAL/stm32f4xx_hal_tim.o
HAL_TIM_PWM_GetState                              build/stm32f4_HAL/stm32f4xx_hal_tim.o
HAL_TIM_PWM_Init                                  build/stm32f4_HAL/stm32f4xx_hal_tim.o
HAL_TIM_PWM_MspDeInit                             build/stm32f4_HAL/stm32f4xx_hal_tim.o
HAL_TIM_PWM_MspInit                               build/stm32f4_HAL/stm32f4xx_hal_tim.o
HAL_TIM_PWM_PulseFinishedCallback                 build/stm32f4_HAL/stm32f4xx_hal_tim.o
HAL_TIM_PWM_PulseFinishedHalfCpltCallback         build/stm32f4_HAL/stm32f4xx_hal_tim.o
HAL_TIM_PWM_Start                                 build/stm32f4_HAL/stm32f4xx_hal_tim.o
HAL_TIM_PWM_Start_DMA                             build/stm32f4_HAL/stm32f4xx_hal_tim.o
HAL_TIM_PWM_Start_IT                              build/stm32f4_HAL/stm32f4xx_hal_tim.o
HAL_TIM_PWM_Stop                                  build/stm32f4_HAL/stm32f4xx_hal_tim.o
HAL_TIM_PWM_Stop_DMA                              build/stm32f4_HAL/stm32f4xx_hal_tim.o
HAL_TIM_PWM_Stop_IT                               build/stm32f4_HAL/stm32f4xx_hal_tim.o
HAL_TIM_PeriodElapsedCallback                     build/stm32f4_HAL/stm32f4xx_hal_tim.o
HAL_TIM_PeriodElapsedHalfCpltCallback             build/stm32f4_HAL/stm32f4xx_hal_tim.o
HAL_TIM_ReadCapturedValue                         build/stm32f4_HAL/stm32f4xx_hal_tim.o
HAL_TIM_SlaveConfigSynchro                        build/stm32f4_HAL/stm32f4xx_hal_tim.o
HAL_TIM_SlaveConfigSynchro_IT                     build/stm32f4_HAL/stm32f4xx_hal_tim.o
HAL_TIM_TriggerCallback                           build/stm32f4_HAL/stm32f4xx_hal_tim.o
HAL_TIM_TriggerHalfCpltCallback                   build/stm32f4_HAL/stm32f4xx_hal_tim.o
HardFault_Handler                                 build/stm32f4xx_it.o
I2C1_ER_IRQHandler                                build/startup_stm32f446xx.o
I2C1_EV_IRQHandler                                build/startup_stm32f446xx.o
I2C2_ER_IRQHandler                                build/startup_stm32f446xx.o
I2C2_EV_IRQHandler                                build/startup_stm32f446xx.o
I2C3_ER_IRQHandler                                build/startup_stm32f446xx.o
I2C3_EV_IRQHandler                                build/startup_stm32f446xx.o
LL_DMA_DeInit                                     build/stm32f4_HAL/stm32f4xx_ll_dma.o
LL_DMA_Init                                       build/stm32f4_HAL/stm32f4xx_ll_dma.o
LL_DMA_StructInit                                 build/stm32f4_HAL/stm32f4xx_ll_dma.o
LL_GPIO_DeInit                                    build/stm32f4_HAL/stm32f4xx_ll_gpio.o
LL_GPIO_Init                                      build/stm32f4_HAL/stm32f4xx_ll_gpio.o
LL_GPIO_StructInit                                build/stm32f4_HAL/stm32f4xx_ll_gpio.o
LL_RCC_DeInit                                     build/stm32f4_HAL/stm32f4xx_ll_rcc.o
LL_RCC_GetCECClockFreq                            build/stm32f4_HAL/stm32f4xx_ll_rcc.o
LL_RCC_GetFMPI2CClockFreq                         build/stm32f4_HAL/stm32f4xx_ll_rcc.o
LL_RCC_GetI2SClockFreq                            build/stm32f4_HAL/stm32f4xx_ll_rcc.o
LL_RCC_GetSAIClockFreq                            build/stm32f4_HAL/stm32f4xx_ll_rcc.o
LL_RCC_GetSDIOClockFreq                           build/stm32f4_HAL/stm32f4xx_ll_rcc.o
LL_RCC_GetSPDIFRXClockFreq                        build/stm32f4_HAL/stm32f4xx_ll_rcc.o
LL_RCC_GetSystemClocksFreq                        build/stm32f4_HAL/stm32f4xx_ll_rcc.o
                                                  build/stm32f4_HAL/stm32f4xx_ll_usart.o
LL_RCC_GetUSBClockFreq                            build/stm32f4_HAL/stm32f4xx_ll_rcc.o
LL_USART_ClockInit                                build/stm32f4_HAL/stm32f4xx_ll_usart.o
LL_USART_ClockStructInit                          build/stm32f4_HAL/stm32f4xx_ll_usart.o
LL_USART_DeInit                                   build/stm32f4_HAL/stm32f4xx_ll_usart.o
LL_USART_Init                                     build/stm32f4_HAL/stm32f4xx_ll_usart.o
LL_USART_StructInit                               build/stm32f4_HAL/stm32f4xx_ll_usart.o
MemManage_Handler                                 build/stm32f4xx_it.o
NMI_Handler                                       build/stm32f4xx_it.o
OS_Tick_AcknowledgeIRQ                            build/FreeRTOS/os_systick.o
OS_Tick_Disable                                   build/FreeRTOS/os_systick.o
OS_Tick_Enable                                    build/FreeRTOS/os_systick.o
OS_Tick_GetClock                                  build/FreeRTOS/os_systick.o
OS_Tick_GetCount                                  build/FreeRTOS/os_systick.o
                                                  build/FreeRTOS/cmsis_os2.o
OS_Tick_GetIRQn                                   build/FreeRTOS/os_systick.o
OS_Tick_GetInterval                               build/FreeRTOS/os_systick.o
                                                  build/FreeRTOS/cmsis_os2.o
OS_Tick_GetOverflow                               build/FreeRTOS/os_systick.o
                                                  build/FreeRTOS/cmsis_os2.o
OS_Tick_Setup                                     build/FreeRTOS/os_systick.o
OTG_FS_IRQHandler                                 build/startup_stm32f446xx.o
OTG_FS_WKUP_IRQHandler                            build/startup_stm32f446xx.o
OTG_HS_EP1_IN_IRQHandler                          build/startup_stm32f446xx.o
OTG_HS_EP1_OUT_IRQHandler                         build/startup_stm32f446xx.o
OTG_HS_IRQHandler                                 build/startup_stm32f446xx.o
OTG_HS_WKUP_IRQHandler                            build/startup_stm32f446xx.o
PVD_IRQHandler                                    build/startup_stm32f446xx.o
PendSV_Handler                                    build/FreeRTOS/port.o
                                                  build/startup_stm32f446xx.o
QUADSPI_IRQHandler                                build/startup_stm32f446xx.o
RCC_GetHCLKClockFreq                              build/stm32f4_HAL/stm32f4xx_ll_rcc.o
RCC_GetPCLK1ClockFreq                             build/stm32f4_HAL/stm32f4xx_ll_rcc.o
RCC_GetPCLK2ClockFreq                             build/stm32f4_HAL/stm32f4xx_ll_rcc.o
RCC_GetSystemClockFreq                            build/stm32f4_HAL/stm32f4xx_ll_rcc.o
RCC_IRQHandler                                    build/startup_stm32f446xx.o
RCC_PLLI2S_GetFreqDomain_I2S                      build/stm32f4_HAL/stm32f4xx_ll_rcc.o
RCC_PLLI2S_GetFreqDomain_SAI                      build/stm32f4_HAL/stm32f4xx_ll_rcc.o
RCC_PLLI2S_GetFreqDomain_SPDIFRX                  build/stm32f4_HAL/stm32f4xx_ll_rcc.o
RCC_PLLSAI_GetFreqDomain_48M                      build/stm32f4_HAL/stm32f4xx_ll_rcc.o
RCC_PLLSAI_GetFreqDomain_SAI                      build/stm32f4_HAL/stm32f4xx_ll_rcc.o
RCC_PLL_GetFreqDomain_48M                         build/stm32f4_HAL/stm32f4xx_ll_rcc.o
RCC_PLL_GetFreqDomain_I2S                         build/stm32f4_HAL/stm32f4xx_ll_rcc.o
RCC_PLL_GetFreqDomain_SAI                         build/stm32f4_HAL/stm32f4xx_ll_rcc.o
RCC_PLL_GetFreqDomain_SPDIFRX                     build/stm32f4_HAL/stm32f4xx_ll_rcc.o
RCC_PLL_GetFreqDomain_SYS                         build/stm32f4_HAL/stm32f4xx_ll_rcc.o
RTC_Alarm_IRQHandler                              build/startup_stm32f446xx.o
RTC_WKUP_IRQHandler                               build/startup_stm32f446xx.o
Reset_Handler                                     build/startup_stm32f446xx.o
SAI1_IRQHandler                                   build/startup_stm32f446xx.o
SAI2_IRQHandler                                   build/startup_stm32f446xx.o
SDIO_IRQHandler                                   build/startup_stm32f446xx.o
SPDIF_RX_IRQHandler                               build/startup_stm32f446xx.o
SPI1_IRQHandler                                   build/startup_stm32f446xx.o
SPI2_IRQHandler                                   build/startup_stm32f446xx.o
SPI3_IRQHandler                                   build/startup_stm32f446xx.o
SPI4_IRQHandler                                   build/startup_stm32f446xx.o
SVC_Handler                                       build/FreeRTOS/port.o
                                                  build/startup_stm32f446xx.o
SysTick_Handler                                   build/FreeRTOS/cmsis_os2.o
                                                  build/startup_stm32f446xx.o
SystemCoreClock                                   build/system_stm32f4xx.o
                                                  build/FreeRTOS/port.o
                                                  build/FreeRTOS/os_systick.o
                                                  build/FreeRTOS/cmsis_os2.o
                                                  build/stm32f4_HAL/stm32f4xx_hal_spi.o
                                                  build/stm32f4_HAL/stm32f4xx_hal_rcc_ex.o
                                                  build/stm32f4_HAL/stm32f4xx_hal_rcc.o
                                                  build/stm32f4_HAL/stm32f4xx_hal_i2c.o
                                                  build/stm32f4_HAL/stm32f4xx_hal_adc_ex.o
                                                  build/stm32f4_HAL/stm32f4xx_hal_adc.o
                                                  build/stm32f4_HAL/stm32f4xx_hal_dma.o
                                                  build/stm32f4_HAL/stm32f4xx_hal.o
                                                  build/uart.o
SystemCoreClockUpdate                             build/system_stm32f4xx.o
SystemInit                                        build/system_stm32f4xx.o
                                                  build/startup_stm32f446xx.o
TAMP_STAMP_IRQHandler                             build/startup_stm32f446xx.o
TIM1_BRK_TIM9_IRQHandler                          build/startup_stm32f446xx.o
TIM1_CC_IRQHandler                                build/startup_stm32f446xx.o
TIM1_TRG_COM_TIM11_IRQHandler                     build/startup_stm32f446xx.o
TIM1_UP_TIM10_IRQHandler                          build/startup_stm32f446xx.o
TIM2_IRQHandler                                   build/startup_stm32f446xx.o
TIM3_IRQHandler                                   build/startup_stm32f446xx.o
TIM4_IRQHandler                                   build/startup_stm32f446xx.o
TIM5_IRQHandler                                   build/startup_stm32f446xx.o
TIM6_DAC_IRQHandler                               build/startup_stm32f446xx.o
TIM7_IRQHandler                                   build/startup_stm32f446xx.o
TIM8_BRK_TIM12_IRQHandler                         build/startup_stm32f446xx.o
TIM8_CC_IRQHandler                                build/startup_stm32f446xx.o
TIM8_TRG_COM_TIM14_IRQHandler                     build/startup_stm32f446xx.o
TIM8_UP_TIM13_IRQHandler                          build/startup_stm32f446xx.o
TIMEx_DMACommutationCplt                          build/stm32f4_HAL/stm32f4xx_hal_tim_ex.o
                                                  build/stm32f4_HAL/stm32f4xx_hal_tim.o
TIMEx_DMACommutationHalfCplt                      build/stm32f4_HAL/stm32f4xx_hal_tim_ex.o
                                                  build/stm32f4_HAL/stm32f4xx_hal_tim.o
TIM_Base_SetConfig                                build/stm32f4_HAL/stm32f4xx_hal_tim.o
                                                  build/stm32f4_HAL/stm32f4xx_hal_tim_ex.o
TIM_CCxChannelCmd                                 build/stm32f4_HAL/stm32f4xx_hal_tim.o
                                                  build/stm32f4_HAL/stm32f4xx_hal_tim_ex.o
TIM_DMACaptureCplt                                build/stm32f4_HAL/stm32f4xx_hal_tim.o
                                                  build/stm32f4_HAL/stm32f4xx_hal_tim_ex.o
TIM_DMACaptureHalfCplt                            build/stm32f4_HAL/stm32f4xx_hal_tim.o
                                                  build/stm32f4_HAL/stm32f4xx_hal_tim_ex.o
TIM_DMADelayPulseCplt                             build/stm32f4_HAL/stm32f4xx_hal_tim.o
                                                  build/stm32f4_HAL/stm32f4xx_hal_tim_ex.o
TIM_DMADelayPulseHalfCplt                         build/stm32f4_HAL/stm32f4xx_hal_tim.o
                                                  build/stm32f4_HAL/stm32f4xx_hal_tim_ex.o
TIM_DMAError                                      build/stm32f4_HAL/stm32f4xx_hal_tim.o
                                                  build/stm32f4_HAL/stm32f4xx_hal_tim_ex.o
TIM_ETR_SetConfig                                 build/stm32f4_HAL/stm32f4xx_hal_tim.o
TIM_OC2_SetConfig                                 build/stm32f4_HAL/stm32f4xx_hal_tim.o
                                                  build/stm32f4_HAL/stm32f4xx_hal_tim_ex.o
TIM_TI1_SetConfig                                 build/stm32f4_HAL/stm32f4xx_hal_tim.o
                                                  build/stm32f4_HAL/stm32f4xx_hal_tim_ex.o
UART4_IRQHandler                                  build/startup_stm32f446xx.o
UART5_IRQHandler                                  build/startup_stm32f446xx.o
USART1_IRQHandler                                 build/startup_stm32f446xx.o
USART2_IRQHandler                                 build/uart.o
USART3_IRQHandler                                 build/startup_stm32f446xx.o
USART6_IRQHandler                                 build/startup_stm32f446xx.o
UsageFault_Handler                                build/stm32f4xx_it.o
WWDG_IRQHandler                                   build/startup_stm32f446xx.o
_Balloc                                           c:/users/luke/desktop/mcha toolchain windows/toolchain/gcc-arm-none-eabi/bin/../lib/gcc/arm-none-eabi/11.2.1/thumb/v7e-m+fp/hard\libc_nano.a(lib_a-mprec.o)
                                                  c:/users/luke/desktop/mcha toolchain windows/toolchain/gcc-arm-none-eabi/bin/../lib/gcc/arm-none-eabi/11.2.1/thumb/v7e-m+fp/hard\libc_nano.a(lib_a-gdtoa-gethex.o)
                                                  c:/users/luke/desktop/mcha toolchain windows/toolchain/gcc-arm-none-eabi/bin/../lib/gcc/arm-none-eabi/11.2.1/thumb/v7e-m+fp/hard\libc_nano.a(lib_a-dtoa.o)
                                                  c:/users/luke/desktop/mcha toolchain windows/toolchain/gcc-arm-none-eabi/bin/../lib/gcc/arm-none-eabi/11.2.1/thumb/v7e-m+fp/hard\libc_nano.a(lib_a-strtod.o)
_Bfree                                            c:/users/luke/desktop/mcha toolchain windows/toolchain/gcc-arm-none-eabi/bin/../lib/gcc/arm-none-eabi/11.2.1/thumb/v7e-m+fp/hard\libc_nano.a(lib_a-mprec.o)
                                                  c:/users/luke/desktop/mcha toolchain windows/toolchain/gcc-arm-none-eabi/bin/../lib/gcc/arm-none-eabi/11.2.1/thumb/v7e-m+fp/hard\libc_nano.a(lib_a-gdtoa-gethex.o)
                                                  c:/users/luke/desktop/mcha toolchain windows/toolchain/gcc-arm-none-eabi/bin/../lib/gcc/arm-none-eabi/11.2.1/thumb/v7e-m+fp/hard\libc_nano.a(lib_a-dtoa.o)
                                                  c:/users/luke/desktop/mcha toolchain windows/toolchain/gcc-arm-none-eabi/bin/../lib/gcc/arm-none-eabi/11.2.1/thumb/v7e-m+fp/hard\libc_nano.a(lib_a-strtod.o)
_C_numeric_locale                                 c:/users/luke/desktop/mcha toolchain windows/toolchain/gcc-arm-none-eabi/bin/../lib/gcc/arm-none-eabi/11.2.1/thumb/v7e-m+fp/hard\libc_nano.a(lib_a-lnumeric.o)
                                                  c:/users/luke/desktop/mcha toolchain windows/toolchain/gcc-arm-none-eabi/bin/../lib/gcc/arm-none-eabi/11.2.1/thumb/v7e-m+fp/hard\libc_nano.a(lib_a-gdtoa-gethex.o)
                                                  c:/users/luke/desktop/mcha toolchain windows/toolchain/gcc-arm-none-eabi/bin/../lib/gcc/arm-none-eabi/11.2.1/thumb/v7e-m+fp/hard\libc_nano.a(lib_a-strtod.o)
_ITM_deregisterTMCloneTable                       c:/users/luke/desktop/mcha toolchain windows/toolchain/gcc-arm-none-eabi/bin/../lib/gcc/arm-none-eabi/11.2.1/thumb/v7e-m+fp/hard/crtbegin.o
_ITM_registerTMCloneTable                         c:/users/luke/desktop/mcha toolchain windows/toolchain/gcc-arm-none-eabi/bin/../lib/gcc/arm-none-eabi/11.2.1/thumb/v7e-m+fp/hard/crtbegin.o
_Min_Heap_Size                                    build/FreeRTOS/heap_useNewlib.o
_PathLocale                                       c:/users/luke/desktop/mcha toolchain windows/toolchain/gcc-arm-none-eabi/bin/../lib/gcc/arm-none-eabi/11.2.1/thumb/v7e-m+fp/hard\libc_nano.a(lib_a-locale.o)
__HeapBase                                        build/FreeRTOS/heap_useNewlib.o
__HeapLimit                                       build/FreeRTOS/heap_useNewlib.o
__TMC_END__                                       c:/users/luke/desktop/mcha toolchain windows/toolchain/gcc-arm-none-eabi/bin/../lib/gcc/arm-none-eabi/11.2.1/thumb/v7e-m+fp/hard/crtend.o
                                                  c:/users/luke/desktop/mcha toolchain windows/toolchain/gcc-arm-none-eabi/bin/../lib/gcc/arm-none-eabi/11.2.1/thumb/v7e-m+fp/hard/crtbegin.o
__adddf3                                          c:/users/luke/desktop/mcha toolchain windows/toolchain/gcc-arm-none-eabi/bin/../lib/gcc/arm-none-eabi/11.2.1/thumb/v7e-m+fp/hard\libgcc.a(_arm_addsubdf3.o)
__aeabi_cdcmpeq                                   c:/users/luke/desktop/mcha toolchain windows/toolchain/gcc-arm-none-eabi/bin/../lib/gcc/arm-none-eabi/11.2.1/thumb/v7e-m+fp/hard\libgcc.a(_arm_cmpdf2.o)
__aeabi_cdcmple                                   c:/users/luke/desktop/mcha toolchain windows/toolchain/gcc-arm-none-eabi/bin/../lib/gcc/arm-none-eabi/11.2.1/thumb/v7e-m+fp/hard\libgcc.a(_arm_cmpdf2.o)
__aeabi_cdrcmple                                  c:/users/luke/desktop/mcha toolchain windows/toolchain/gcc-arm-none-eabi/bin/../lib/gcc/arm-none-eabi/11.2.1/thumb/v7e-m+fp/hard\libgcc.a(_arm_cmpdf2.o)
__aeabi_d2f                                       c:/users/luke/desktop/mcha toolchain windows/toolchain/gcc-arm-none-eabi/bin/../lib/gcc/arm-none-eabi/11.2.1/thumb/v7e-m+fp/hard\libgcc.a(_arm_truncdfsf2.o)
                                                  c:/users/luke/desktop/mcha toolchain windows/toolchain/gcc-arm-none-eabi/bin/../lib/gcc/arm-none-eabi/11.2.1/thumb/v7e-m+fp/hard\libc_nano.a(lib_a-strtod.o)
                                                  c:/users/luke/desktop/mcha toolchain windows/toolchain/gcc-arm-none-eabi/bin/../lib/gcc/arm-none-eabi/11.2.1/thumb/v7e-m+fp/hard\libc_nano.a(lib_a-nano-vfscanf_float.o)
__aeabi_d2iz                                      c:/users/luke/desktop/mcha toolchain windows/toolchain/gcc-arm-none-eabi/bin/../lib/gcc/arm-none-eabi/11.2.1/thumb/v7e-m+fp/hard\libgcc.a(_arm_fixdfsi.o)
                                                  c:/users/luke/desktop/mcha toolchain windows/toolchain/gcc-arm-none-eabi/bin/../lib/gcc/arm-none-eabi/11.2.1/thumb/v7e-m+fp/hard\libc_nano.a(lib_a-dtoa.o)
__aeabi_d2lz                                      c:/users/luke/desktop/mcha toolchain windows/toolchain/gcc-arm-none-eabi/bin/../lib/gcc/arm-none-eabi/11.2.1/thumb/v7e-m+fp/hard\libgcc.a(_fixdfdi.o)
                                                  c:/users/luke/desktop/mcha toolchain windows/toolchain/gcc-arm-none-eabi/bin/../lib/gcc/arm-none-eabi/11.2.1/thumb/v7e-m+fp/hard\libc_nano.a(lib_a-strtod.o)
__aeabi_d2uiz                                     c:/users/luke/desktop/mcha toolchain windows/toolchain/gcc-arm-none-eabi/bin/../lib/gcc/arm-none-eabi/11.2.1/thumb/v7e-m+fp/hard\libgcc.a(_arm_fixunsdfsi.o)
                                                  c:/users/luke/desktop/mcha toolchain windows/toolchain/gcc-arm-none-eabi/bin/../lib/gcc/arm-none-eabi/11.2.1/thumb/v7e-m+fp/hard\libgcc.a(_fixunsdfdi.o)
                                                  c:/users/luke/desktop/mcha toolchain windows/toolchain/gcc-arm-none-eabi/bin/../lib/gcc/arm-none-eabi/11.2.1/thumb/v7e-m+fp/hard\libc_nano.a(lib_a-strtod.o)
__aeabi_d2ulz                                     c:/users/luke/desktop/mcha toolchain windows/toolchain/gcc-arm-none-eabi/bin/../lib/gcc/arm-none-eabi/11.2.1/thumb/v7e-m+fp/hard\libgcc.a(_fixunsdfdi.o)
                                                  c:/users/luke/desktop/mcha toolchain windows/toolchain/gcc-arm-none-eabi/bin/../lib/gcc/arm-none-eabi/11.2.1/thumb/v7e-m+fp/hard\libgcc.a(_fixdfdi.o)
__aeabi_dadd                                      c:/users/luke/desktop/mcha toolchain windows/toolchain/gcc-arm-none-eabi/bin/../lib/gcc/arm-none-eabi/11.2.1/thumb/v7e-m+fp/hard\libgcc.a(_arm_addsubdf3.o)
                                                  c:/users/luke/desktop/mcha toolchain windows/toolchain/gcc-arm-none-eabi/bin/../lib/gcc/arm-none-eabi/11.2.1/thumb/v7e-m+fp/hard\libc_nano.a(lib_a-dtoa.o)
                                                  c:/users/luke/desktop/mcha toolchain windows/toolchain/gcc-arm-none-eabi/bin/../lib/gcc/arm-none-eabi/11.2.1/thumb/v7e-m+fp/hard\libc_nano.a(lib_a-strtod.o)
__aeabi_dcmpeq                                    c:/users/luke/desktop/mcha toolchain windows/toolchain/gcc-arm-none-eabi/bin/../lib/gcc/arm-none-eabi/11.2.1/thumb/v7e-m+fp/hard\libgcc.a(_arm_cmpdf2.o)
                                                  c:/users/luke/desktop/mcha toolchain windows/toolchain/gcc-arm-none-eabi/bin/../lib/gcc/arm-none-eabi/11.2.1/thumb/v7e-m+fp/hard\libc_nano.a(lib_a-dtoa.o)
                                                  c:/users/luke/desktop/mcha toolchain windows/toolchain/gcc-arm-none-eabi/bin/../lib/gcc/arm-none-eabi/11.2.1/thumb/v7e-m+fp/hard\libc_nano.a(lib_a-strtod.o)
                                                  c:/users/luke/desktop/mcha toolchain windows/toolchain/gcc-arm-none-eabi/bin/../lib/gcc/arm-none-eabi/11.2.1/thumb/v7e-m+fp/hard\libc_nano.a(lib_a-nano-vfprintf_float.o)
__aeabi_dcmpge                                    c:/users/luke/desktop/mcha toolchain windows/toolchain/gcc-arm-none-eabi/bin/../lib/gcc/arm-none-eabi/11.2.1/thumb/v7e-m+fp/hard\libgcc.a(_arm_cmpdf2.o)
                                                  c:/users/luke/desktop/mcha toolchain windows/toolchain/gcc-arm-none-eabi/bin/../lib/gcc/arm-none-eabi/11.2.1/thumb/v7e-m+fp/hard\libc_nano.a(lib_a-dtoa.o)
__aeabi_dcmpgt                                    c:/users/luke/desktop/mcha toolchain windows/toolchain/gcc-arm-none-eabi/bin/../lib/gcc/arm-none-eabi/11.2.1/thumb/v7e-m+fp/hard\libgcc.a(_arm_cmpdf2.o)
                                                  c:/users/luke/desktop/mcha toolchain windows/toolchain/gcc-arm-none-eabi/bin/../lib/gcc/arm-none-eabi/11.2.1/thumb/v7e-m+fp/hard\libc_nano.a(lib_a-dtoa.o)
                                                  c:/users/luke/desktop/mcha toolchain windows/toolchain/gcc-arm-none-eabi/bin/../lib/gcc/arm-none-eabi/11.2.1/thumb/v7e-m+fp/hard\libc_nano.a(lib_a-strtod.o)
__aeabi_dcmple                                    c:/users/luke/desktop/mcha toolchain windows/toolchain/gcc-arm-none-eabi/bin/../lib/gcc/arm-none-eabi/11.2.1/thumb/v7e-m+fp/hard\libgcc.a(_arm_cmpdf2.o)
                                                  c:/users/luke/desktop/mcha toolchain windows/toolchain/gcc-arm-none-eabi/bin/../lib/gcc/arm-none-eabi/11.2.1/thumb/v7e-m+fp/hard\libc_nano.a(lib_a-strtod.o)
                                                  c:/users/luke/desktop/mcha toolchain windows/toolchain/gcc-arm-none-eabi/bin/../lib/gcc/arm-none-eabi/11.2.1/thumb/v7e-m+fp/hard\libc_nano.a(lib_a-nano-vfprintf_float.o)
__aeabi_dcmplt                                    c:/users/luke/desktop/mcha toolchain windows/toolchain/gcc-arm-none-eabi/bin/../lib/gcc/arm-none-eabi/11.2.1/thumb/v7e-m+fp/hard\libgcc.a(_arm_cmpdf2.o)
                                                  c:/users/luke/desktop/mcha toolchain windows/toolchain/gcc-arm-none-eabi/bin/../lib/gcc/arm-none-eabi/11.2.1/thumb/v7e-m+fp/hard\libgcc.a(_fixdfdi.o)
                                                  c:/users/luke/desktop/mcha toolchain windows/toolchain/gcc-arm-none-eabi/bin/../lib/gcc/arm-none-eabi/11.2.1/thumb/v7e-m+fp/hard\libc_nano.a(lib_a-dtoa.o)
                                                  c:/users/luke/desktop/mcha toolchain windows/toolchain/gcc-arm-none-eabi/bin/../lib/gcc/arm-none-eabi/11.2.1/thumb/v7e-m+fp/hard\libc_nano.a(lib_a-strtod.o)
                                                  c:/users/luke/desktop/mcha toolchain windows/toolchain/gcc-arm-none-eabi/bin/../lib/gcc/arm-none-eabi/11.2.1/thumb/v7e-m+fp/hard\libc_nano.a(lib_a-nano-vfprintf_float.o)
__aeabi_dcmpun                                    c:/users/luke/desktop/mcha toolchain windows/toolchain/gcc-arm-none-eabi/bin/../lib/gcc/arm-none-eabi/11.2.1/thumb/v7e-m+fp/hard\libgcc.a(_arm_unorddf2.o)
                                                  c:/users/luke/desktop/mcha toolchain windows/toolchain/gcc-arm-none-eabi/bin/../lib/gcc/arm-none-eabi/11.2.1/thumb/v7e-m+fp/hard\libc_nano.a(lib_a-strtod.o)
                                                  c:/users/luke/desktop/mcha toolchain windows/toolchain/gcc-arm-none-eabi/bin/../lib/gcc/arm-none-eabi/11.2.1/thumb/v7e-m+fp/hard\libc_nano.a(lib_a-nano-vfscanf_float.o)
                                                  c:/users/luke/desktop/mcha toolchain windows/toolchain/gcc-arm-none-eabi/bin/../lib/gcc/arm-none-eabi/11.2.1/thumb/v7e-m+fp/hard\libc_nano.a(lib_a-nano-vfprintf_float.o)
__aeabi_ddiv                                      c:/users/luke/desktop/mcha toolchain windows/toolchain/gcc-arm-none-eabi/bin/../lib/gcc/arm-none-eabi/11.2.1/thumb/v7e-m+fp/hard\libgcc.a(_arm_muldivdf3.o)
                                                  c:/users/luke/desktop/mcha toolchain windows/toolchain/gcc-arm-none-eabi/bin/../lib/gcc/arm-none-eabi/11.2.1/thumb/v7e-m+fp/hard\libc_nano.a(lib_a-mprec.o)
                                                  c:/users/luke/desktop/mcha toolchain windows/toolchain/gcc-arm-none-eabi/bin/../lib/gcc/arm-none-eabi/11.2.1/thumb/v7e-m+fp/hard\libc_nano.a(lib_a-dtoa.o)
                                                  c:/users/luke/desktop/mcha toolchain windows/toolchain/gcc-arm-none-eabi/bin/../lib/gcc/arm-none-eabi/11.2.1/thumb/v7e-m+fp/hard\libc_nano.a(lib_a-strtod.o)
__aeabi_dmul                                      c:/users/luke/desktop/mcha toolchain windows/toolchain/gcc-arm-none-eabi/bin/../lib/gcc/arm-none-eabi/11.2.1/thumb/v7e-m+fp/hard\libgcc.a(_arm_muldivdf3.o)
                                                  c:/users/luke/desktop/mcha toolchain windows/toolchain/gcc-arm-none-eabi/bin/../lib/gcc/arm-none-eabi/11.2.1/thumb/v7e-m+fp/hard\libgcc.a(_arm_muldf3.o)
                                                  c:/users/luke/desktop/mcha toolchain windows/toolchain/gcc-arm-none-eabi/bin/../lib/gcc/arm-none-eabi/11.2.1/thumb/v7e-m+fp/hard\libgcc.a(_fixunsdfdi.o)
                                                  c:/users/luke/desktop/mcha toolchain windows/toolchain/gcc-arm-none-eabi/bin/../lib/gcc/arm-none-eabi/11.2.1/thumb/v7e-m+fp/hard\libc_nano.a(lib_a-mprec.o)
                                                  c:/users/luke/desktop/mcha toolchain windows/toolchain/gcc-arm-none-eabi/bin/../lib/gcc/arm-none-eabi/11.2.1/thumb/v7e-m+fp/hard\libc_nano.a(lib_a-dtoa.o)
                                                  c:/users/luke/desktop/mcha toolchain windows/toolchain/gcc-arm-none-eabi/bin/../lib/gcc/arm-none-eabi/11.2.1/thumb/v7e-m+fp/hard\libc_nano.a(lib_a-strtod.o)
__aeabi_drsub                                     c:/users/luke/desktop/mcha toolchain windows/toolchain/gcc-arm-none-eabi/bin/../lib/gcc/arm-none-eabi/11.2.1/thumb/v7e-m+fp/hard\libgcc.a(_arm_addsubdf3.o)
__aeabi_dsub                                      c:/users/luke/desktop/mcha toolchain windows/toolchain/gcc-arm-none-eabi/bin/../lib/gcc/arm-none-eabi/11.2.1/thumb/v7e-m+fp/hard\libgcc.a(_arm_addsubdf3.o)
                                                  c:/users/luke/desktop/mcha toolchain windows/toolchain/gcc-arm-none-eabi/bin/../lib/gcc/arm-none-eabi/11.2.1/thumb/v7e-m+fp/hard\libgcc.a(_fixunsdfdi.o)
                                                  c:/users/luke/desktop/mcha toolchain windows/toolchain/gcc-arm-none-eabi/bin/../lib/gcc/arm-none-eabi/11.2.1/thumb/v7e-m+fp/hard\libc_nano.a(lib_a-dtoa.o)
                                                  c:/users/luke/desktop/mcha toolchain windows/toolchain/gcc-arm-none-eabi/bin/../lib/gcc/arm-none-eabi/11.2.1/thumb/v7e-m+fp/hard\libc_nano.a(lib_a-strtod.o)
__aeabi_f2d                                       c:/users/luke/desktop/mcha toolchain windows/toolchain/gcc-arm-none-eabi/bin/../lib/gcc/arm-none-eabi/11.2.1/thumb/v7e-m+fp/hard\libgcc.a(_arm_addsubdf3.o)
__aeabi_i2d                                       c:/users/luke/desktop/mcha toolchain windows/toolchain/gcc-arm-none-eabi/bin/../lib/gcc/arm-none-eabi/11.2.1/thumb/v7e-m+fp/hard\libgcc.a(_arm_addsubdf3.o)
                                                  c:/users/luke/desktop/mcha toolchain windows/toolchain/gcc-arm-none-eabi/bin/../lib/gcc/arm-none-eabi/11.2.1/thumb/v7e-m+fp/hard\libc_nano.a(lib_a-dtoa.o)
__aeabi_idiv0                                     c:/users/luke/desktop/mcha toolchain windows/toolchain/gcc-arm-none-eabi/bin/../lib/gcc/arm-none-eabi/11.2.1/thumb/v7e-m+fp/hard\libgcc.a(_dvmd_tls.o)
__aeabi_l2d                                       c:/users/luke/desktop/mcha toolchain windows/toolchain/gcc-arm-none-eabi/bin/../lib/gcc/arm-none-eabi/11.2.1/thumb/v7e-m+fp/hard\libgcc.a(_arm_addsubdf3.o)
                                                  c:/users/luke/desktop/mcha toolchain windows/toolchain/gcc-arm-none-eabi/bin/../lib/gcc/arm-none-eabi/11.2.1/thumb/v7e-m+fp/hard\libc_nano.a(lib_a-strtod.o)
__aeabi_ldiv0                                     c:/users/luke/desktop/mcha toolchain windows/toolchain/gcc-arm-none-eabi/bin/../lib/gcc/arm-none-eabi/11.2.1/thumb/v7e-m+fp/hard\libgcc.a(_dvmd_tls.o)
                                                  c:/users/luke/desktop/mcha toolchain windows/toolchain/gcc-arm-none-eabi/bin/../lib/gcc/arm-none-eabi/11.2.1/thumb/v7e-m+fp/hard\libgcc.a(_aeabi_uldivmod.o)
                                                  c:/users/luke/desktop/mcha toolchain windows/toolchain/gcc-arm-none-eabi/bin/../lib/gcc/arm-none-eabi/11.2.1/thumb/v7e-m+fp/hard\libgcc.a(_aeabi_ldivmod.o)
__aeabi_ldivmod                                   c:/users/luke/desktop/mcha toolchain windows/toolchain/gcc-arm-none-eabi/bin/../lib/gcc/arm-none-eabi/11.2.1/thumb/v7e-m+fp/hard\libgcc.a(_aeabi_ldivmod.o)
                                                  build/stm32f4_HAL/stm32f4xx_hal_rcc_ex.o
                                                  build/stm32f4_HAL/stm32f4xx_hal_rcc.o
                                                  build/stm32f4_HAL/stm32f4xx_ll_usart.o
                                                  build/uart.o
__aeabi_ui2d                                      c:/users/luke/desktop/mcha toolchain windows/toolchain/gcc-arm-none-eabi/bin/../lib/gcc/arm-none-eabi/11.2.1/thumb/v7e-m+fp/hard\libgcc.a(_arm_addsubdf3.o)
                                                  c:/users/luke/desktop/mcha toolchain windows/toolchain/gcc-arm-none-eabi/bin/../lib/gcc/arm-none-eabi/11.2.1/thumb/v7e-m+fp/hard\libgcc.a(_fixunsdfdi.o)
                                                  c:/users/luke/desktop/mcha toolchain windows/toolchain/gcc-arm-none-eabi/bin/../lib/gcc/arm-none-eabi/11.2.1/thumb/v7e-m+fp/hard\libc_nano.a(lib_a-dtoa.o)
                                                  c:/users/luke/desktop/mcha toolchain windows/toolchain/gcc-arm-none-eabi/bin/../lib/gcc/arm-none-eabi/11.2.1/thumb/v7e-m+fp/hard\libc_nano.a(lib_a-strtod.o)
__aeabi_ul2d                                      c:/users/luke/desktop/mcha toolchain windows/toolchain/gcc-arm-none-eabi/bin/../lib/gcc/arm-none-eabi/11.2.1/thumb/v7e-m+fp/hard\libgcc.a(_arm_addsubdf3.o)
__aeabi_uldivmod                                  c:/users/luke/desktop/mcha toolchain windows/toolchain/gcc-arm-none-eabi/bin/../lib/gcc/arm-none-eabi/11.2.1/thumb/v7e-m+fp/hard\libgcc.a(_aeabi_uldivmod.o)
                                                  build/stm32f4_HAL/stm32f4xx_hal_rcc_ex.o
                                                  build/stm32f4_HAL/stm32f4xx_hal_rcc.o
                                                  build/stm32f4_HAL/stm32f4xx_ll_usart.o
                                                  build/uart.o
__any_on                                          c:/users/luke/desktop/mcha toolchain windows/toolchain/gcc-arm-none-eabi/bin/../lib/gcc/arm-none-eabi/11.2.1/thumb/v7e-m+fp/hard\libc_nano.a(lib_a-mprec.o)
                                                  c:/users/luke/desktop/mcha toolchain windows/toolchain/gcc-arm-none-eabi/bin/../lib/gcc/arm-none-eabi/11.2.1/thumb/v7e-m+fp/hard\libc_nano.a(lib_a-gdtoa-gethex.o)
__ascii_mbtowc                                    c:/users/luke/desktop/mcha toolchain windows/toolchain/gcc-arm-none-eabi/bin/../lib/gcc/arm-none-eabi/11.2.1/thumb/v7e-m+fp/hard\libc_nano.a(lib_a-mbtowc_r.o)
                                                  c:/users/luke/desktop/mcha toolchain windows/toolchain/gcc-arm-none-eabi/bin/../lib/gcc/arm-none-eabi/11.2.1/thumb/v7e-m+fp/hard\libc_nano.a(lib_a-locale.o)
__ascii_wctomb                                    c:/users/luke/desktop/mcha toolchain windows/toolchain/gcc-arm-none-eabi/bin/../lib/gcc/arm-none-eabi/11.2.1/thumb/v7e-m+fp/hard\libc_nano.a(lib_a-wctomb_r.o)
                                                  c:/users/luke/desktop/mcha toolchain windows/toolchain/gcc-arm-none-eabi/bin/../lib/gcc/arm-none-eabi/11.2.1/thumb/v7e-m+fp/hard\libc_nano.a(lib_a-locale.o)
__assert                                          c:/users/luke/desktop/mcha toolchain windows/toolchain/gcc-arm-none-eabi/bin/../lib/gcc/arm-none-eabi/11.2.1/thumb/v7e-m+fp/hard\libc_nano.a(lib_a-assert.o)
__assert_func                                     c:/users/luke/desktop/mcha toolchain windows/toolchain/gcc-arm-none-eabi/bin/../lib/gcc/arm-none-eabi/11.2.1/thumb/v7e-m+fp/hard\libc_nano.a(lib_a-assert.o)
                                                  c:/users/luke/desktop/mcha toolchain windows/toolchain/gcc-arm-none-eabi/bin/../lib/gcc/arm-none-eabi/11.2.1/thumb/v7e-m+fp/hard\libc_nano.a(lib_a-mprec.o)
                                                  c:/users/luke/desktop/mcha toolchain windows/toolchain/gcc-arm-none-eabi/bin/../lib/gcc/arm-none-eabi/11.2.1/thumb/v7e-m+fp/hard\libc_nano.a(lib_a-gdtoa-gethex.o)
                                                  c:/users/luke/desktop/mcha toolchain windows/toolchain/gcc-arm-none-eabi/bin/../lib/gcc/arm-none-eabi/11.2.1/thumb/v7e-m+fp/hard\libc_nano.a(lib_a-dtoa.o)
__b2d                                             c:/users/luke/desktop/mcha toolchain windows/toolchain/gcc-arm-none-eabi/bin/../lib/gcc/arm-none-eabi/11.2.1/thumb/v7e-m+fp/hard\libc_nano.a(lib_a-mprec.o)
__bss_end__                                       c:/users/luke/desktop/mcha toolchain windows/toolchain/gcc-arm-none-eabi/bin/../lib/gcc/arm-none-eabi/11.2.1/thumb/v7e-m+fp/hard/crt0.o
__bss_start__                                     c:/users/luke/desktop/mcha toolchain windows/toolchain/gcc-arm-none-eabi/bin/../lib/gcc/arm-none-eabi/11.2.1/thumb/v7e-m+fp/hard/crt0.o
__call_exitprocs                                  c:/users/luke/desktop/mcha toolchain windows/toolchain/gcc-arm-none-eabi/bin/../lib/gcc/arm-none-eabi/11.2.1/thumb/v7e-m+fp/hard\libc_nano.a(lib_a-exit.o)
__cmpdf2                                          c:/users/luke/desktop/mcha toolchain windows/toolchain/gcc-arm-none-eabi/bin/../lib/gcc/arm-none-eabi/11.2.1/thumb/v7e-m+fp/hard\libgcc.a(_arm_cmpdf2.o)
__copybits                                        c:/users/luke/desktop/mcha toolchain windows/toolchain/gcc-arm-none-eabi/bin/../lib/gcc/arm-none-eabi/11.2.1/thumb/v7e-m+fp/hard\libc_nano.a(lib_a-mprec.o)
                                                  c:/users/luke/desktop/mcha toolchain windows/toolchain/gcc-arm-none-eabi/bin/../lib/gcc/arm-none-eabi/11.2.1/thumb/v7e-m+fp/hard\libc_nano.a(lib_a-strtod.o)
__cvt                                             c:/users/luke/desktop/mcha toolchain windows/toolchain/gcc-arm-none-eabi/bin/../lib/gcc/arm-none-eabi/11.2.1/thumb/v7e-m+fp/hard\libc_nano.a(lib_a-nano-vfprintf_float.o)
__d2b                                             c:/users/luke/desktop/mcha toolchain windows/toolchain/gcc-arm-none-eabi/bin/../lib/gcc/arm-none-eabi/11.2.1/thumb/v7e-m+fp/hard\libc_nano.a(lib_a-mprec.o)
                                                  c:/users/luke/desktop/mcha toolchain windows/toolchain/gcc-arm-none-eabi/bin/../lib/gcc/arm-none-eabi/11.2.1/thumb/v7e-m+fp/hard\libc_nano.a(lib_a-dtoa.o)
                                                  c:/users/luke/desktop/mcha toolchain windows/toolchain/gcc-arm-none-eabi/bin/../lib/gcc/arm-none-eabi/11.2.1/thumb/v7e-m+fp/hard\libc_nano.a(lib_a-strtod.o)
__deregister_frame_info                           c:/users/luke/desktop/mcha toolchain windows/toolchain/gcc-arm-none-eabi/bin/../lib/gcc/arm-none-eabi/11.2.1/thumb/v7e-m+fp/hard/crtbegin.o
__divdf3                                          c:/users/luke/desktop/mcha toolchain windows/toolchain/gcc-arm-none-eabi/bin/../lib/gcc/arm-none-eabi/11.2.1/thumb/v7e-m+fp/hard\libgcc.a(_arm_muldivdf3.o)
__dso_handle                                      c:/users/luke/desktop/mcha toolchain windows/toolchain/gcc-arm-none-eabi/bin/../lib/gcc/arm-none-eabi/11.2.1/thumb/v7e-m+fp/hard/crtbegin.o
__env_lock                                        build/FreeRTOS/heap_useNewlib.o
__env_unlock                                      build/FreeRTOS/heap_useNewlib.o
__eqdf2                                           c:/users/luke/desktop/mcha toolchain windows/toolchain/gcc-arm-none-eabi/bin/../lib/gcc/arm-none-eabi/11.2.1/thumb/v7e-m+fp/hard\libgcc.a(_arm_cmpdf2.o)
__errno                                           c:/users/luke/desktop/mcha toolchain windows/toolchain/gcc-arm-none-eabi/bin/../lib/gcc/arm-none-eabi/11.2.1/thumb/v7e-m+fp/hard\libc_nano.a(lib_a-errno.o)
                                                  c:/users/luke/desktop/mcha toolchain windows/toolchain/gcc-arm-none-eabi/bin/../lib/gcc/arm-none-eabi/11.2.1/thumb/v7e-m+fp/hard\libc_nano.a(lib_a-strtol.o)
__exponent                                        c:/users/luke/desktop/mcha toolchain windows/toolchain/gcc-arm-none-eabi/bin/../lib/gcc/arm-none-eabi/11.2.1/thumb/v7e-m+fp/hard\libc_nano.a(lib_a-nano-vfprintf_float.o)
__extendsfdf2                                     c:/users/luke/desktop/mcha toolchain windows/toolchain/gcc-arm-none-eabi/bin/../lib/gcc/arm-none-eabi/11.2.1/thumb/v7e-m+fp/hard\libgcc.a(_arm_addsubdf3.o)
__fixdfdi                                         c:/users/luke/desktop/mcha toolchain windows/toolchain/gcc-arm-none-eabi/bin/../lib/gcc/arm-none-eabi/11.2.1/thumb/v7e-m+fp/hard\libgcc.a(_fixdfdi.o)
__fixdfsi                                         c:/users/luke/desktop/mcha toolchain windows/toolchain/gcc-arm-none-eabi/bin/../lib/gcc/arm-none-eabi/11.2.1/thumb/v7e-m+fp/hard\libgcc.a(_arm_fixdfsi.o)
__fixunsdfdi                                      c:/users/luke/desktop/mcha toolchain windows/toolchain/gcc-arm-none-eabi/bin/../lib/gcc/arm-none-eabi/11.2.1/thumb/v7e-m+fp/hard\libgcc.a(_fixunsdfdi.o)
__fixunsdfsi                                      c:/users/luke/desktop/mcha toolchain windows/toolchain/gcc-arm-none-eabi/bin/../lib/gcc/arm-none-eabi/11.2.1/thumb/v7e-m+fp/hard\libgcc.a(_arm_fixunsdfsi.o)
__floatdidf                                       c:/users/luke/desktop/mcha toolchain windows/toolchain/gcc-arm-none-eabi/bin/../lib/gcc/arm-none-eabi/11.2.1/thumb/v7e-m+fp/hard\libgcc.a(_arm_addsubdf3.o)
__floatsidf                                       c:/users/luke/desktop/mcha toolchain windows/toolchain/gcc-arm-none-eabi/bin/../lib/gcc/arm-none-eabi/11.2.1/thumb/v7e-m+fp/hard\libgcc.a(_arm_addsubdf3.o)
__floatundidf                                     c:/users/luke/desktop/mcha toolchain windows/toolchain/gcc-arm-none-eabi/bin/../lib/gcc/arm-none-eabi/11.2.1/thumb/v7e-m+fp/hard\libgcc.a(_arm_addsubdf3.o)
__floatunsidf                                     c:/users/luke/desktop/mcha toolchain windows/toolchain/gcc-arm-none-eabi/bin/../lib/gcc/arm-none-eabi/11.2.1/thumb/v7e-m+fp/hard\libgcc.a(_arm_addsubdf3.o)
__fp_lock_all                                     c:/users/luke/desktop/mcha toolchain windows/toolchain/gcc-arm-none-eabi/bin/../lib/gcc/arm-none-eabi/11.2.1/thumb/v7e-m+fp/hard\libc_nano.a(lib_a-findfp.o)
__fp_unlock_all                                   c:/users/luke/desktop/mcha toolchain windows/toolchain/gcc-arm-none-eabi/bin/../lib/gcc/arm-none-eabi/11.2.1/thumb/v7e-m+fp/hard\libc_nano.a(lib_a-findfp.o)
__gedf2                                           c:/users/luke/desktop/mcha toolchain windows/toolchain/gcc-arm-none-eabi/bin/../lib/gcc/arm-none-eabi/11.2.1/thumb/v7e-m+fp/hard\libgcc.a(_arm_cmpdf2.o)
__gethex                                          c:/users/luke/desktop/mcha toolchain windows/toolchain/gcc-arm-none-eabi/bin/../lib/gcc/arm-none-eabi/11.2.1/thumb/v7e-m+fp/hard\libc_nano.a(lib_a-gdtoa-gethex.o)
                                                  c:/users/luke/desktop/mcha toolchain windows/toolchain/gcc-arm-none-eabi/bin/../lib/gcc/arm-none-eabi/11.2.1/thumb/v7e-m+fp/hard\libc_nano.a(lib_a-strtod.o)
__global_locale                                   c:/users/luke/desktop/mcha toolchain windows/toolchain/gcc-arm-none-eabi/bin/../lib/gcc/arm-none-eabi/11.2.1/thumb/v7e-m+fp/hard\libc_nano.a(lib_a-locale.o)
                                                  c:/users/luke/desktop/mcha toolchain windows/toolchain/gcc-arm-none-eabi/bin/../lib/gcc/arm-none-eabi/11.2.1/thumb/v7e-m+fp/hard\libc_nano.a(lib_a-wctomb_r.o)
                                                  c:/users/luke/desktop/mcha toolchain windows/toolchain/gcc-arm-none-eabi/bin/../lib/gcc/arm-none-eabi/11.2.1/thumb/v7e-m+fp/hard\libc_nano.a(lib_a-mbtowc_r.o)
                                                  c:/users/luke/desktop/mcha toolchain windows/toolchain/gcc-arm-none-eabi/bin/../lib/gcc/arm-none-eabi/11.2.1/thumb/v7e-m+fp/hard\libc_nano.a(lib_a-localeconv.o)
                                                  c:/users/luke/desktop/mcha toolchain windows/toolchain/gcc-arm-none-eabi/bin/../lib/gcc/arm-none-eabi/11.2.1/thumb/v7e-m+fp/hard\libc_nano.a(lib_a-strtod.o)
__gtdf2                                           c:/users/luke/desktop/mcha toolchain windows/toolchain/gcc-arm-none-eabi/bin/../lib/gcc/arm-none-eabi/11.2.1/thumb/v7e-m+fp/hard\libgcc.a(_arm_cmpdf2.o)
__hexdig_fun                                      c:/users/luke/desktop/mcha toolchain windows/toolchain/gcc-arm-none-eabi/bin/../lib/gcc/arm-none-eabi/11.2.1/thumb/v7e-m+fp/hard\libc_nano.a(lib_a-gdtoa-gethex.o)
                                                  c:/users/luke/desktop/mcha toolchain windows/toolchain/gcc-arm-none-eabi/bin/../lib/gcc/arm-none-eabi/11.2.1/thumb/v7e-m+fp/hard\libc_nano.a(lib_a-gdtoa-hexnan.o)
__hexnan                                          c:/users/luke/desktop/mcha toolchain windows/toolchain/gcc-arm-none-eabi/bin/../lib/gcc/arm-none-eabi/11.2.1/thumb/v7e-m+fp/hard\libc_nano.a(lib_a-gdtoa-hexnan.o)
                                                  c:/users/luke/desktop/mcha toolchain windows/toolchain/gcc-arm-none-eabi/bin/../lib/gcc/arm-none-eabi/11.2.1/thumb/v7e-m+fp/hard\libc_nano.a(lib_a-strtod.o)
__hi0bits                                         c:/users/luke/desktop/mcha toolchain windows/toolchain/gcc-arm-none-eabi/bin/../lib/gcc/arm-none-eabi/11.2.1/thumb/v7e-m+fp/hard\libc_nano.a(lib_a-mprec.o)
                                                  c:/users/luke/desktop/mcha toolchain windows/toolchain/gcc-arm-none-eabi/bin/../lib/gcc/arm-none-eabi/11.2.1/thumb/v7e-m+fp/hard\libc_nano.a(lib_a-gdtoa-gethex.o)
                                                  c:/users/luke/desktop/mcha toolchain windows/toolchain/gcc-arm-none-eabi/bin/../lib/gcc/arm-none-eabi/11.2.1/thumb/v7e-m+fp/hard\libc_nano.a(lib_a-dtoa.o)
__i2b                                             c:/users/luke/desktop/mcha toolchain windows/toolchain/gcc-arm-none-eabi/bin/../lib/gcc/arm-none-eabi/11.2.1/thumb/v7e-m+fp/hard\libc_nano.a(lib_a-mprec.o)
                                                  c:/users/luke/desktop/mcha toolchain windows/toolchain/gcc-arm-none-eabi/bin/../lib/gcc/arm-none-eabi/11.2.1/thumb/v7e-m+fp/hard\libc_nano.a(lib_a-dtoa.o)
                                                  c:/users/luke/desktop/mcha toolchain windows/toolchain/gcc-arm-none-eabi/bin/../lib/gcc/arm-none-eabi/11.2.1/thumb/v7e-m+fp/hard\libc_nano.a(lib_a-strtod.o)
__init_array_end                                  c:/users/luke/desktop/mcha toolchain windows/toolchain/gcc-arm-none-eabi/bin/../lib/gcc/arm-none-eabi/11.2.1/thumb/v7e-m+fp/hard\libc_nano.a(lib_a-init.o)
__init_array_start                                c:/users/luke/desktop/mcha toolchain windows/toolchain/gcc-arm-none-eabi/bin/../lib/gcc/arm-none-eabi/11.2.1/thumb/v7e-m+fp/hard\libc_nano.a(lib_a-init.o)
__io_getchar                                      build/uart.o
__io_putchar                                      build/uart.o
__ledf2                                           c:/users/luke/desktop/mcha toolchain windows/toolchain/gcc-arm-none-eabi/bin/../lib/gcc/arm-none-eabi/11.2.1/thumb/v7e-m+fp/hard\libgcc.a(_arm_cmpdf2.o)
__libc_fini_array                                 c:/users/luke/desktop/mcha toolchain windows/toolchain/gcc-arm-none-eabi/bin/../lib/gcc/arm-none-eabi/11.2.1/thumb/v7e-m+fp/hard/crt0.o
__libc_init_array                                 c:/users/luke/desktop/mcha toolchain windows/toolchain/gcc-arm-none-eabi/bin/../lib/gcc/arm-none-eabi/11.2.1/thumb/v7e-m+fp/hard\libc_nano.a(lib_a-init.o)
                                                  build/startup_stm32f446xx.o
                                                  c:/users/luke/desktop/mcha toolchain windows/toolchain/gcc-arm-none-eabi/bin/../lib/gcc/arm-none-eabi/11.2.1/thumb/v7e-m+fp/hard/crt0.o
__lo0bits                                         c:/users/luke/desktop/mcha toolchain windows/toolchain/gcc-arm-none-eabi/bin/../lib/gcc/arm-none-eabi/11.2.1/thumb/v7e-m+fp/hard\libc_nano.a(lib_a-mprec.o)
__locale_mb_cur_max                               c:/users/luke/desktop/mcha toolchain windows/toolchain/gcc-arm-none-eabi/bin/../lib/gcc/arm-none-eabi/11.2.1/thumb/v7e-m+fp/hard\libc_nano.a(lib_a-locale.o)
__localeconv_l                                    c:/users/luke/desktop/mcha toolchain windows/toolchain/gcc-arm-none-eabi/bin/../lib/gcc/arm-none-eabi/11.2.1/thumb/v7e-m+fp/hard\libc_nano.a(lib_a-localeconv.o)
__lshift                                          c:/users/luke/desktop/mcha toolchain windows/toolchain/gcc-arm-none-eabi/bin/../lib/gcc/arm-none-eabi/11.2.1/thumb/v7e-m+fp/hard\libc_nano.a(lib_a-mprec.o)
                                                  c:/users/luke/desktop/mcha toolchain windows/toolchain/gcc-arm-none-eabi/bin/../lib/gcc/arm-none-eabi/11.2.1/thumb/v7e-m+fp/hard\libc_nano.a(lib_a-gdtoa-gethex.o)
                                                  c:/users/luke/desktop/mcha toolchain windows/toolchain/gcc-arm-none-eabi/bin/../lib/gcc/arm-none-eabi/11.2.1/thumb/v7e-m+fp/hard\libc_nano.a(lib_a-dtoa.o)
                                                  c:/users/luke/desktop/mcha toolchain windows/toolchain/gcc-arm-none-eabi/bin/../lib/gcc/arm-none-eabi/11.2.1/thumb/v7e-m+fp/hard\libc_nano.a(lib_a-strtod.o)
__ltdf2                                           c:/users/luke/desktop/mcha toolchain windows/toolchain/gcc-arm-none-eabi/bin/../lib/gcc/arm-none-eabi/11.2.1/thumb/v7e-m+fp/hard\libgcc.a(_arm_cmpdf2.o)
__malloc_current_mallinfo                         c:/users/luke/desktop/mcha toolchain windows/toolchain/gcc-arm-none-eabi/bin/../lib/gcc/arm-none-eabi/11.2.1/thumb/v7e-m+fp/hard\libc_nano.a(lib_a-nano-mallinfor.o)
                                                  c:/users/luke/desktop/mcha toolchain windows/toolchain/gcc-arm-none-eabi/bin/../lib/gcc/arm-none-eabi/11.2.1/thumb/v7e-m+fp/hard\libc_nano.a(lib_a-nano-mallstatsr.o)
__malloc_free_list                                c:/users/luke/desktop/mcha toolchain windows/toolchain/gcc-arm-none-eabi/bin/../lib/gcc/arm-none-eabi/11.2.1/thumb/v7e-m+fp/hard\libc_nano.a(lib_a-nano-mallocr.o)
                                                  c:/users/luke/desktop/mcha toolchain windows/toolchain/gcc-arm-none-eabi/bin/../lib/gcc/arm-none-eabi/11.2.1/thumb/v7e-m+fp/hard\libc_nano.a(lib_a-nano-mallinfor.o)
                                                  c:/users/luke/desktop/mcha toolchain windows/toolchain/gcc-arm-none-eabi/bin/../lib/gcc/arm-none-eabi/11.2.1/thumb/v7e-m+fp/hard\libc_nano.a(lib_a-nano-freer.o)
__malloc_lock                                     build/FreeRTOS/heap_useNewlib.o
                                                  c:/users/luke/desktop/mcha toolchain windows/toolchain/gcc-arm-none-eabi/bin/../lib/gcc/arm-none-eabi/11.2.1/thumb/v7e-m+fp/hard\libc_nano.a(lib_a-nano-mallocr.o)
                                                  c:/users/luke/desktop/mcha toolchain windows/toolchain/gcc-arm-none-eabi/bin/../lib/gcc/arm-none-eabi/11.2.1/thumb/v7e-m+fp/hard\libc_nano.a(lib_a-nano-mallinfor.o)
                                                  c:/users/luke/desktop/mcha toolchain windows/toolchain/gcc-arm-none-eabi/bin/../lib/gcc/arm-none-eabi/11.2.1/thumb/v7e-m+fp/hard\libc_nano.a(lib_a-nano-freer.o)
__malloc_sbrk_start                               c:/users/luke/desktop/mcha toolchain windows/toolchain/gcc-arm-none-eabi/bin/../lib/gcc/arm-none-eabi/11.2.1/thumb/v7e-m+fp/hard\libc_nano.a(lib_a-nano-mallocr.o)
                                                  c:/users/luke/desktop/mcha toolchain windows/toolchain/gcc-arm-none-eabi/bin/../lib/gcc/arm-none-eabi/11.2.1/thumb/v7e-m+fp/hard\libc_nano.a(lib_a-nano-mallinfor.o)
__malloc_unlock                                   build/FreeRTOS/heap_useNewlib.o
                                                  c:/users/luke/desktop/mcha toolchain windows/toolchain/gcc-arm-none-eabi/bin/../lib/gcc/arm-none-eabi/11.2.1/thumb/v7e-m+fp/hard\libc_nano.a(lib_a-nano-mallocr.o)
                                                  c:/users/luke/desktop/mcha toolchain windows/toolchain/gcc-arm-none-eabi/bin/../lib/gcc/arm-none-eabi/11.2.1/thumb/v7e-m+fp/hard\libc_nano.a(lib_a-nano-mallinfor.o)
                                                  c:/users/luke/desktop/mcha toolchain windows/toolchain/gcc-arm-none-eabi/bin/../lib/gcc/arm-none-eabi/11.2.1/thumb/v7e-m+fp/hard\libc_nano.a(lib_a-nano-freer.o)
__match                                           c:/users/luke/desktop/mcha toolchain windows/toolchain/gcc-arm-none-eabi/bin/../lib/gcc/arm-none-eabi/11.2.1/thumb/v7e-m+fp/hard\libc_nano.a(lib_a-gdtoa-hexnan.o)
                                                  c:/users/luke/desktop/mcha toolchain windows/toolchain/gcc-arm-none-eabi/bin/../lib/gcc/arm-none-eabi/11.2.1/thumb/v7e-m+fp/hard\libc_nano.a(lib_a-strtod.o)
__mcmp                                            c:/users/luke/desktop/mcha toolchain windows/toolchain/gcc-arm-none-eabi/bin/../lib/gcc/arm-none-eabi/11.2.1/thumb/v7e-m+fp/hard\libc_nano.a(lib_a-mprec.o)
                                                  c:/users/luke/desktop/mcha toolchain windows/toolchain/gcc-arm-none-eabi/bin/../lib/gcc/arm-none-eabi/11.2.1/thumb/v7e-m+fp/hard\libc_nano.a(lib_a-dtoa.o)
                                                  c:/users/luke/desktop/mcha toolchain windows/toolchain/gcc-arm-none-eabi/bin/../lib/gcc/arm-none-eabi/11.2.1/thumb/v7e-m+fp/hard\libc_nano.a(lib_a-strtod.o)
__mdiff                                           c:/users/luke/desktop/mcha toolchain windows/toolchain/gcc-arm-none-eabi/bin/../lib/gcc/arm-none-eabi/11.2.1/thumb/v7e-m+fp/hard\libc_nano.a(lib_a-mprec.o)
                                                  c:/users/luke/desktop/mcha toolchain windows/toolchain/gcc-arm-none-eabi/bin/../lib/gcc/arm-none-eabi/11.2.1/thumb/v7e-m+fp/hard\libc_nano.a(lib_a-dtoa.o)
                                                  c:/users/luke/desktop/mcha toolchain windows/toolchain/gcc-arm-none-eabi/bin/../lib/gcc/arm-none-eabi/11.2.1/thumb/v7e-m+fp/hard\libc_nano.a(lib_a-strtod.o)
__mprec_bigtens                                   c:/users/luke/desktop/mcha toolchain windows/toolchain/gcc-arm-none-eabi/bin/../lib/gcc/arm-none-eabi/11.2.1/thumb/v7e-m+fp/hard\libc_nano.a(lib_a-mprec.o)
                                                  c:/users/luke/desktop/mcha toolchain windows/toolchain/gcc-arm-none-eabi/bin/../lib/gcc/arm-none-eabi/11.2.1/thumb/v7e-m+fp/hard\libc_nano.a(lib_a-dtoa.o)
                                                  c:/users/luke/desktop/mcha toolchain windows/toolchain/gcc-arm-none-eabi/bin/../lib/gcc/arm-none-eabi/11.2.1/thumb/v7e-m+fp/hard\libc_nano.a(lib_a-strtod.o)
__mprec_tens                                      c:/users/luke/desktop/mcha toolchain windows/toolchain/gcc-arm-none-eabi/bin/../lib/gcc/arm-none-eabi/11.2.1/thumb/v7e-m+fp/hard\libc_nano.a(lib_a-mprec.o)
                                                  c:/users/luke/desktop/mcha toolchain windows/toolchain/gcc-arm-none-eabi/bin/../lib/gcc/arm-none-eabi/11.2.1/thumb/v7e-m+fp/hard\libc_nano.a(lib_a-dtoa.o)
                                                  c:/users/luke/desktop/mcha toolchain windows/toolchain/gcc-arm-none-eabi/bin/../lib/gcc/arm-none-eabi/11.2.1/thumb/v7e-m+fp/hard\libc_nano.a(lib_a-strtod.o)
__mprec_tinytens                                  c:/users/luke/desktop/mcha toolchain windows/toolchain/gcc-arm-none-eabi/bin/../lib/gcc/arm-none-eabi/11.2.1/thumb/v7e-m+fp/hard\libc_nano.a(lib_a-mprec.o)
__muldf3                                          c:/users/luke/desktop/mcha toolchain windows/toolchain/gcc-arm-none-eabi/bin/../lib/gcc/arm-none-eabi/11.2.1/thumb/v7e-m+fp/hard\libgcc.a(_arm_muldivdf3.o)
                                                  c:/users/luke/desktop/mcha toolchain windows/toolchain/gcc-arm-none-eabi/bin/../lib/gcc/arm-none-eabi/11.2.1/thumb/v7e-m+fp/hard\libgcc.a(_arm_muldf3.o)
__multadd                                         c:/users/luke/desktop/mcha toolchain windows/toolchain/gcc-arm-none-eabi/bin/../lib/gcc/arm-none-eabi/11.2.1/thumb/v7e-m+fp/hard\libc_nano.a(lib_a-mprec.o)
                                                  c:/users/luke/desktop/mcha toolchain windows/toolchain/gcc-arm-none-eabi/bin/../lib/gcc/arm-none-eabi/11.2.1/thumb/v7e-m+fp/hard\libc_nano.a(lib_a-dtoa.o)
__multiply                                        c:/users/luke/desktop/mcha toolchain windows/toolchain/gcc-arm-none-eabi/bin/../lib/gcc/arm-none-eabi/11.2.1/thumb/v7e-m+fp/hard\libc_nano.a(lib_a-mprec.o)
                                                  c:/users/luke/desktop/mcha toolchain windows/toolchain/gcc-arm-none-eabi/bin/../lib/gcc/arm-none-eabi/11.2.1/thumb/v7e-m+fp/hard\libc_nano.a(lib_a-dtoa.o)
                                                  c:/users/luke/desktop/mcha toolchain windows/toolchain/gcc-arm-none-eabi/bin/../lib/gcc/arm-none-eabi/11.2.1/thumb/v7e-m+fp/hard\libc_nano.a(lib_a-strtod.o)
__nedf2                                           c:/users/luke/desktop/mcha toolchain windows/toolchain/gcc-arm-none-eabi/bin/../lib/gcc/arm-none-eabi/11.2.1/thumb/v7e-m+fp/hard\libgcc.a(_arm_cmpdf2.o)
__numeric_load_locale                             c:/users/luke/desktop/mcha toolchain windows/toolchain/gcc-arm-none-eabi/bin/../lib/gcc/arm-none-eabi/11.2.1/thumb/v7e-m+fp/hard\libc_nano.a(lib_a-lnumeric.o)
__pow5mult                                        c:/users/luke/desktop/mcha toolchain windows/toolchain/gcc-arm-none-eabi/bin/../lib/gcc/arm-none-eabi/11.2.1/thumb/v7e-m+fp/hard\libc_nano.a(lib_a-mprec.o)
                                                  c:/users/luke/desktop/mcha toolchain windows/toolchain/gcc-arm-none-eabi/bin/../lib/gcc/arm-none-eabi/11.2.1/thumb/v7e-m+fp/hard\libc_nano.a(lib_a-dtoa.o)
                                                  c:/users/luke/desktop/mcha toolchain windows/toolchain/gcc-arm-none-eabi/bin/../lib/gcc/arm-none-eabi/11.2.1/thumb/v7e-m+fp/hard\libc_nano.a(lib_a-strtod.o)
__preinit_array_end                               c:/users/luke/desktop/mcha toolchain windows/toolchain/gcc-arm-none-eabi/bin/../lib/gcc/arm-none-eabi/11.2.1/thumb/v7e-m+fp/hard\libc_nano.a(lib_a-init.o)
__preinit_array_start                             c:/users/luke/desktop/mcha toolchain windows/toolchain/gcc-arm-none-eabi/bin/../lib/gcc/arm-none-eabi/11.2.1/thumb/v7e-m+fp/hard\libc_nano.a(lib_a-init.o)
__ratio                                           c:/users/luke/desktop/mcha toolchain windows/toolchain/gcc-arm-none-eabi/bin/../lib/gcc/arm-none-eabi/11.2.1/thumb/v7e-m+fp/hard\libc_nano.a(lib_a-mprec.o)
                                                  c:/users/luke/desktop/mcha toolchain windows/toolchain/gcc-arm-none-eabi/bin/../lib/gcc/arm-none-eabi/11.2.1/thumb/v7e-m+fp/hard\libc_nano.a(lib_a-strtod.o)
__register_frame_info                             c:/users/luke/desktop/mcha toolchain windows/toolchain/gcc-arm-none-eabi/bin/../lib/gcc/arm-none-eabi/11.2.1/thumb/v7e-m+fp/hard/crtbegin.o
__s2b                                             c:/users/luke/desktop/mcha toolchain windows/toolchain/gcc-arm-none-eabi/bin/../lib/gcc/arm-none-eabi/11.2.1/thumb/v7e-m+fp/hard\libc_nano.a(lib_a-mprec.o)
                                                  c:/users/luke/desktop/mcha toolchain windows/toolchain/gcc-arm-none-eabi/bin/../lib/gcc/arm-none-eabi/11.2.1/thumb/v7e-m+fp/hard\libc_nano.a(lib_a-strtod.o)
__sclose                                          c:/users/luke/desktop/mcha toolchain windows/toolchain/gcc-arm-none-eabi/bin/../lib/gcc/arm-none-eabi/11.2.1/thumb/v7e-m+fp/hard\libc_nano.a(lib_a-stdio.o)
                                                  c:/users/luke/desktop/mcha toolchain windows/toolchain/gcc-arm-none-eabi/bin/../lib/gcc/arm-none-eabi/11.2.1/thumb/v7e-m+fp/hard\libc_nano.a(lib_a-findfp.o)
__seofread                                        c:/users/luke/desktop/mcha toolchain windows/toolchain/gcc-arm-none-eabi/bin/../lib/gcc/arm-none-eabi/11.2.1/thumb/v7e-m+fp/hard\libc_nano.a(lib_a-stdio.o)
__sf_fake_stderr                                  c:/users/luke/desktop/mcha toolchain windows/toolchain/gcc-arm-none-eabi/bin/../lib/gcc/arm-none-eabi/11.2.1/thumb/v7e-m+fp/hard\libc_nano.a(lib_a-findfp.o)
                                                  c:/users/luke/desktop/mcha toolchain windows/toolchain/gcc-arm-none-eabi/bin/../lib/gcc/arm-none-eabi/11.2.1/thumb/v7e-m+fp/hard\libc_nano.a(lib_a-wsetup.o)
                                                  c:/users/luke/desktop/mcha toolchain windows/toolchain/gcc-arm-none-eabi/bin/../lib/gcc/arm-none-eabi/11.2.1/thumb/v7e-m+fp/hard\libc_nano.a(lib_a-wbuf.o)
                                                  c:/users/luke/desktop/mcha toolchain windows/toolchain/gcc-arm-none-eabi/bin/../lib/gcc/arm-none-eabi/11.2.1/thumb/v7e-m+fp/hard\libc_nano.a(lib_a-refill.o)
                                                  c:/users/luke/desktop/mcha toolchain windows/toolchain/gcc-arm-none-eabi/bin/../lib/gcc/arm-none-eabi/11.2.1/thumb/v7e-m+fp/hard\libc_nano.a(lib_a-nano-vfprintf.o)
                                                  c:/users/luke/desktop/mcha toolchain windows/toolchain/gcc-arm-none-eabi/bin/../lib/gcc/arm-none-eabi/11.2.1/thumb/v7e-m+fp/hard\libc_nano.a(lib_a-fflush.o)
                                                  c:/users/luke/desktop/mcha toolchain windows/toolchain/gcc-arm-none-eabi/bin/../lib/gcc/arm-none-eabi/11.2.1/thumb/v7e-m+fp/hard\libc_nano.a(lib_a-setvbuf.o)
                                                  c:/users/luke/desktop/mcha toolchain windows/toolchain/gcc-arm-none-eabi/bin/../lib/gcc/arm-none-eabi/11.2.1/thumb/v7e-m+fp/hard\libc_nano.a(lib_a-rget.o)
                                                  c:/users/luke/desktop/mcha toolchain windows/toolchain/gcc-arm-none-eabi/bin/../lib/gcc/arm-none-eabi/11.2.1/thumb/v7e-m+fp/hard\libc_nano.a(lib_a-impure.o)
                                                  c:/users/luke/desktop/mcha toolchain windows/toolchain/gcc-arm-none-eabi/bin/../lib/gcc/arm-none-eabi/11.2.1/thumb/v7e-m+fp/hard\libc_nano.a(lib_a-getc.o)
__sf_fake_stdin                                   c:/users/luke/desktop/mcha toolchain windows/toolchain/gcc-arm-none-eabi/bin/../lib/gcc/arm-none-eabi/11.2.1/thumb/v7e-m+fp/hard\libc_nano.a(lib_a-findfp.o)
                                                  c:/users/luke/desktop/mcha toolchain windows/toolchain/gcc-arm-none-eabi/bin/../lib/gcc/arm-none-eabi/11.2.1/thumb/v7e-m+fp/hard\libc_nano.a(lib_a-wsetup.o)
                                                  c:/users/luke/desktop/mcha toolchain windows/toolchain/gcc-arm-none-eabi/bin/../lib/gcc/arm-none-eabi/11.2.1/thumb/v7e-m+fp/hard\libc_nano.a(lib_a-wbuf.o)
                                                  c:/users/luke/desktop/mcha toolchain windows/toolchain/gcc-arm-none-eabi/bin/../lib/gcc/arm-none-eabi/11.2.1/thumb/v7e-m+fp/hard\libc_nano.a(lib_a-refill.o)
                                                  c:/users/luke/desktop/mcha toolchain windows/toolchain/gcc-arm-none-eabi/bin/../lib/gcc/arm-none-eabi/11.2.1/thumb/v7e-m+fp/hard\libc_nano.a(lib_a-nano-vfprintf.o)
                                                  c:/users/luke/desktop/mcha toolchain windows/toolchain/gcc-arm-none-eabi/bin/../lib/gcc/arm-none-eabi/11.2.1/thumb/v7e-m+fp/hard\libc_nano.a(lib_a-fflush.o)
                                                  c:/users/luke/desktop/mcha toolchain windows/toolchain/gcc-arm-none-eabi/bin/../lib/gcc/arm-none-eabi/11.2.1/thumb/v7e-m+fp/hard\libc_nano.a(lib_a-setvbuf.o)
                                                  c:/users/luke/desktop/mcha toolchain windows/toolchain/gcc-arm-none-eabi/bin/../lib/gcc/arm-none-eabi/11.2.1/thumb/v7e-m+fp/hard\libc_nano.a(lib_a-rget.o)
                                                  c:/users/luke/desktop/mcha toolchain windows/toolchain/gcc-arm-none-eabi/bin/../lib/gcc/arm-none-eabi/11.2.1/thumb/v7e-m+fp/hard\libc_nano.a(lib_a-impure.o)
                                                  c:/users/luke/desktop/mcha toolchain windows/toolchain/gcc-arm-none-eabi/bin/../lib/gcc/arm-none-eabi/11.2.1/thumb/v7e-m+fp/hard\libc_nano.a(lib_a-getc.o)
__sf_fake_stdout                                  c:/users/luke/desktop/mcha toolchain windows/toolchain/gcc-arm-none-eabi/bin/../lib/gcc/arm-none-eabi/11.2.1/thumb/v7e-m+fp/hard\libc_nano.a(lib_a-findfp.o)
                                                  c:/users/luke/desktop/mcha toolchain windows/toolchain/gcc-arm-none-eabi/bin/../lib/gcc/arm-none-eabi/11.2.1/thumb/v7e-m+fp/hard\libc_nano.a(lib_a-wsetup.o)
                                                  c:/users/luke/desktop/mcha toolchain windows/toolchain/gcc-arm-none-eabi/bin/../lib/gcc/arm-none-eabi/11.2.1/thumb/v7e-m+fp/hard\libc_nano.a(lib_a-wbuf.o)
                                                  c:/users/luke/desktop/mcha toolchain windows/toolchain/gcc-arm-none-eabi/bin/../lib/gcc/arm-none-eabi/11.2.1/thumb/v7e-m+fp/hard\libc_nano.a(lib_a-refill.o)
                                                  c:/users/luke/desktop/mcha toolchain windows/toolchain/gcc-arm-none-eabi/bin/../lib/gcc/arm-none-eabi/11.2.1/thumb/v7e-m+fp/hard\libc_nano.a(lib_a-nano-vfprintf.o)
                                                  c:/users/luke/desktop/mcha toolchain windows/toolchain/gcc-arm-none-eabi/bin/../lib/gcc/arm-none-eabi/11.2.1/thumb/v7e-m+fp/hard\libc_nano.a(lib_a-fflush.o)
                                                  c:/users/luke/desktop/mcha toolchain windows/toolchain/gcc-arm-none-eabi/bin/../lib/gcc/arm-none-eabi/11.2.1/thumb/v7e-m+fp/hard\libc_nano.a(lib_a-setvbuf.o)
                                                  c:/users/luke/desktop/mcha toolchain windows/toolchain/gcc-arm-none-eabi/bin/../lib/gcc/arm-none-eabi/11.2.1/thumb/v7e-m+fp/hard\libc_nano.a(lib_a-rget.o)
                                                  c:/users/luke/desktop/mcha toolchain windows/toolchain/gcc-arm-none-eabi/bin/../lib/gcc/arm-none-eabi/11.2.1/thumb/v7e-m+fp/hard\libc_nano.a(lib_a-impure.o)
                                                  c:/users/luke/desktop/mcha toolchain windows/toolchain/gcc-arm-none-eabi/bin/../lib/gcc/arm-none-eabi/11.2.1/thumb/v7e-m+fp/hard\libc_nano.a(lib_a-getc.o)
__sflush_r                                        c:/users/luke/desktop/mcha toolchain windows/toolchain/gcc-arm-none-eabi/bin/../lib/gcc/arm-none-eabi/11.2.1/thumb/v7e-m+fp/hard\libc_nano.a(lib_a-fflush.o)
                                                  c:/users/luke/desktop/mcha toolchain windows/toolchain/gcc-arm-none-eabi/bin/../lib/gcc/arm-none-eabi/11.2.1/thumb/v7e-m+fp/hard\libc_nano.a(lib_a-refill.o)
__sfmoreglue                                      c:/users/luke/desktop/mcha toolchain windows/toolchain/gcc-arm-none-eabi/bin/../lib/gcc/arm-none-eabi/11.2.1/thumb/v7e-m+fp/hard\libc_nano.a(lib_a-findfp.o)
__sfp                                             c:/users/luke/desktop/mcha toolchain windows/toolchain/gcc-arm-none-eabi/bin/../lib/gcc/arm-none-eabi/11.2.1/thumb/v7e-m+fp/hard\libc_nano.a(lib_a-findfp.o)
__sfp_lock_acquire                                c:/users/luke/desktop/mcha toolchain windows/toolchain/gcc-arm-none-eabi/bin/../lib/gcc/arm-none-eabi/11.2.1/thumb/v7e-m+fp/hard\libc_nano.a(lib_a-findfp.o)
__sfp_lock_release                                c:/users/luke/desktop/mcha toolchain windows/toolchain/gcc-arm-none-eabi/bin/../lib/gcc/arm-none-eabi/11.2.1/thumb/v7e-m+fp/hard\libc_nano.a(lib_a-findfp.o)
__sfputs_r                                        c:/users/luke/desktop/mcha toolchain windows/toolchain/gcc-arm-none-eabi/bin/../lib/gcc/arm-none-eabi/11.2.1/thumb/v7e-m+fp/hard\libc_nano.a(lib_a-nano-vfprintf.o)
__sfvwrite_r                                      c:/users/luke/desktop/mcha toolchain windows/toolchain/gcc-arm-none-eabi/bin/../lib/gcc/arm-none-eabi/11.2.1/thumb/v7e-m+fp/hard\libc_nano.a(lib_a-fvwrite.o)
                                                  c:/users/luke/desktop/mcha toolchain windows/toolchain/gcc-arm-none-eabi/bin/../lib/gcc/arm-none-eabi/11.2.1/thumb/v7e-m+fp/hard\libc_nano.a(lib_a-nano-vfprintf.o)
__sigtramp                                        c:/users/luke/desktop/mcha toolchain windows/toolchain/gcc-arm-none-eabi/bin/../lib/gcc/arm-none-eabi/11.2.1/thumb/v7e-m+fp/hard\libc_nano.a(lib_a-signal.o)
__sigtramp_r                                      c:/users/luke/desktop/mcha toolchain windows/toolchain/gcc-arm-none-eabi/bin/../lib/gcc/arm-none-eabi/11.2.1/thumb/v7e-m+fp/hard\libc_nano.a(lib_a-signal.o)
__sinit                                           c:/users/luke/desktop/mcha toolchain windows/toolchain/gcc-arm-none-eabi/bin/../lib/gcc/arm-none-eabi/11.2.1/thumb/v7e-m+fp/hard\libc_nano.a(lib_a-findfp.o)
                                                  c:/users/luke/desktop/mcha toolchain windows/toolchain/gcc-arm-none-eabi/bin/../lib/gcc/arm-none-eabi/11.2.1/thumb/v7e-m+fp/hard\libc_nano.a(lib_a-wsetup.o)
                                                  c:/users/luke/desktop/mcha toolchain windows/toolchain/gcc-arm-none-eabi/bin/../lib/gcc/arm-none-eabi/11.2.1/thumb/v7e-m+fp/hard\libc_nano.a(lib_a-wbuf.o)
                                                  c:/users/luke/desktop/mcha toolchain windows/toolchain/gcc-arm-none-eabi/bin/../lib/gcc/arm-none-eabi/11.2.1/thumb/v7e-m+fp/hard\libc_nano.a(lib_a-refill.o)
                                                  c:/users/luke/desktop/mcha toolchain windows/toolchain/gcc-arm-none-eabi/bin/../lib/gcc/arm-none-eabi/11.2.1/thumb/v7e-m+fp/hard\libc_nano.a(lib_a-nano-vfprintf.o)
                                                  c:/users/luke/desktop/mcha toolchain windows/toolchain/gcc-arm-none-eabi/bin/../lib/gcc/arm-none-eabi/11.2.1/thumb/v7e-m+fp/hard\libc_nano.a(lib_a-fflush.o)
                                                  c:/users/luke/desktop/mcha toolchain windows/toolchain/gcc-arm-none-eabi/bin/../lib/gcc/arm-none-eabi/11.2.1/thumb/v7e-m+fp/hard\libc_nano.a(lib_a-vprintf.o)
                                                  c:/users/luke/desktop/mcha toolchain windows/toolchain/gcc-arm-none-eabi/bin/../lib/gcc/arm-none-eabi/11.2.1/thumb/v7e-m+fp/hard\libc_nano.a(lib_a-setvbuf.o)
                                                  c:/users/luke/desktop/mcha toolchain windows/toolchain/gcc-arm-none-eabi/bin/../lib/gcc/arm-none-eabi/11.2.1/thumb/v7e-m+fp/hard\libc_nano.a(lib_a-rget.o)
                                                  c:/users/luke/desktop/mcha toolchain windows/toolchain/gcc-arm-none-eabi/bin/../lib/gcc/arm-none-eabi/11.2.1/thumb/v7e-m+fp/hard\libc_nano.a(lib_a-printf.o)
                                                  c:/users/luke/desktop/mcha toolchain windows/toolchain/gcc-arm-none-eabi/bin/../lib/gcc/arm-none-eabi/11.2.1/thumb/v7e-m+fp/hard\libc_nano.a(lib_a-mstats.o)
                                                  c:/users/luke/desktop/mcha toolchain windows/toolchain/gcc-arm-none-eabi/bin/../lib/gcc/arm-none-eabi/11.2.1/thumb/v7e-m+fp/hard\libc_nano.a(lib_a-getc.o)
                                                  c:/users/luke/desktop/mcha toolchain windows/toolchain/gcc-arm-none-eabi/bin/../lib/gcc/arm-none-eabi/11.2.1/thumb/v7e-m+fp/hard\libc_nano.a(lib_a-getchar.o)
__sinit_lock_acquire                              c:/users/luke/desktop/mcha toolchain windows/toolchain/gcc-arm-none-eabi/bin/../lib/gcc/arm-none-eabi/11.2.1/thumb/v7e-m+fp/hard\libc_nano.a(lib_a-findfp.o)
__sinit_lock_release                              c:/users/luke/desktop/mcha toolchain windows/toolchain/gcc-arm-none-eabi/bin/../lib/gcc/arm-none-eabi/11.2.1/thumb/v7e-m+fp/hard\libc_nano.a(lib_a-findfp.o)
__smakebuf_r                                      c:/users/luke/desktop/mcha toolchain windows/toolchain/gcc-arm-none-eabi/bin/../lib/gcc/arm-none-eabi/11.2.1/thumb/v7e-m+fp/hard\libc_nano.a(lib_a-makebuf.o)
                                                  c:/users/luke/desktop/mcha toolchain windows/toolchain/gcc-arm-none-eabi/bin/../lib/gcc/arm-none-eabi/11.2.1/thumb/v7e-m+fp/hard\libc_nano.a(lib_a-wsetup.o)
                                                  c:/users/luke/desktop/mcha toolchain windows/toolchain/gcc-arm-none-eabi/bin/../lib/gcc/arm-none-eabi/11.2.1/thumb/v7e-m+fp/hard\libc_nano.a(lib_a-refill.o)
__sprint_r                                        c:/users/luke/desktop/mcha toolchain windows/toolchain/gcc-arm-none-eabi/bin/../lib/gcc/arm-none-eabi/11.2.1/thumb/v7e-m+fp/hard\libc_nano.a(lib_a-nano-vfprintf.o)
__sread                                           c:/users/luke/desktop/mcha toolchain windows/toolchain/gcc-arm-none-eabi/bin/../lib/gcc/arm-none-eabi/11.2.1/thumb/v7e-m+fp/hard\libc_nano.a(lib_a-stdio.o)
                                                  c:/users/luke/desktop/mcha toolchain windows/toolchain/gcc-arm-none-eabi/bin/../lib/gcc/arm-none-eabi/11.2.1/thumb/v7e-m+fp/hard\libc_nano.a(lib_a-findfp.o)
__srefill_r                                       c:/users/luke/desktop/mcha toolchain windows/toolchain/gcc-arm-none-eabi/bin/../lib/gcc/arm-none-eabi/11.2.1/thumb/v7e-m+fp/hard\libc_nano.a(lib_a-refill.o)
                                                  c:/users/luke/desktop/mcha toolchain windows/toolchain/gcc-arm-none-eabi/bin/../lib/gcc/arm-none-eabi/11.2.1/thumb/v7e-m+fp/hard\libc_nano.a(lib_a-rget.o)
__srget                                           c:/users/luke/desktop/mcha toolchain windows/toolchain/gcc-arm-none-eabi/bin/../lib/gcc/arm-none-eabi/11.2.1/thumb/v7e-m+fp/hard\libc_nano.a(lib_a-rget.o)
__srget_r                                         c:/users/luke/desktop/mcha toolchain windows/toolchain/gcc-arm-none-eabi/bin/../lib/gcc/arm-none-eabi/11.2.1/thumb/v7e-m+fp/hard\libc_nano.a(lib_a-rget.o)
                                                  c:/users/luke/desktop/mcha toolchain windows/toolchain/gcc-arm-none-eabi/bin/../lib/gcc/arm-none-eabi/11.2.1/thumb/v7e-m+fp/hard\libc_nano.a(lib_a-getc.o)
__sseek                                           c:/users/luke/desktop/mcha toolchain windows/toolchain/gcc-arm-none-eabi/bin/../lib/gcc/arm-none-eabi/11.2.1/thumb/v7e-m+fp/hard\libc_nano.a(lib_a-stdio.o)
                                                  c:/users/luke/desktop/mcha toolchain windows/toolchain/gcc-arm-none-eabi/bin/../lib/gcc/arm-none-eabi/11.2.1/thumb/v7e-m+fp/hard\libc_nano.a(lib_a-findfp.o)
__ssprint_r                                       c:/users/luke/desktop/mcha toolchain windows/toolchain/gcc-arm-none-eabi/bin/../lib/gcc/arm-none-eabi/11.2.1/thumb/v7e-m+fp/hard\libc_nano.a(lib_a-nano-svfprintf.o)
__ssputs_r                                        c:/users/luke/desktop/mcha toolchain windows/toolchain/gcc-arm-none-eabi/bin/../lib/gcc/arm-none-eabi/11.2.1/thumb/v7e-m+fp/hard\libc_nano.a(lib_a-nano-svfprintf.o)
__stack                                           c:/users/luke/desktop/mcha toolchain windows/toolchain/gcc-arm-none-eabi/bin/../lib/gcc/arm-none-eabi/11.2.1/thumb/v7e-m+fp/hard/crt0.o
__subdf3                                          c:/users/luke/desktop/mcha toolchain windows/toolchain/gcc-arm-none-eabi/bin/../lib/gcc/arm-none-eabi/11.2.1/thumb/v7e-m+fp/hard\libgcc.a(_arm_addsubdf3.o)
__swbuf                                           c:/users/luke/desktop/mcha toolchain windows/toolchain/gcc-arm-none-eabi/bin/../lib/gcc/arm-none-eabi/11.2.1/thumb/v7e-m+fp/hard\libc_nano.a(lib_a-wbuf.o)
__swbuf_r                                         c:/users/luke/desktop/mcha toolchain windows/toolchain/gcc-arm-none-eabi/bin/../lib/gcc/arm-none-eabi/11.2.1/thumb/v7e-m+fp/hard\libc_nano.a(lib_a-wbuf.o)
                                                  c:/users/luke/desktop/mcha toolchain windows/toolchain/gcc-arm-none-eabi/bin/../lib/gcc/arm-none-eabi/11.2.1/thumb/v7e-m+fp/hard\libc_nano.a(lib_a-nano-vfprintf.o)
__swhatbuf_r                                      c:/users/luke/desktop/mcha toolchain windows/toolchain/gcc-arm-none-eabi/bin/../lib/gcc/arm-none-eabi/11.2.1/thumb/v7e-m+fp/hard\libc_nano.a(lib_a-makebuf.o)
                                                  c:/users/luke/desktop/mcha toolchain windows/toolchain/gcc-arm-none-eabi/bin/../lib/gcc/arm-none-eabi/11.2.1/thumb/v7e-m+fp/hard\libc_nano.a(lib_a-setvbuf.o)
__swrite                                          c:/users/luke/desktop/mcha toolchain windows/toolchain/gcc-arm-none-eabi/bin/../lib/gcc/arm-none-eabi/11.2.1/thumb/v7e-m+fp/hard\libc_nano.a(lib_a-stdio.o)
                                                  c:/users/luke/desktop/mcha toolchain windows/toolchain/gcc-arm-none-eabi/bin/../lib/gcc/arm-none-eabi/11.2.1/thumb/v7e-m+fp/hard\libc_nano.a(lib_a-findfp.o)
__swsetup_r                                       c:/users/luke/desktop/mcha toolchain windows/toolchain/gcc-arm-none-eabi/bin/../lib/gcc/arm-none-eabi/11.2.1/thumb/v7e-m+fp/hard\libc_nano.a(lib_a-wsetup.o)
                                                  c:/users/luke/desktop/mcha toolchain windows/toolchain/gcc-arm-none-eabi/bin/../lib/gcc/arm-none-eabi/11.2.1/thumb/v7e-m+fp/hard\libc_nano.a(lib_a-fvwrite.o)
                                                  c:/users/luke/desktop/mcha toolchain windows/toolchain/gcc-arm-none-eabi/bin/../lib/gcc/arm-none-eabi/11.2.1/thumb/v7e-m+fp/hard\libc_nano.a(lib_a-wbuf.o)
                                                  c:/users/luke/desktop/mcha toolchain windows/toolchain/gcc-arm-none-eabi/bin/../lib/gcc/arm-none-eabi/11.2.1/thumb/v7e-m+fp/hard\libc_nano.a(lib_a-nano-vfprintf.o)
__truncdfsf2                                      c:/users/luke/desktop/mcha toolchain windows/toolchain/gcc-arm-none-eabi/bin/../lib/gcc/arm-none-eabi/11.2.1/thumb/v7e-m+fp/hard\libgcc.a(_arm_truncdfsf2.o)
__udivmoddi4                                      c:/users/luke/desktop/mcha toolchain windows/toolchain/gcc-arm-none-eabi/bin/../lib/gcc/arm-none-eabi/11.2.1/thumb/v7e-m+fp/hard\libgcc.a(_udivmoddi4.o)
                                                  c:/users/luke/desktop/mcha toolchain windows/toolchain/gcc-arm-none-eabi/bin/../lib/gcc/arm-none-eabi/11.2.1/thumb/v7e-m+fp/hard\libgcc.a(_aeabi_uldivmod.o)
                                                  c:/users/luke/desktop/mcha toolchain windows/toolchain/gcc-arm-none-eabi/bin/../lib/gcc/arm-none-eabi/11.2.1/thumb/v7e-m+fp/hard\libgcc.a(_aeabi_ldivmod.o)
__ulp                                             c:/users/luke/desktop/mcha toolchain windows/toolchain/gcc-arm-none-eabi/bin/../lib/gcc/arm-none-eabi/11.2.1/thumb/v7e-m+fp/hard\libc_nano.a(lib_a-mprec.o)
                                                  c:/users/luke/desktop/mcha toolchain windows/toolchain/gcc-arm-none-eabi/bin/../lib/gcc/arm-none-eabi/11.2.1/thumb/v7e-m+fp/hard\libc_nano.a(lib_a-strtod.o)
__unorddf2                                        c:/users/luke/desktop/mcha toolchain windows/toolchain/gcc-arm-none-eabi/bin/../lib/gcc/arm-none-eabi/11.2.1/thumb/v7e-m+fp/hard\libgcc.a(_arm_unorddf2.o)
__wrap_printf                                     build/uart.o
_calloc_r                                         c:/users/luke/desktop/mcha toolchain windows/toolchain/gcc-arm-none-eabi/bin/../lib/gcc/arm-none-eabi/11.2.1/thumb/v7e-m+fp/hard\libc_nano.a(lib_a-nano-callocr.o)
                                                  c:/users/luke/desktop/mcha toolchain windows/toolchain/gcc-arm-none-eabi/bin/../lib/gcc/arm-none-eabi/11.2.1/thumb/v7e-m+fp/hard\libc_nano.a(lib_a-mprec.o)
_cleanup                                          c:/users/luke/desktop/mcha toolchain windows/toolchain/gcc-arm-none-eabi/bin/../lib/gcc/arm-none-eabi/11.2.1/thumb/v7e-m+fp/hard\libc_nano.a(lib_a-findfp.o)
_cleanup_r                                        c:/users/luke/desktop/mcha toolchain windows/toolchain/gcc-arm-none-eabi/bin/../lib/gcc/arm-none-eabi/11.2.1/thumb/v7e-m+fp/hard\libc_nano.a(lib_a-findfp.o)
                                                  c:/users/luke/desktop/mcha toolchain windows/toolchain/gcc-arm-none-eabi/bin/../lib/gcc/arm-none-eabi/11.2.1/thumb/v7e-m+fp/hard\libc_nano.a(lib_a-makebuf.o)
_close                                            c:/users/luke/desktop/mcha toolchain windows/toolchain/gcc-arm-none-eabi/bin/../lib/gcc/arm-none-eabi/11.2.1/thumb/v7e-m+fp/hard\libnosys.a(close.o)
                                                  c:/users/luke/desktop/mcha toolchain windows/toolchain/gcc-arm-none-eabi/bin/../lib/gcc/arm-none-eabi/11.2.1/thumb/v7e-m+fp/hard\libc_nano.a(lib_a-closer.o)
_close_r                                          c:/users/luke/desktop/mcha toolchain windows/toolchain/gcc-arm-none-eabi/bin/../lib/gcc/arm-none-eabi/11.2.1/thumb/v7e-m+fp/hard\libc_nano.a(lib_a-closer.o)
                                                  c:/users/luke/desktop/mcha toolchain windows/toolchain/gcc-arm-none-eabi/bin/../lib/gcc/arm-none-eabi/11.2.1/thumb/v7e-m+fp/hard\libc_nano.a(lib_a-stdio.o)
_ctype_                                           c:/users/luke/desktop/mcha toolchain windows/toolchain/gcc-arm-none-eabi/bin/../lib/gcc/arm-none-eabi/11.2.1/thumb/v7e-m+fp/hard\libc_nano.a(lib_a-ctype_.o)
                                                  c:/users/luke/desktop/mcha toolchain windows/toolchain/gcc-arm-none-eabi/bin/../lib/gcc/arm-none-eabi/11.2.1/thumb/v7e-m+fp/hard\libc_nano.a(lib_a-locale.o)
                                                  c:/users/luke/desktop/mcha toolchain windows/toolchain/gcc-arm-none-eabi/bin/../lib/gcc/arm-none-eabi/11.2.1/thumb/v7e-m+fp/hard\libc_nano.a(lib_a-strtol.o)
                                                  build/cmd_parser.o
_dtoa_r                                           c:/users/luke/desktop/mcha toolchain windows/toolchain/gcc-arm-none-eabi/bin/../lib/gcc/arm-none-eabi/11.2.1/thumb/v7e-m+fp/hard\libc_nano.a(lib_a-dtoa.o)
                                                  c:/users/luke/desktop/mcha toolchain windows/toolchain/gcc-arm-none-eabi/bin/../lib/gcc/arm-none-eabi/11.2.1/thumb/v7e-m+fp/hard\libc_nano.a(lib_a-nano-vfprintf_float.o)
_ebss                                             build/startup_stm32f446xx.o
_edata                                            build/startup_stm32f446xx.o
_estack                                           build/startup_stm32f446xx.o
_exit                                             c:/users/luke/desktop/mcha toolchain windows/toolchain/gcc-arm-none-eabi/bin/../lib/gcc/arm-none-eabi/11.2.1/thumb/v7e-m+fp/hard\libnosys.a(_exit.o)
                                                  c:/users/luke/desktop/mcha toolchain windows/toolchain/gcc-arm-none-eabi/bin/../lib/gcc/arm-none-eabi/11.2.1/thumb/v7e-m+fp/hard\libc_nano.a(lib_a-abort.o)
                                                  c:/users/luke/desktop/mcha toolchain windows/toolchain/gcc-arm-none-eabi/bin/../lib/gcc/arm-none-eabi/11.2.1/thumb/v7e-m+fp/hard\libc_nano.a(lib_a-exit.o)
_fflush_r                                         c:/users/luke/desktop/mcha toolchain windows/toolchain/gcc-arm-none-eabi/bin/../lib/gcc/arm-none-eabi/11.2.1/thumb/v7e-m+fp/hard\libc_nano.a(lib_a-fflush.o)
                                                  c:/users/luke/desktop/mcha toolchain windows/toolchain/gcc-arm-none-eabi/bin/../lib/gcc/arm-none-eabi/11.2.1/thumb/v7e-m+fp/hard\libc_nano.a(lib_a-fvwrite.o)
                                                  c:/users/luke/desktop/mcha toolchain windows/toolchain/gcc-arm-none-eabi/bin/../lib/gcc/arm-none-eabi/11.2.1/thumb/v7e-m+fp/hard\libc_nano.a(lib_a-wbuf.o)
                                                  c:/users/luke/desktop/mcha toolchain windows/toolchain/gcc-arm-none-eabi/bin/../lib/gcc/arm-none-eabi/11.2.1/thumb/v7e-m+fp/hard\libc_nano.a(lib_a-refill.o)
                                                  c:/users/luke/desktop/mcha toolchain windows/toolchain/gcc-arm-none-eabi/bin/../lib/gcc/arm-none-eabi/11.2.1/thumb/v7e-m+fp/hard\libc_nano.a(lib_a-findfp.o)
                                                  c:/users/luke/desktop/mcha toolchain windows/toolchain/gcc-arm-none-eabi/bin/../lib/gcc/arm-none-eabi/11.2.1/thumb/v7e-m+fp/hard\libc_nano.a(lib_a-setvbuf.o)
_fini                                             c:/users/luke/desktop/mcha toolchain windows/toolchain/gcc-arm-none-eabi/bin/../lib/gcc/arm-none-eabi/11.2.1/thumb/v7e-m+fp/hard/crti.o
_fiprintf_r                                       c:/users/luke/desktop/mcha toolchain windows/toolchain/gcc-arm-none-eabi/bin/../lib/gcc/arm-none-eabi/11.2.1/thumb/v7e-m+fp/hard\libc_nano.a(lib_a-fprintf.o)
_fprintf_r                                        c:/users/luke/desktop/mcha toolchain windows/toolchain/gcc-arm-none-eabi/bin/../lib/gcc/arm-none-eabi/11.2.1/thumb/v7e-m+fp/hard\libc_nano.a(lib_a-fprintf.o)
_free_r                                           c:/users/luke/desktop/mcha toolchain windows/toolchain/gcc-arm-none-eabi/bin/../lib/gcc/arm-none-eabi/11.2.1/thumb/v7e-m+fp/hard\libc_nano.a(lib_a-nano-freer.o)
                                                  c:/users/luke/desktop/mcha toolchain windows/toolchain/gcc-arm-none-eabi/bin/../lib/gcc/arm-none-eabi/11.2.1/thumb/v7e-m+fp/hard\libc_nano.a(lib_a-nano-reallocr.o)
                                                  c:/users/luke/desktop/mcha toolchain windows/toolchain/gcc-arm-none-eabi/bin/../lib/gcc/arm-none-eabi/11.2.1/thumb/v7e-m+fp/hard\libc_nano.a(lib_a-fvwrite.o)
                                                  c:/users/luke/desktop/mcha toolchain windows/toolchain/gcc-arm-none-eabi/bin/../lib/gcc/arm-none-eabi/11.2.1/thumb/v7e-m+fp/hard\libc_nano.a(lib_a-wsetup.o)
                                                  c:/users/luke/desktop/mcha toolchain windows/toolchain/gcc-arm-none-eabi/bin/../lib/gcc/arm-none-eabi/11.2.1/thumb/v7e-m+fp/hard\libc_nano.a(lib_a-refill.o)
                                                  c:/users/luke/desktop/mcha toolchain windows/toolchain/gcc-arm-none-eabi/bin/../lib/gcc/arm-none-eabi/11.2.1/thumb/v7e-m+fp/hard\libc_nano.a(lib_a-nano-svfprintf.o)
                                                  c:/users/luke/desktop/mcha toolchain windows/toolchain/gcc-arm-none-eabi/bin/../lib/gcc/arm-none-eabi/11.2.1/thumb/v7e-m+fp/hard\libc_nano.a(lib_a-fflush.o)
                                                  c:/users/luke/desktop/mcha toolchain windows/toolchain/gcc-arm-none-eabi/bin/../lib/gcc/arm-none-eabi/11.2.1/thumb/v7e-m+fp/hard\libc_nano.a(lib_a-setvbuf.o)
                                                  c:/users/luke/desktop/mcha toolchain windows/toolchain/gcc-arm-none-eabi/bin/../lib/gcc/arm-none-eabi/11.2.1/thumb/v7e-m+fp/hard\libc_nano.a(lib_a-reent.o)
                                                  c:/users/luke/desktop/mcha toolchain windows/toolchain/gcc-arm-none-eabi/bin/../lib/gcc/arm-none-eabi/11.2.1/thumb/v7e-m+fp/hard\libc_nano.a(lib_a-malloc.o)
_fstat                                            c:/users/luke/desktop/mcha toolchain windows/toolchain/gcc-arm-none-eabi/bin/../lib/gcc/arm-none-eabi/11.2.1/thumb/v7e-m+fp/hard\libnosys.a(fstat.o)
                                                  c:/users/luke/desktop/mcha toolchain windows/toolchain/gcc-arm-none-eabi/bin/../lib/gcc/arm-none-eabi/11.2.1/thumb/v7e-m+fp/hard\libc_nano.a(lib_a-fstatr.o)
_fstat_r                                          c:/users/luke/desktop/mcha toolchain windows/toolchain/gcc-arm-none-eabi/bin/../lib/gcc/arm-none-eabi/11.2.1/thumb/v7e-m+fp/hard\libc_nano.a(lib_a-fstatr.o)
                                                  c:/users/luke/desktop/mcha toolchain windows/toolchain/gcc-arm-none-eabi/bin/../lib/gcc/arm-none-eabi/11.2.1/thumb/v7e-m+fp/hard\libc_nano.a(lib_a-makebuf.o)
_fwalk                                            c:/users/luke/desktop/mcha toolchain windows/toolchain/gcc-arm-none-eabi/bin/../lib/gcc/arm-none-eabi/11.2.1/thumb/v7e-m+fp/hard\libc_nano.a(lib_a-fwalk.o)
                                                  c:/users/luke/desktop/mcha toolchain windows/toolchain/gcc-arm-none-eabi/bin/../lib/gcc/arm-none-eabi/11.2.1/thumb/v7e-m+fp/hard\libc_nano.a(lib_a-refill.o)
                                                  c:/users/luke/desktop/mcha toolchain windows/toolchain/gcc-arm-none-eabi/bin/../lib/gcc/arm-none-eabi/11.2.1/thumb/v7e-m+fp/hard\libc_nano.a(lib_a-findfp.o)
_fwalk_reent                                      c:/users/luke/desktop/mcha toolchain windows/toolchain/gcc-arm-none-eabi/bin/../lib/gcc/arm-none-eabi/11.2.1/thumb/v7e-m+fp/hard\libc_nano.a(lib_a-fwalk.o)
                                                  c:/users/luke/desktop/mcha toolchain windows/toolchain/gcc-arm-none-eabi/bin/../lib/gcc/arm-none-eabi/11.2.1/thumb/v7e-m+fp/hard\libc_nano.a(lib_a-findfp.o)
                                                  c:/users/luke/desktop/mcha toolchain windows/toolchain/gcc-arm-none-eabi/bin/../lib/gcc/arm-none-eabi/11.2.1/thumb/v7e-m+fp/hard\libc_nano.a(lib_a-fflush.o)
_getc_r                                           c:/users/luke/desktop/mcha toolchain windows/toolchain/gcc-arm-none-eabi/bin/../lib/gcc/arm-none-eabi/11.2.1/thumb/v7e-m+fp/hard\libc_nano.a(lib_a-getc.o)
                                                  c:/users/luke/desktop/mcha toolchain windows/toolchain/gcc-arm-none-eabi/bin/../lib/gcc/arm-none-eabi/11.2.1/thumb/v7e-m+fp/hard\libc_nano.a(lib_a-getchar.o)
_getchar_r                                        c:/users/luke/desktop/mcha toolchain windows/toolchain/gcc-arm-none-eabi/bin/../lib/gcc/arm-none-eabi/11.2.1/thumb/v7e-m+fp/hard\libc_nano.a(lib_a-getchar.o)
_getpid                                           c:/users/luke/desktop/mcha toolchain windows/toolchain/gcc-arm-none-eabi/bin/../lib/gcc/arm-none-eabi/11.2.1/thumb/v7e-m+fp/hard\libnosys.a(getpid.o)
                                                  c:/users/luke/desktop/mcha toolchain windows/toolchain/gcc-arm-none-eabi/bin/../lib/gcc/arm-none-eabi/11.2.1/thumb/v7e-m+fp/hard\libc_nano.a(lib_a-signalr.o)
_getpid_r                                         c:/users/luke/desktop/mcha toolchain windows/toolchain/gcc-arm-none-eabi/bin/../lib/gcc/arm-none-eabi/11.2.1/thumb/v7e-m+fp/hard\libc_nano.a(lib_a-signalr.o)
                                                  c:/users/luke/desktop/mcha toolchain windows/toolchain/gcc-arm-none-eabi/bin/../lib/gcc/arm-none-eabi/11.2.1/thumb/v7e-m+fp/hard\libc_nano.a(lib_a-signal.o)
_global_impure_ptr                                c:/users/luke/desktop/mcha toolchain windows/toolchain/gcc-arm-none-eabi/bin/../lib/gcc/arm-none-eabi/11.2.1/thumb/v7e-m+fp/hard\libc_nano.a(lib_a-impure.o)
                                                  c:/users/luke/desktop/mcha toolchain windows/toolchain/gcc-arm-none-eabi/bin/../lib/gcc/arm-none-eabi/11.2.1/thumb/v7e-m+fp/hard\libc_nano.a(lib_a-refill.o)
                                                  c:/users/luke/desktop/mcha toolchain windows/toolchain/gcc-arm-none-eabi/bin/../lib/gcc/arm-none-eabi/11.2.1/thumb/v7e-m+fp/hard\libc_nano.a(lib_a-findfp.o)
                                                  c:/users/luke/desktop/mcha toolchain windows/toolchain/gcc-arm-none-eabi/bin/../lib/gcc/arm-none-eabi/11.2.1/thumb/v7e-m+fp/hard\libc_nano.a(lib_a-fflush.o)
                                                  c:/users/luke/desktop/mcha toolchain windows/toolchain/gcc-arm-none-eabi/bin/../lib/gcc/arm-none-eabi/11.2.1/thumb/v7e-m+fp/hard\libc_nano.a(lib_a-exit.o)
_impure_ptr                                       c:/users/luke/desktop/mcha toolchain windows/toolchain/gcc-arm-none-eabi/bin/../lib/gcc/arm-none-eabi/11.2.1/thumb/v7e-m+fp/hard\libc_nano.a(lib_a-impure.o)
                                                  c:/users/luke/desktop/mcha toolchain windows/toolchain/gcc-arm-none-eabi/bin/../lib/gcc/arm-none-eabi/11.2.1/thumb/v7e-m+fp/hard\libc_nano.a(lib_a-signal.o)
                                                  c:/users/luke/desktop/mcha toolchain windows/toolchain/gcc-arm-none-eabi/bin/../lib/gcc/arm-none-eabi/11.2.1/thumb/v7e-m+fp/hard\libc_nano.a(lib_a-assert.o)
                                                  c:/users/luke/desktop/mcha toolchain windows/toolchain/gcc-arm-none-eabi/bin/../lib/gcc/arm-none-eabi/11.2.1/thumb/v7e-m+fp/hard\libc_nano.a(lib_a-wsetup.o)
                                                  c:/users/luke/desktop/mcha toolchain windows/toolchain/gcc-arm-none-eabi/bin/../lib/gcc/arm-none-eabi/11.2.1/thumb/v7e-m+fp/hard\libc_nano.a(lib_a-wbuf.o)
                                                  c:/users/luke/desktop/mcha toolchain windows/toolchain/gcc-arm-none-eabi/bin/../lib/gcc/arm-none-eabi/11.2.1/thumb/v7e-m+fp/hard\libc_nano.a(lib_a-nano-vfprintf.o)
                                                  c:/users/luke/desktop/mcha toolchain windows/toolchain/gcc-arm-none-eabi/bin/../lib/gcc/arm-none-eabi/11.2.1/thumb/v7e-m+fp/hard\libc_nano.a(lib_a-locale.o)
                                                  c:/users/luke/desktop/mcha toolchain windows/toolchain/gcc-arm-none-eabi/bin/../lib/gcc/arm-none-eabi/11.2.1/thumb/v7e-m+fp/hard\libc_nano.a(lib_a-fprintf.o)
                                                  c:/users/luke/desktop/mcha toolchain windows/toolchain/gcc-arm-none-eabi/bin/../lib/gcc/arm-none-eabi/11.2.1/thumb/v7e-m+fp/hard\libc_nano.a(lib_a-findfp.o)
                                                  c:/users/luke/desktop/mcha toolchain windows/toolchain/gcc-arm-none-eabi/bin/../lib/gcc/arm-none-eabi/11.2.1/thumb/v7e-m+fp/hard\libc_nano.a(lib_a-fflush.o)
                                                  c:/users/luke/desktop/mcha toolchain windows/toolchain/gcc-arm-none-eabi/bin/../lib/gcc/arm-none-eabi/11.2.1/thumb/v7e-m+fp/hard\libc_nano.a(lib_a-errno.o)
                                                  c:/users/luke/desktop/mcha toolchain windows/toolchain/gcc-arm-none-eabi/bin/../lib/gcc/arm-none-eabi/11.2.1/thumb/v7e-m+fp/hard\libc_nano.a(lib_a-vprintf.o)
                                                  c:/users/luke/desktop/mcha toolchain windows/toolchain/gcc-arm-none-eabi/bin/../lib/gcc/arm-none-eabi/11.2.1/thumb/v7e-m+fp/hard\libc_nano.a(lib_a-strtol.o)
                                                  c:/users/luke/desktop/mcha toolchain windows/toolchain/gcc-arm-none-eabi/bin/../lib/gcc/arm-none-eabi/11.2.1/thumb/v7e-m+fp/hard\libc_nano.a(lib_a-strtod.o)
                                                  c:/users/luke/desktop/mcha toolchain windows/toolchain/gcc-arm-none-eabi/bin/../lib/gcc/arm-none-eabi/11.2.1/thumb/v7e-m+fp/hard\libc_nano.a(lib_a-sprintf.o)
                                                  c:/users/luke/desktop/mcha toolchain windows/toolchain/gcc-arm-none-eabi/bin/../lib/gcc/arm-none-eabi/11.2.1/thumb/v7e-m+fp/hard\libc_nano.a(lib_a-setvbuf.o)
                                                  c:/users/luke/desktop/mcha toolchain windows/toolchain/gcc-arm-none-eabi/bin/../lib/gcc/arm-none-eabi/11.2.1/thumb/v7e-m+fp/hard\libc_nano.a(lib_a-rget.o)
                                                  c:/users/luke/desktop/mcha toolchain windows/toolchain/gcc-arm-none-eabi/bin/../lib/gcc/arm-none-eabi/11.2.1/thumb/v7e-m+fp/hard\libc_nano.a(lib_a-reent.o)
                                                  c:/users/luke/desktop/mcha toolchain windows/toolchain/gcc-arm-none-eabi/bin/../lib/gcc/arm-none-eabi/11.2.1/thumb/v7e-m+fp/hard\libc_nano.a(lib_a-printf.o)
                                                  c:/users/luke/desktop/mcha toolchain windows/toolchain/gcc-arm-none-eabi/bin/../lib/gcc/arm-none-eabi/11.2.1/thumb/v7e-m+fp/hard\libc_nano.a(lib_a-nano-mallstatsr.o)
                                                  c:/users/luke/desktop/mcha toolchain windows/toolchain/gcc-arm-none-eabi/bin/../lib/gcc/arm-none-eabi/11.2.1/thumb/v7e-m+fp/hard\libc_nano.a(lib_a-mstats.o)
                                                  c:/users/luke/desktop/mcha toolchain windows/toolchain/gcc-arm-none-eabi/bin/../lib/gcc/arm-none-eabi/11.2.1/thumb/v7e-m+fp/hard\libc_nano.a(lib_a-malloc.o)
                                                  c:/users/luke/desktop/mcha toolchain windows/toolchain/gcc-arm-none-eabi/bin/../lib/gcc/arm-none-eabi/11.2.1/thumb/v7e-m+fp/hard\libc_nano.a(lib_a-getc.o)
                                                  c:/users/luke/desktop/mcha toolchain windows/toolchain/gcc-arm-none-eabi/bin/../lib/gcc/arm-none-eabi/11.2.1/thumb/v7e-m+fp/hard\libc_nano.a(lib_a-getchar.o)
                                                  build/FreeRTOS/heap_useNewlib.o
                                                  build/FreeRTOS/tasks.o
                                                  build/uart.o
_init                                             c:/users/luke/desktop/mcha toolchain windows/toolchain/gcc-arm-none-eabi/bin/../lib/gcc/arm-none-eabi/11.2.1/thumb/v7e-m+fp/hard/crti.o
                                                  c:/users/luke/desktop/mcha toolchain windows/toolchain/gcc-arm-none-eabi/bin/../lib/gcc/arm-none-eabi/11.2.1/thumb/v7e-m+fp/hard\libc_nano.a(lib_a-init.o)
_init_signal                                      c:/users/luke/desktop/mcha toolchain windows/toolchain/gcc-arm-none-eabi/bin/../lib/gcc/arm-none-eabi/11.2.1/thumb/v7e-m+fp/hard\libc_nano.a(lib_a-signal.o)
_init_signal_r                                    c:/users/luke/desktop/mcha toolchain windows/toolchain/gcc-arm-none-eabi/bin/../lib/gcc/arm-none-eabi/11.2.1/thumb/v7e-m+fp/hard\libc_nano.a(lib_a-signal.o)
_iprintf_r                                        c:/users/luke/desktop/mcha toolchain windows/toolchain/gcc-arm-none-eabi/bin/../lib/gcc/arm-none-eabi/11.2.1/thumb/v7e-m+fp/hard\libc_nano.a(lib_a-printf.o)
_isatty                                           c:/users/luke/desktop/mcha toolchain windows/toolchain/gcc-arm-none-eabi/bin/../lib/gcc/arm-none-eabi/11.2.1/thumb/v7e-m+fp/hard\libnosys.a(isatty.o)
                                                  c:/users/luke/desktop/mcha toolchain windows/toolchain/gcc-arm-none-eabi/bin/../lib/gcc/arm-none-eabi/11.2.1/thumb/v7e-m+fp/hard\libc_nano.a(lib_a-isattyr.o)
_isatty_r                                         c:/users/luke/desktop/mcha toolchain windows/toolchain/gcc-arm-none-eabi/bin/../lib/gcc/arm-none-eabi/11.2.1/thumb/v7e-m+fp/hard\libc_nano.a(lib_a-isattyr.o)
                                                  c:/users/luke/desktop/mcha toolchain windows/toolchain/gcc-arm-none-eabi/bin/../lib/gcc/arm-none-eabi/11.2.1/thumb/v7e-m+fp/hard\libc_nano.a(lib_a-makebuf.o)
_kill                                             c:/users/luke/desktop/mcha toolchain windows/toolchain/gcc-arm-none-eabi/bin/../lib/gcc/arm-none-eabi/11.2.1/thumb/v7e-m+fp/hard\libnosys.a(kill.o)
                                                  c:/users/luke/desktop/mcha toolchain windows/toolchain/gcc-arm-none-eabi/bin/../lib/gcc/arm-none-eabi/11.2.1/thumb/v7e-m+fp/hard\libc_nano.a(lib_a-signalr.o)
_kill_r                                           c:/users/luke/desktop/mcha toolchain windows/toolchain/gcc-arm-none-eabi/bin/../lib/gcc/arm-none-eabi/11.2.1/thumb/v7e-m+fp/hard\libc_nano.a(lib_a-signalr.o)
                                                  c:/users/luke/desktop/mcha toolchain windows/toolchain/gcc-arm-none-eabi/bin/../lib/gcc/arm-none-eabi/11.2.1/thumb/v7e-m+fp/hard\libc_nano.a(lib_a-signal.o)
_localeconv_r                                     c:/users/luke/desktop/mcha toolchain windows/toolchain/gcc-arm-none-eabi/bin/../lib/gcc/arm-none-eabi/11.2.1/thumb/v7e-m+fp/hard\libc_nano.a(lib_a-localeconv.o)
                                                  c:/users/luke/desktop/mcha toolchain windows/toolchain/gcc-arm-none-eabi/bin/../lib/gcc/arm-none-eabi/11.2.1/thumb/v7e-m+fp/hard\libc_nano.a(lib_a-nano-vfprintf_float.o)
_lseek                                            c:/users/luke/desktop/mcha toolchain windows/toolchain/gcc-arm-none-eabi/bin/../lib/gcc/arm-none-eabi/11.2.1/thumb/v7e-m+fp/hard\libnosys.a(lseek.o)
                                                  c:/users/luke/desktop/mcha toolchain windows/toolchain/gcc-arm-none-eabi/bin/../lib/gcc/arm-none-eabi/11.2.1/thumb/v7e-m+fp/hard\libc_nano.a(lib_a-lseekr.o)
_lseek_r                                          c:/users/luke/desktop/mcha toolchain windows/toolchain/gcc-arm-none-eabi/bin/../lib/gcc/arm-none-eabi/11.2.1/thumb/v7e-m+fp/hard\libc_nano.a(lib_a-lseekr.o)
                                                  c:/users/luke/desktop/mcha toolchain windows/toolchain/gcc-arm-none-eabi/bin/../lib/gcc/arm-none-eabi/11.2.1/thumb/v7e-m+fp/hard\libc_nano.a(lib_a-stdio.o)
_mainCRTStartup                                   c:/users/luke/desktop/mcha toolchain windows/toolchain/gcc-arm-none-eabi/bin/../lib/gcc/arm-none-eabi/11.2.1/thumb/v7e-m+fp/hard/crt0.o
_mallinfo_r                                       c:/users/luke/desktop/mcha toolchain windows/toolchain/gcc-arm-none-eabi/bin/../lib/gcc/arm-none-eabi/11.2.1/thumb/v7e-m+fp/hard\libc_nano.a(lib_a-nano-mallinfor.o)
                                                  c:/users/luke/desktop/mcha toolchain windows/toolchain/gcc-arm-none-eabi/bin/../lib/gcc/arm-none-eabi/11.2.1/thumb/v7e-m+fp/hard\libc_nano.a(lib_a-nano-mallstatsr.o)
                                                  c:/users/luke/desktop/mcha toolchain windows/toolchain/gcc-arm-none-eabi/bin/../lib/gcc/arm-none-eabi/11.2.1/thumb/v7e-m+fp/hard\libc_nano.a(lib_a-mstats.o)
_malloc_r                                         c:/users/luke/desktop/mcha toolchain windows/toolchain/gcc-arm-none-eabi/bin/../lib/gcc/arm-none-eabi/11.2.1/thumb/v7e-m+fp/hard\libc_nano.a(lib_a-nano-mallocr.o)
                                                  c:/users/luke/desktop/mcha toolchain windows/toolchain/gcc-arm-none-eabi/bin/../lib/gcc/arm-none-eabi/11.2.1/thumb/v7e-m+fp/hard\libc_nano.a(lib_a-signal.o)
                                                  c:/users/luke/desktop/mcha toolchain windows/toolchain/gcc-arm-none-eabi/bin/../lib/gcc/arm-none-eabi/11.2.1/thumb/v7e-m+fp/hard\libc_nano.a(lib_a-nano-reallocr.o)
                                                  c:/users/luke/desktop/mcha toolchain windows/toolchain/gcc-arm-none-eabi/bin/../lib/gcc/arm-none-eabi/11.2.1/thumb/v7e-m+fp/hard\libc_nano.a(lib_a-fvwrite.o)
                                                  c:/users/luke/desktop/mcha toolchain windows/toolchain/gcc-arm-none-eabi/bin/../lib/gcc/arm-none-eabi/11.2.1/thumb/v7e-m+fp/hard\libc_nano.a(lib_a-nano-svfprintf.o)
                                                  c:/users/luke/desktop/mcha toolchain windows/toolchain/gcc-arm-none-eabi/bin/../lib/gcc/arm-none-eabi/11.2.1/thumb/v7e-m+fp/hard\libc_nano.a(lib_a-nano-callocr.o)
                                                  c:/users/luke/desktop/mcha toolchain windows/toolchain/gcc-arm-none-eabi/bin/../lib/gcc/arm-none-eabi/11.2.1/thumb/v7e-m+fp/hard\libc_nano.a(lib_a-makebuf.o)
                                                  c:/users/luke/desktop/mcha toolchain windows/toolchain/gcc-arm-none-eabi/bin/../lib/gcc/arm-none-eabi/11.2.1/thumb/v7e-m+fp/hard\libc_nano.a(lib_a-findfp.o)
                                                  c:/users/luke/desktop/mcha toolchain windows/toolchain/gcc-arm-none-eabi/bin/../lib/gcc/arm-none-eabi/11.2.1/thumb/v7e-m+fp/hard\libc_nano.a(lib_a-malloc.o)
_malloc_stats_r                                   c:/users/luke/desktop/mcha toolchain windows/toolchain/gcc-arm-none-eabi/bin/../lib/gcc/arm-none-eabi/11.2.1/thumb/v7e-m+fp/hard\libc_nano.a(lib_a-nano-mallstatsr.o)
                                                  c:/users/luke/desktop/mcha toolchain windows/toolchain/gcc-arm-none-eabi/bin/../lib/gcc/arm-none-eabi/11.2.1/thumb/v7e-m+fp/hard\libc_nano.a(lib_a-mstats.o)
_malloc_usable_size_r                             c:/users/luke/desktop/mcha toolchain windows/toolchain/gcc-arm-none-eabi/bin/../lib/gcc/arm-none-eabi/11.2.1/thumb/v7e-m+fp/hard\libc_nano.a(lib_a-nano-msizer.o)
                                                  c:/users/luke/desktop/mcha toolchain windows/toolchain/gcc-arm-none-eabi/bin/../lib/gcc/arm-none-eabi/11.2.1/thumb/v7e-m+fp/hard\libc_nano.a(lib_a-nano-reallocr.o)
_mallopt_r                                        c:/users/luke/desktop/mcha toolchain windows/toolchain/gcc-arm-none-eabi/bin/../lib/gcc/arm-none-eabi/11.2.1/thumb/v7e-m+fp/hard\libc_nano.a(lib_a-nano-malloptr.o)
                                                  c:/users/luke/desktop/mcha toolchain windows/toolchain/gcc-arm-none-eabi/bin/../lib/gcc/arm-none-eabi/11.2.1/thumb/v7e-m+fp/hard\libc_nano.a(lib_a-mstats.o)
_mbtowc_r                                         c:/users/luke/desktop/mcha toolchain windows/toolchain/gcc-arm-none-eabi/bin/../lib/gcc/arm-none-eabi/11.2.1/thumb/v7e-m+fp/hard\libc_nano.a(lib_a-mbtowc_r.o)
_mprec_log10                                      c:/users/luke/desktop/mcha toolchain windows/toolchain/gcc-arm-none-eabi/bin/../lib/gcc/arm-none-eabi/11.2.1/thumb/v7e-m+fp/hard\libc_nano.a(lib_a-mprec.o)
_mstats_r                                         c:/users/luke/desktop/mcha toolchain windows/toolchain/gcc-arm-none-eabi/bin/../lib/gcc/arm-none-eabi/11.2.1/thumb/v7e-m+fp/hard\libc_nano.a(lib_a-mstats.o)
_printf_common                                    c:/users/luke/desktop/mcha toolchain windows/toolchain/gcc-arm-none-eabi/bin/../lib/gcc/arm-none-eabi/11.2.1/thumb/v7e-m+fp/hard\libc_nano.a(lib_a-nano-vfprintf_i.o)
                                                  c:/users/luke/desktop/mcha toolchain windows/toolchain/gcc-arm-none-eabi/bin/../lib/gcc/arm-none-eabi/11.2.1/thumb/v7e-m+fp/hard\libc_nano.a(lib_a-nano-vfprintf_float.o)
_printf_float                                     c:/users/luke/desktop/mcha toolchain windows/toolchain/gcc-arm-none-eabi/bin/../lib/gcc/arm-none-eabi/11.2.1/thumb/v7e-m+fp/hard\libc_nano.a(lib_a-nano-vfprintf_float.o)
                                                  c:/users/luke/desktop/mcha toolchain windows/toolchain/gcc-arm-none-eabi/bin/../lib/gcc/arm-none-eabi/11.2.1/thumb/v7e-m+fp/hard\libc_nano.a(lib_a-nano-vfprintf.o)
                                                  c:/users/luke/desktop/mcha toolchain windows/toolchain/gcc-arm-none-eabi/bin/../lib/gcc/arm-none-eabi/11.2.1/thumb/v7e-m+fp/hard\libc_nano.a(lib_a-nano-svfprintf.o)
_printf_i                                         c:/users/luke/desktop/mcha toolchain windows/toolchain/gcc-arm-none-eabi/bin/../lib/gcc/arm-none-eabi/11.2.1/thumb/v7e-m+fp/hard\libc_nano.a(lib_a-nano-vfprintf_i.o)
                                                  c:/users/luke/desktop/mcha toolchain windows/toolchain/gcc-arm-none-eabi/bin/../lib/gcc/arm-none-eabi/11.2.1/thumb/v7e-m+fp/hard\libc_nano.a(lib_a-nano-vfprintf.o)
                                                  c:/users/luke/desktop/mcha toolchain windows/toolchain/gcc-arm-none-eabi/bin/../lib/gcc/arm-none-eabi/11.2.1/thumb/v7e-m+fp/hard\libc_nano.a(lib_a-nano-svfprintf.o)
_printf_r                                         c:/users/luke/desktop/mcha toolchain windows/toolchain/gcc-arm-none-eabi/bin/../lib/gcc/arm-none-eabi/11.2.1/thumb/v7e-m+fp/hard\libc_nano.a(lib_a-printf.o)
_raise_r                                          c:/users/luke/desktop/mcha toolchain windows/toolchain/gcc-arm-none-eabi/bin/../lib/gcc/arm-none-eabi/11.2.1/thumb/v7e-m+fp/hard\libc_nano.a(lib_a-signal.o)
_read                                             build/uart.o
                                                  c:/users/luke/desktop/mcha toolchain windows/toolchain/gcc-arm-none-eabi/bin/../lib/gcc/arm-none-eabi/11.2.1/thumb/v7e-m+fp/hard\libc_nano.a(lib_a-readr.o)
_read_r                                           c:/users/luke/desktop/mcha toolchain windows/toolchain/gcc-arm-none-eabi/bin/../lib/gcc/arm-none-eabi/11.2.1/thumb/v7e-m+fp/hard\libc_nano.a(lib_a-readr.o)
                                                  c:/users/luke/desktop/mcha toolchain windows/toolchain/gcc-arm-none-eabi/bin/../lib/gcc/arm-none-eabi/11.2.1/thumb/v7e-m+fp/hard\libc_nano.a(lib_a-stdio.o)
_realloc_r                                        c:/users/luke/desktop/mcha toolchain windows/toolchain/gcc-arm-none-eabi/bin/../lib/gcc/arm-none-eabi/11.2.1/thumb/v7e-m+fp/hard\libc_nano.a(lib_a-nano-reallocr.o)
                                                  c:/users/luke/desktop/mcha toolchain windows/toolchain/gcc-arm-none-eabi/bin/../lib/gcc/arm-none-eabi/11.2.1/thumb/v7e-m+fp/hard\libc_nano.a(lib_a-fvwrite.o)
                                                  c:/users/luke/desktop/mcha toolchain windows/toolchain/gcc-arm-none-eabi/bin/../lib/gcc/arm-none-eabi/11.2.1/thumb/v7e-m+fp/hard\libc_nano.a(lib_a-nano-svfprintf.o)
_reclaim_reent                                    c:/users/luke/desktop/mcha toolchain windows/toolchain/gcc-arm-none-eabi/bin/../lib/gcc/arm-none-eabi/11.2.1/thumb/v7e-m+fp/hard\libc_nano.a(lib_a-reent.o)
                                                  build/FreeRTOS/tasks.o
_sbrk                                             build/FreeRTOS/heap_useNewlib.o
                                                  c:/users/luke/desktop/mcha toolchain windows/toolchain/gcc-arm-none-eabi/bin/../lib/gcc/arm-none-eabi/11.2.1/thumb/v7e-m+fp/hard\libc_nano.a(lib_a-sbrkr.o)
_sbrk_r                                           c:/users/luke/desktop/mcha toolchain windows/toolchain/gcc-arm-none-eabi/bin/../lib/gcc/arm-none-eabi/11.2.1/thumb/v7e-m+fp/hard\libc_nano.a(lib_a-sbrkr.o)
                                                  c:/users/luke/desktop/mcha toolchain windows/toolchain/gcc-arm-none-eabi/bin/../lib/gcc/arm-none-eabi/11.2.1/thumb/v7e-m+fp/hard\libc_nano.a(lib_a-nano-mallocr.o)
                                                  c:/users/luke/desktop/mcha toolchain windows/toolchain/gcc-arm-none-eabi/bin/../lib/gcc/arm-none-eabi/11.2.1/thumb/v7e-m+fp/hard\libc_nano.a(lib_a-nano-mallinfor.o)
_sbss                                             build/startup_stm32f446xx.o
_scanf_float                                      c:/users/luke/desktop/mcha toolchain windows/toolchain/gcc-arm-none-eabi/bin/../lib/gcc/arm-none-eabi/11.2.1/thumb/v7e-m+fp/hard\libc_nano.a(lib_a-nano-vfscanf_float.o)
_sdata                                            build/startup_stm32f446xx.o
_setlocale_r                                      c:/users/luke/desktop/mcha toolchain windows/toolchain/gcc-arm-none-eabi/bin/../lib/gcc/arm-none-eabi/11.2.1/thumb/v7e-m+fp/hard\libc_nano.a(lib_a-locale.o)
_sidata                                           build/startup_stm32f446xx.o
_signal_r                                         c:/users/luke/desktop/mcha toolchain windows/toolchain/gcc-arm-none-eabi/bin/../lib/gcc/arm-none-eabi/11.2.1/thumb/v7e-m+fp/hard\libc_nano.a(lib_a-signal.o)
_siprintf_r                                       c:/users/luke/desktop/mcha toolchain windows/toolchain/gcc-arm-none-eabi/bin/../lib/gcc/arm-none-eabi/11.2.1/thumb/v7e-m+fp/hard\libc_nano.a(lib_a-sprintf.o)
_sprintf_r                                        c:/users/luke/desktop/mcha toolchain windows/toolchain/gcc-arm-none-eabi/bin/../lib/gcc/arm-none-eabi/11.2.1/thumb/v7e-m+fp/hard\libc_nano.a(lib_a-sprintf.o)
_stack_init                                       c:/users/luke/desktop/mcha toolchain windows/toolchain/gcc-arm-none-eabi/bin/../lib/gcc/arm-none-eabi/11.2.1/thumb/v7e-m+fp/hard/crt0.o
_start                                            c:/users/luke/desktop/mcha toolchain windows/toolchain/gcc-arm-none-eabi/bin/../lib/gcc/arm-none-eabi/11.2.1/thumb/v7e-m+fp/hard/crt0.o
_strtod_l                                         c:/users/luke/desktop/mcha toolchain windows/toolchain/gcc-arm-none-eabi/bin/../lib/gcc/arm-none-eabi/11.2.1/thumb/v7e-m+fp/hard\libc_nano.a(lib_a-strtod.o)
_strtod_r                                         c:/users/luke/desktop/mcha toolchain windows/toolchain/gcc-arm-none-eabi/bin/../lib/gcc/arm-none-eabi/11.2.1/thumb/v7e-m+fp/hard\libc_nano.a(lib_a-strtod.o)
                                                  c:/users/luke/desktop/mcha toolchain windows/toolchain/gcc-arm-none-eabi/bin/../lib/gcc/arm-none-eabi/11.2.1/thumb/v7e-m+fp/hard\libc_nano.a(lib_a-nano-vfscanf_float.o)
_strtol_r                                         c:/users/luke/desktop/mcha toolchain windows/toolchain/gcc-arm-none-eabi/bin/../lib/gcc/arm-none-eabi/11.2.1/thumb/v7e-m+fp/hard\libc_nano.a(lib_a-strtol.o)
                                                  c:/users/luke/desktop/mcha toolchain windows/toolchain/gcc-arm-none-eabi/bin/../lib/gcc/arm-none-eabi/11.2.1/thumb/v7e-m+fp/hard\libc_nano.a(lib_a-nano-vfscanf_float.o)
_svfiprintf_r                                     c:/users/luke/desktop/mcha toolchain windows/toolchain/gcc-arm-none-eabi/bin/../lib/gcc/arm-none-eabi/11.2.1/thumb/v7e-m+fp/hard\libc_nano.a(lib_a-nano-svfprintf.o)
_svfprintf_r                                      c:/users/luke/desktop/mcha toolchain windows/toolchain/gcc-arm-none-eabi/bin/../lib/gcc/arm-none-eabi/11.2.1/thumb/v7e-m+fp/hard\libc_nano.a(lib_a-nano-svfprintf.o)
                                                  c:/users/luke/desktop/mcha toolchain windows/toolchain/gcc-arm-none-eabi/bin/../lib/gcc/arm-none-eabi/11.2.1/thumb/v7e-m+fp/hard\libc_nano.a(lib_a-sprintf.o)
_uart_error                                       build/uart.o
_uart_rxne_isr                                    build/uart.o
_uart_txe_isr                                     build/uart.o
_vfiprintf_r                                      c:/users/luke/desktop/mcha toolchain windows/toolchain/gcc-arm-none-eabi/bin/../lib/gcc/arm-none-eabi/11.2.1/thumb/v7e-m+fp/hard\libc_nano.a(lib_a-nano-vfprintf.o)
_vfprintf_r                                       c:/users/luke/desktop/mcha toolchain windows/toolchain/gcc-arm-none-eabi/bin/../lib/gcc/arm-none-eabi/11.2.1/thumb/v7e-m+fp/hard\libc_nano.a(lib_a-nano-vfprintf.o)
                                                  c:/users/luke/desktop/mcha toolchain windows/toolchain/gcc-arm-none-eabi/bin/../lib/gcc/arm-none-eabi/11.2.1/thumb/v7e-m+fp/hard\libc_nano.a(lib_a-fprintf.o)
                                                  c:/users/luke/desktop/mcha toolchain windows/toolchain/gcc-arm-none-eabi/bin/../lib/gcc/arm-none-eabi/11.2.1/thumb/v7e-m+fp/hard\libc_nano.a(lib_a-vprintf.o)
                                                  c:/users/luke/desktop/mcha toolchain windows/toolchain/gcc-arm-none-eabi/bin/../lib/gcc/arm-none-eabi/11.2.1/thumb/v7e-m+fp/hard\libc_nano.a(lib_a-printf.o)
_viprintf_r                                       c:/users/luke/desktop/mcha toolchain windows/toolchain/gcc-arm-none-eabi/bin/../lib/gcc/arm-none-eabi/11.2.1/thumb/v7e-m+fp/hard\libc_nano.a(lib_a-vprintf.o)
_vprintf_r                                        c:/users/luke/desktop/mcha toolchain windows/toolchain/gcc-arm-none-eabi/bin/../lib/gcc/arm-none-eabi/11.2.1/thumb/v7e-m+fp/hard\libc_nano.a(lib_a-vprintf.o)
_wctomb_r                                         c:/users/luke/desktop/mcha toolchain windows/toolchain/gcc-arm-none-eabi/bin/../lib/gcc/arm-none-eabi/11.2.1/thumb/v7e-m+fp/hard\libc_nano.a(lib_a-wctomb_r.o)
_write                                            build/uart.o
                                                  c:/users/luke/desktop/mcha toolchain windows/toolchain/gcc-arm-none-eabi/bin/../lib/gcc/arm-none-eabi/11.2.1/thumb/v7e-m+fp/hard\libc_nano.a(lib_a-writer.o)
_write_r                                          c:/users/luke/desktop/mcha toolchain windows/toolchain/gcc-arm-none-eabi/bin/../lib/gcc/arm-none-eabi/11.2.1/thumb/v7e-m+fp/hard\libc_nano.a(lib_a-writer.o)
                                                  c:/users/luke/desktop/mcha toolchain windows/toolchain/gcc-arm-none-eabi/bin/../lib/gcc/arm-none-eabi/11.2.1/thumb/v7e-m+fp/hard\libc_nano.a(lib_a-stdio.o)
abort                                             c:/users/luke/desktop/mcha toolchain windows/toolchain/gcc-arm-none-eabi/bin/../lib/gcc/arm-none-eabi/11.2.1/thumb/v7e-m+fp/hard\libc_nano.a(lib_a-abort.o)
                                                  c:/users/luke/desktop/mcha toolchain windows/toolchain/gcc-arm-none-eabi/bin/../lib/gcc/arm-none-eabi/11.2.1/thumb/v7e-m+fp/hard\libc_nano.a(lib_a-assert.o)
atexit                                            c:/users/luke/desktop/mcha toolchain windows/toolchain/gcc-arm-none-eabi/bin/../lib/gcc/arm-none-eabi/11.2.1/thumb/v7e-m+fp/hard/crt0.o
clb_consume_char                                  build/cmd_line_buffer.o
clb_consume_str                                   build/cmd_line_buffer.o
clb_delc                                          build/cmd_line_buffer.o
clb_gets                                          build/cmd_line_buffer.o
clb_gets_at                                       build/cmd_line_buffer.o
clb_init                                          build/cmd_line_buffer.o
                                                  build/cmd_task.o
clb_is_cmd_ready                                  build/cmd_line_buffer.o
clb_is_empty                                      build/cmd_line_buffer.o
clb_is_full                                       build/cmd_line_buffer.o
clb_process                                       build/cmd_line_buffer.o
                                                  build/cmd_task.o
clb_putc                                          build/cmd_line_buffer.o
cleanup_glue                                      c:/users/luke/desktop/mcha toolchain windows/toolchain/gcc-arm-none-eabi/bin/../lib/gcc/arm-none-eabi/11.2.1/thumb/v7e-m+fp/hard\libc_nano.a(lib_a-reent.o)
cmdTask_attr                                      build/cmd_task.o
cmd_parse                                         build/cmd_parser.o
                                                  build/cmd_line_buffer.o
cmd_task_init                                     build/cmd_task.o
                                                  build/main.o
dummy_task_deinit                                 build/dummy_task.o
dummy_task_init                                   build/dummy_task.o
                                                  build/main.o
dummy_task_is_running                             build/dummy_task.o
dummy_task_start                                  build/dummy_task.o
dummy_task_stop                                   build/dummy_task.o
eTaskGetState                                     build/FreeRTOS/tasks.o
                                                  build/FreeRTOS/cmsis_os2.o
errno                                             c:/users/luke/desktop/mcha toolchain windows/toolchain/gcc-arm-none-eabi/bin/../lib/gcc/arm-none-eabi/11.2.1/thumb/v7e-m+fp/hard\libc_nano.a(lib_a-reent.o)
                                                  c:/users/luke/desktop/mcha toolchain windows/toolchain/gcc-arm-none-eabi/bin/../lib/gcc/arm-none-eabi/11.2.1/thumb/v7e-m+fp/hard\libnosys.a(lseek.o)
                                                  c:/users/luke/desktop/mcha toolchain windows/toolchain/gcc-arm-none-eabi/bin/../lib/gcc/arm-none-eabi/11.2.1/thumb/v7e-m+fp/hard\libnosys.a(kill.o)
                                                  c:/users/luke/desktop/mcha toolchain windows/toolchain/gcc-arm-none-eabi/bin/../lib/gcc/arm-none-eabi/11.2.1/thumb/v7e-m+fp/hard\libnosys.a(isatty.o)
                                                  c:/users/luke/desktop/mcha toolchain windows/toolchain/gcc-arm-none-eabi/bin/../lib/gcc/arm-none-eabi/11.2.1/thumb/v7e-m+fp/hard\libnosys.a(getpid.o)
                                                  c:/users/luke/desktop/mcha toolchain windows/toolchain/gcc-arm-none-eabi/bin/../lib/gcc/arm-none-eabi/11.2.1/thumb/v7e-m+fp/hard\libnosys.a(fstat.o)
                                                  c:/users/luke/desktop/mcha toolchain windows/toolchain/gcc-arm-none-eabi/bin/../lib/gcc/arm-none-eabi/11.2.1/thumb/v7e-m+fp/hard\libnosys.a(close.o)
                                                  c:/users/luke/desktop/mcha toolchain windows/toolchain/gcc-arm-none-eabi/bin/../lib/gcc/arm-none-eabi/11.2.1/thumb/v7e-m+fp/hard\libc_nano.a(lib_a-signalr.o)
                                                  c:/users/luke/desktop/mcha toolchain windows/toolchain/gcc-arm-none-eabi/bin/../lib/gcc/arm-none-eabi/11.2.1/thumb/v7e-m+fp/hard\libc_nano.a(lib_a-readr.o)
                                                  c:/users/luke/desktop/mcha toolchain windows/toolchain/gcc-arm-none-eabi/bin/../lib/gcc/arm-none-eabi/11.2.1/thumb/v7e-m+fp/hard\libc_nano.a(lib_a-lseekr.o)
                                                  c:/users/luke/desktop/mcha toolchain windows/toolchain/gcc-arm-none-eabi/bin/../lib/gcc/arm-none-eabi/11.2.1/thumb/v7e-m+fp/hard\libc_nano.a(lib_a-isattyr.o)
                                                  c:/users/luke/desktop/mcha toolchain windows/toolchain/gcc-arm-none-eabi/bin/../lib/gcc/arm-none-eabi/11.2.1/thumb/v7e-m+fp/hard\libc_nano.a(lib_a-fstatr.o)
                                                  c:/users/luke/desktop/mcha toolchain windows/toolchain/gcc-arm-none-eabi/bin/../lib/gcc/arm-none-eabi/11.2.1/thumb/v7e-m+fp/hard\libc_nano.a(lib_a-closer.o)
                                                  c:/users/luke/desktop/mcha toolchain windows/toolchain/gcc-arm-none-eabi/bin/../lib/gcc/arm-none-eabi/11.2.1/thumb/v7e-m+fp/hard\libc_nano.a(lib_a-writer.o)
                                                  c:/users/luke/desktop/mcha toolchain windows/toolchain/gcc-arm-none-eabi/bin/../lib/gcc/arm-none-eabi/11.2.1/thumb/v7e-m+fp/hard\libc_nano.a(lib_a-sbrkr.o)
exit                                              c:/users/luke/desktop/mcha toolchain windows/toolchain/gcc-arm-none-eabi/bin/../lib/gcc/arm-none-eabi/11.2.1/thumb/v7e-m+fp/hard\libc_nano.a(lib_a-exit.o)
                                                  c:/users/luke/desktop/mcha toolchain windows/toolchain/gcc-arm-none-eabi/bin/../lib/gcc/arm-none-eabi/11.2.1/thumb/v7e-m+fp/hard/crt0.o
fflush                                            c:/users/luke/desktop/mcha toolchain windows/toolchain/gcc-arm-none-eabi/bin/../lib/gcc/arm-none-eabi/11.2.1/thumb/v7e-m+fp/hard\libc_nano.a(lib_a-fflush.o)
                                                  c:/users/luke/desktop/mcha toolchain windows/toolchain/gcc-arm-none-eabi/bin/../lib/gcc/arm-none-eabi/11.2.1/thumb/v7e-m+fp/hard\libc_nano.a(lib_a-refill.o)
fiprintf                                          c:/users/luke/desktop/mcha toolchain windows/toolchain/gcc-arm-none-eabi/bin/../lib/gcc/arm-none-eabi/11.2.1/thumb/v7e-m+fp/hard\libc_nano.a(lib_a-fprintf.o)
                                                  c:/users/luke/desktop/mcha toolchain windows/toolchain/gcc-arm-none-eabi/bin/../lib/gcc/arm-none-eabi/11.2.1/thumb/v7e-m+fp/hard\libc_nano.a(lib_a-assert.o)
                                                  c:/users/luke/desktop/mcha toolchain windows/toolchain/gcc-arm-none-eabi/bin/../lib/gcc/arm-none-eabi/11.2.1/thumb/v7e-m+fp/hard\libc_nano.a(lib_a-nano-mallstatsr.o)
                                                  c:/users/luke/desktop/mcha toolchain windows/toolchain/gcc-arm-none-eabi/bin/../lib/gcc/arm-none-eabi/11.2.1/thumb/v7e-m+fp/hard\libc_nano.a(lib_a-mstats.o)
fprintf                                           c:/users/luke/desktop/mcha toolchain windows/toolchain/gcc-arm-none-eabi/bin/../lib/gcc/arm-none-eabi/11.2.1/thumb/v7e-m+fp/hard\libc_nano.a(lib_a-fprintf.o)
free                                              c:/users/luke/desktop/mcha toolchain windows/toolchain/gcc-arm-none-eabi/bin/../lib/gcc/arm-none-eabi/11.2.1/thumb/v7e-m+fp/hard\libc_nano.a(lib_a-malloc.o)
                                                  build/FreeRTOS/heap_useNewlib.o
g_pfnVectors                                      build/startup_stm32f446xx.o
getc                                              c:/users/luke/desktop/mcha toolchain windows/toolchain/gcc-arm-none-eabi/bin/../lib/gcc/arm-none-eabi/11.2.1/thumb/v7e-m+fp/hard\libc_nano.a(lib_a-getc.o)
getchar                                           c:/users/luke/desktop/mcha toolchain windows/toolchain/gcc-arm-none-eabi/bin/../lib/gcc/arm-none-eabi/11.2.1/thumb/v7e-m+fp/hard\libc_nano.a(lib_a-getchar.o)
                                                  build/cmd_line_buffer.o
hardware_init_hook                                c:/users/luke/desktop/mcha toolchain windows/toolchain/gcc-arm-none-eabi/bin/../lib/gcc/arm-none-eabi/11.2.1/thumb/v7e-m+fp/hard/crt0.o
heartbeat_cmd                                     build/heartbeat_cmd.o
                                                  build/cmd_parser.o
heartbeat_task_deinit                             build/heartbeat_task.o
heartbeat_task_init                               build/heartbeat_task.o
                                                  build/main.o
heartbeat_task_is_running                         build/heartbeat_task.o
                                                  build/heartbeat_cmd.o
heartbeat_task_start                              build/heartbeat_task.o
                                                  build/heartbeat_cmd.o
heartbeat_task_stop                               build/heartbeat_task.o
                                                  build/heartbeat_cmd.o
iprintf                                           c:/users/luke/desktop/mcha toolchain windows/toolchain/gcc-arm-none-eabi/bin/../lib/gcc/arm-none-eabi/11.2.1/thumb/v7e-m+fp/hard\libc_nano.a(lib_a-printf.o)
localeconv                                        c:/users/luke/desktop/mcha toolchain windows/toolchain/gcc-arm-none-eabi/bin/../lib/gcc/arm-none-eabi/11.2.1/thumb/v7e-m+fp/hard\libc_nano.a(lib_a-localeconv.o)
main                                              build/main.o
                                                  build/startup_stm32f446xx.o
                                                  c:/users/luke/desktop/mcha toolchain windows/toolchain/gcc-arm-none-eabi/bin/../lib/gcc/arm-none-eabi/11.2.1/thumb/v7e-m+fp/hard/crt0.o
mallinfo                                          c:/users/luke/desktop/mcha toolchain windows/toolchain/gcc-arm-none-eabi/bin/../lib/gcc/arm-none-eabi/11.2.1/thumb/v7e-m+fp/hard\libc_nano.a(lib_a-mstats.o)
                                                  build/FreeRTOS/heap_useNewlib.o
malloc                                            c:/users/luke/desktop/mcha toolchain windows/toolchain/gcc-arm-none-eabi/bin/../lib/gcc/arm-none-eabi/11.2.1/thumb/v7e-m+fp/hard\libc_nano.a(lib_a-malloc.o)
                                                  c:/users/luke/desktop/mcha toolchain windows/toolchain/gcc-arm-none-eabi/bin/../lib/gcc/arm-none-eabi/11.2.1/thumb/v7e-m+fp/hard\libc_nano.a(lib_a-mprec.o)
                                                  c:/users/luke/desktop/mcha toolchain windows/toolchain/gcc-arm-none-eabi/bin/../lib/gcc/arm-none-eabi/11.2.1/thumb/v7e-m+fp/hard\libc_nano.a(lib_a-dtoa.o)
                                                  c:/users/luke/desktop/mcha toolchain windows/toolchain/gcc-arm-none-eabi/bin/../lib/gcc/arm-none-eabi/11.2.1/thumb/v7e-m+fp/hard\libc_nano.a(lib_a-setvbuf.o)
                                                  build/FreeRTOS/heap_useNewlib.o
malloc_stats                                      c:/users/luke/desktop/mcha toolchain windows/toolchain/gcc-arm-none-eabi/bin/../lib/gcc/arm-none-eabi/11.2.1/thumb/v7e-m+fp/hard\libc_nano.a(lib_a-mstats.o)
mallopt                                           c:/users/luke/desktop/mcha toolchain windows/toolchain/gcc-arm-none-eabi/bin/../lib/gcc/arm-none-eabi/11.2.1/thumb/v7e-m+fp/hard\libc_nano.a(lib_a-mstats.o)
memchr                                            c:/users/luke/desktop/mcha toolchain windows/toolchain/gcc-arm-none-eabi/bin/../lib/gcc/arm-none-eabi/11.2.1/thumb/v7e-m+fp/hard\libc_nano.a(lib_a-memchr.o)
                                                  c:/users/luke/desktop/mcha toolchain windows/toolchain/gcc-arm-none-eabi/bin/../lib/gcc/arm-none-eabi/11.2.1/thumb/v7e-m+fp/hard\libc_nano.a(lib_a-fvwrite.o)
                                                  c:/users/luke/desktop/mcha toolchain windows/toolchain/gcc-arm-none-eabi/bin/../lib/gcc/arm-none-eabi/11.2.1/thumb/v7e-m+fp/hard\libc_nano.a(lib_a-nano-vfprintf.o)
                                                  c:/users/luke/desktop/mcha toolchain windows/toolchain/gcc-arm-none-eabi/bin/../lib/gcc/arm-none-eabi/11.2.1/thumb/v7e-m+fp/hard\libc_nano.a(lib_a-nano-svfprintf.o)
                                                  c:/users/luke/desktop/mcha toolchain windows/toolchain/gcc-arm-none-eabi/bin/../lib/gcc/arm-none-eabi/11.2.1/thumb/v7e-m+fp/hard\libc_nano.a(lib_a-nano-vfprintf_i.o)
memcpy                                            c:/users/luke/desktop/mcha toolchain windows/toolchain/gcc-arm-none-eabi/bin/../lib/gcc/arm-none-eabi/11.2.1/thumb/v7e-m+fp/hard\libc_nano.a(lib_a-memcpy-stub.o)
                                                  c:/users/luke/desktop/mcha toolchain windows/toolchain/gcc-arm-none-eabi/bin/../lib/gcc/arm-none-eabi/11.2.1/thumb/v7e-m+fp/hard\libc_nano.a(lib_a-nano-reallocr.o)
                                                  c:/users/luke/desktop/mcha toolchain windows/toolchain/gcc-arm-none-eabi/bin/../lib/gcc/arm-none-eabi/11.2.1/thumb/v7e-m+fp/hard\libc_nano.a(lib_a-fvwrite.o)
                                                  c:/users/luke/desktop/mcha toolchain windows/toolchain/gcc-arm-none-eabi/bin/../lib/gcc/arm-none-eabi/11.2.1/thumb/v7e-m+fp/hard\libc_nano.a(lib_a-nano-svfprintf.o)
                                                  c:/users/luke/desktop/mcha toolchain windows/toolchain/gcc-arm-none-eabi/bin/../lib/gcc/arm-none-eabi/11.2.1/thumb/v7e-m+fp/hard\libc_nano.a(lib_a-mprec.o)
                                                  c:/users/luke/desktop/mcha toolchain windows/toolchain/gcc-arm-none-eabi/bin/../lib/gcc/arm-none-eabi/11.2.1/thumb/v7e-m+fp/hard\libc_nano.a(lib_a-gdtoa-gethex.o)
                                                  c:/users/luke/desktop/mcha toolchain windows/toolchain/gcc-arm-none-eabi/bin/../lib/gcc/arm-none-eabi/11.2.1/thumb/v7e-m+fp/hard\libc_nano.a(lib_a-dtoa.o)
                                                  c:/users/luke/desktop/mcha toolchain windows/toolchain/gcc-arm-none-eabi/bin/../lib/gcc/arm-none-eabi/11.2.1/thumb/v7e-m+fp/hard\libc_nano.a(lib_a-strtod.o)
                                                  build/FreeRTOS/cmsis_os2.o
                                                  build/FreeRTOS/stream_buffer.o
                                                  build/FreeRTOS/queue.o
memmove                                           c:/users/luke/desktop/mcha toolchain windows/toolchain/gcc-arm-none-eabi/bin/../lib/gcc/arm-none-eabi/11.2.1/thumb/v7e-m+fp/hard\libc_nano.a(lib_a-memmove.o)
                                                  c:/users/luke/desktop/mcha toolchain windows/toolchain/gcc-arm-none-eabi/bin/../lib/gcc/arm-none-eabi/11.2.1/thumb/v7e-m+fp/hard\libc_nano.a(lib_a-fvwrite.o)
                                                  c:/users/luke/desktop/mcha toolchain windows/toolchain/gcc-arm-none-eabi/bin/../lib/gcc/arm-none-eabi/11.2.1/thumb/v7e-m+fp/hard\libc_nano.a(lib_a-nano-svfprintf.o)
memset                                            c:/users/luke/desktop/mcha toolchain windows/toolchain/gcc-arm-none-eabi/bin/../lib/gcc/arm-none-eabi/11.2.1/thumb/v7e-m+fp/hard\libc_nano.a(lib_a-memset.o)
                                                  c:/users/luke/desktop/mcha toolchain windows/toolchain/gcc-arm-none-eabi/bin/../lib/gcc/arm-none-eabi/11.2.1/thumb/v7e-m+fp/hard\libc_nano.a(lib_a-nano-callocr.o)
                                                  c:/users/luke/desktop/mcha toolchain windows/toolchain/gcc-arm-none-eabi/bin/../lib/gcc/arm-none-eabi/11.2.1/thumb/v7e-m+fp/hard\libc_nano.a(lib_a-findfp.o)
                                                  build/FreeRTOS/stream_buffer.o
                                                  build/FreeRTOS/tasks.o
                                                  c:/users/luke/desktop/mcha toolchain windows/toolchain/gcc-arm-none-eabi/bin/../lib/gcc/arm-none-eabi/11.2.1/thumb/v7e-m+fp/hard/crt0.o
mstats                                            c:/users/luke/desktop/mcha toolchain windows/toolchain/gcc-arm-none-eabi/bin/../lib/gcc/arm-none-eabi/11.2.1/thumb/v7e-m+fp/hard\libc_nano.a(lib_a-mstats.o)
nan                                               c:/users/luke/desktop/mcha toolchain windows/toolchain/gcc-arm-none-eabi/bin/../lib/gcc/arm-none-eabi/11.2.1/thumb/v7e-m+fp/hard\libc_nano.a(lib_a-s_nan.o)
                                                  c:/users/luke/desktop/mcha toolchain windows/toolchain/gcc-arm-none-eabi/bin/../lib/gcc/arm-none-eabi/11.2.1/thumb/v7e-m+fp/hard\libc_nano.a(lib_a-strtod.o)
nanf                                              c:/users/luke/desktop/mcha toolchain windows/toolchain/gcc-arm-none-eabi/bin/../lib/gcc/arm-none-eabi/11.2.1/thumb/v7e-m+fp/hard\libc_nano.a(lib_a-sf_nan.o)
                                                  c:/users/luke/desktop/mcha toolchain windows/toolchain/gcc-arm-none-eabi/bin/../lib/gcc/arm-none-eabi/11.2.1/thumb/v7e-m+fp/hard\libc_nano.a(lib_a-strtod.o)
                                                  c:/users/luke/desktop/mcha toolchain windows/toolchain/gcc-arm-none-eabi/bin/../lib/gcc/arm-none-eabi/11.2.1/thumb/v7e-m+fp/hard\libc_nano.a(lib_a-nano-vfscanf_float.o)
osDelay                                           build/FreeRTOS/cmsis_os2.o
                                                  build/dummy_task.o
                                                  build/heartbeat_task.o
osDelayUntil                                      build/FreeRTOS/cmsis_os2.o
osEventFlagsClear                                 build/FreeRTOS/cmsis_os2.o
osEventFlagsDelete                                build/FreeRTOS/cmsis_os2.o
osEventFlagsGet                                   build/FreeRTOS/cmsis_os2.o
osEventFlagsNew                                   build/FreeRTOS/cmsis_os2.o
osEventFlagsSet                                   build/FreeRTOS/cmsis_os2.o
osEventFlagsWait                                  build/FreeRTOS/cmsis_os2.o
osKernelGetInfo                                   build/FreeRTOS/cmsis_os2.o
osKernelGetState                                  build/FreeRTOS/cmsis_os2.o
osKernelGetSysTimerCount                          build/FreeRTOS/cmsis_os2.o
osKernelGetSysTimerFreq                           build/FreeRTOS/cmsis_os2.o
osKernelGetTickCount                              build/FreeRTOS/cmsis_os2.o
osKernelGetTickFreq                               build/FreeRTOS/cmsis_os2.o
osKernelInitialize                                build/FreeRTOS/cmsis_os2.o
                                                  build/main.o
osKernelLock                                      build/FreeRTOS/cmsis_os2.o
osKernelRestoreLock                               build/FreeRTOS/cmsis_os2.o
osKernelStart                                     build/FreeRTOS/cmsis_os2.o
                                                  build/main.o
osKernelUnlock                                    build/FreeRTOS/cmsis_os2.o
osMemoryPoolAlloc                                 build/FreeRTOS/cmsis_os2.o
osMemoryPoolDelete                                build/FreeRTOS/cmsis_os2.o
osMemoryPoolFree                                  build/FreeRTOS/cmsis_os2.o
osMemoryPoolGetBlockSize                          build/FreeRTOS/cmsis_os2.o
osMemoryPoolGetCapacity                           build/FreeRTOS/cmsis_os2.o
osMemoryPoolGetCount                              build/FreeRTOS/cmsis_os2.o
osMemoryPoolGetName                               build/FreeRTOS/cmsis_os2.o
osMemoryPoolGetSpace                              build/FreeRTOS/cmsis_os2.o
osMemoryPoolNew                                   build/FreeRTOS/cmsis_os2.o
osMessageQueueDelete                              build/FreeRTOS/cmsis_os2.o
osMessageQueueGet                                 build/FreeRTOS/cmsis_os2.o
                                                  build/uart.o
osMessageQueueGetCapacity                         build/FreeRTOS/cmsis_os2.o
osMessageQueueGetCount                            build/FreeRTOS/cmsis_os2.o
osMessageQueueGetMsgSize                          build/FreeRTOS/cmsis_os2.o
osMessageQueueGetSpace                            build/FreeRTOS/cmsis_os2.o
osMessageQueueNew                                 build/FreeRTOS/cmsis_os2.o
                                                  build/uart.o
osMessageQueuePut                                 build/FreeRTOS/cmsis_os2.o
                                                  build/uart.o
osMessageQueueReset                               build/FreeRTOS/cmsis_os2.o
osMutexAcquire                                    build/FreeRTOS/cmsis_os2.o
                                                  build/uart.o
osMutexDelete                                     build/FreeRTOS/cmsis_os2.o
osMutexGetOwner                                   build/FreeRTOS/cmsis_os2.o
osMutexNew                                        build/FreeRTOS/cmsis_os2.o
                                                  build/uart.o
osMutexRelease                                    build/FreeRTOS/cmsis_os2.o
                                                  build/uart.o
osSemaphoreAcquire                                build/FreeRTOS/cmsis_os2.o
osSemaphoreDelete                                 build/FreeRTOS/cmsis_os2.o
osSemaphoreGetCount                               build/FreeRTOS/cmsis_os2.o
osSemaphoreNew                                    build/FreeRTOS/cmsis_os2.o
osSemaphoreRelease                                build/FreeRTOS/cmsis_os2.o
osThreadEnumerate                                 build/FreeRTOS/cmsis_os2.o
osThreadExit                                      build/FreeRTOS/cmsis_os2.o
osThreadFlagsClear                                build/FreeRTOS/cmsis_os2.o
osThreadFlagsGet                                  build/FreeRTOS/cmsis_os2.o
osThreadFlagsSet                                  build/FreeRTOS/cmsis_os2.o
osThreadFlagsWait                                 build/FreeRTOS/cmsis_os2.o
osThreadGetCount                                  build/FreeRTOS/cmsis_os2.o
osThreadGetId                                     build/FreeRTOS/cmsis_os2.o
osThreadGetName                                   build/FreeRTOS/cmsis_os2.o
osThreadGetPriority                               build/FreeRTOS/cmsis_os2.o
osThreadGetStackSpace                             build/FreeRTOS/cmsis_os2.o
osThreadGetState                                  build/FreeRTOS/cmsis_os2.o
osThreadNew                                       build/FreeRTOS/cmsis_os2.o
                                                  build/dummy_task.o
                                                  build/heartbeat_task.o
                                                  build/cmd_task.o
osThreadResume                                    build/FreeRTOS/cmsis_os2.o
                                                  build/dummy_task.o
                                                  build/heartbeat_task.o
osThreadSetPriority                               build/FreeRTOS/cmsis_os2.o
osThreadSuspend                                   build/FreeRTOS/cmsis_os2.o
                                                  build/dummy_task.o
                                                  build/heartbeat_task.o
osThreadTerminate                                 build/FreeRTOS/cmsis_os2.o
osThreadYield                                     build/FreeRTOS/cmsis_os2.o
osTimerDelete                                     build/FreeRTOS/cmsis_os2.o
osTimerGetName                                    build/FreeRTOS/cmsis_os2.o
osTimerIsRunning                                  build/FreeRTOS/cmsis_os2.o
osTimerNew                                        build/FreeRTOS/cmsis_os2.o
osTimerStart                                      build/FreeRTOS/cmsis_os2.o
osTimerStop                                       build/FreeRTOS/cmsis_os2.o
pcTaskGetName                                     build/FreeRTOS/tasks.o
                                                  build/FreeRTOS/cmsis_os2.o
pcTimerGetName                                    build/FreeRTOS/timers.o
                                                  build/FreeRTOS/cmsis_os2.o
printf                                            c:/users/luke/desktop/mcha toolchain windows/toolchain/gcc-arm-none-eabi/bin/../lib/gcc/arm-none-eabi/11.2.1/thumb/v7e-m+fp/hard\libc_nano.a(lib_a-printf.o)
                                                  build/heartbeat_cmd.o
                                                  build/uart.o
                                                  build/cmd_task.o
                                                  build/cmd_parser.o
                                                  build/cmd_line_buffer.o
pvPortMalloc                                      build/FreeRTOS/heap_useNewlib.o
                                                  build/FreeRTOS/cmsis_os2.o
                                                  build/FreeRTOS/stream_buffer.o
                                                  build/FreeRTOS/timers.o
                                                  build/FreeRTOS/tasks.o
                                                  build/FreeRTOS/queue.o
                                                  build/FreeRTOS/event_groups.o
pvTaskIncrementMutexHeldCount                     build/FreeRTOS/tasks.o
                                                  build/FreeRTOS/queue.o
pvTimerGetTimerID                                 build/FreeRTOS/timers.o
                                                  build/FreeRTOS/cmsis_os2.o
pxCurrentTCB                                      build/FreeRTOS/tasks.o
                                                  build/FreeRTOS/port.o
pxPortInitialiseStack                             build/FreeRTOS/port.o
                                                  build/FreeRTOS/tasks.o
raise                                             c:/users/luke/desktop/mcha toolchain windows/toolchain/gcc-arm-none-eabi/bin/../lib/gcc/arm-none-eabi/11.2.1/thumb/v7e-m+fp/hard\libc_nano.a(lib_a-signal.o)
                                                  c:/users/luke/desktop/mcha toolchain windows/toolchain/gcc-arm-none-eabi/bin/../lib/gcc/arm-none-eabi/11.2.1/thumb/v7e-m+fp/hard\libc_nano.a(lib_a-abort.o)
sbrk                                              build/FreeRTOS/heap_useNewlib.o
setlocale                                         c:/users/luke/desktop/mcha toolchain windows/toolchain/gcc-arm-none-eabi/bin/../lib/gcc/arm-none-eabi/11.2.1/thumb/v7e-m+fp/hard\libc_nano.a(lib_a-locale.o)
setvbuf                                           c:/users/luke/desktop/mcha toolchain windows/toolchain/gcc-arm-none-eabi/bin/../lib/gcc/arm-none-eabi/11.2.1/thumb/v7e-m+fp/hard\libc_nano.a(lib_a-setvbuf.o)
                                                  build/uart.o
signal                                            c:/users/luke/desktop/mcha toolchain windows/toolchain/gcc-arm-none-eabi/bin/../lib/gcc/arm-none-eabi/11.2.1/thumb/v7e-m+fp/hard\libc_nano.a(lib_a-signal.o)
siprintf                                          c:/users/luke/desktop/mcha toolchain windows/toolchain/gcc-arm-none-eabi/bin/../lib/gcc/arm-none-eabi/11.2.1/thumb/v7e-m+fp/hard\libc_nano.a(lib_a-sprintf.o)
software_init_hook                                build/FreeRTOS/clib_arm.o
                                                  c:/users/luke/desktop/mcha toolchain windows/toolchain/gcc-arm-none-eabi/bin/../lib/gcc/arm-none-eabi/11.2.1/thumb/v7e-m+fp/hard/crt0.o
sprintf                                           c:/users/luke/desktop/mcha toolchain windows/toolchain/gcc-arm-none-eabi/bin/../lib/gcc/arm-none-eabi/11.2.1/thumb/v7e-m+fp/hard\libc_nano.a(lib_a-sprintf.o)
                                                  c:/users/luke/desktop/mcha toolchain windows/toolchain/gcc-arm-none-eabi/bin/../lib/gcc/arm-none-eabi/11.2.1/thumb/v7e-m+fp/hard\libc_nano.a(lib_a-nano-vfscanf_float.o)
strcmp                                            c:/users/luke/desktop/mcha toolchain windows/toolchain/gcc-arm-none-eabi/bin/../lib/gcc/arm-none-eabi/11.2.1/thumb/v7e-m+fp/hard\libc_nano.a(lib_a-strcmp.o)
                                                  c:/users/luke/desktop/mcha toolchain windows/toolchain/gcc-arm-none-eabi/bin/../lib/gcc/arm-none-eabi/11.2.1/thumb/v7e-m+fp/hard\libc_nano.a(lib_a-locale.o)
                                                  build/heartbeat_cmd.o
                                                  build/cmd_parser.o
strlen                                            c:/users/luke/desktop/mcha toolchain windows/toolchain/gcc-arm-none-eabi/bin/../lib/gcc/arm-none-eabi/11.2.1/thumb/v7e-m+fp/hard\libc_nano.a(lib_a-strlen.o)
                                                  c:/users/luke/desktop/mcha toolchain windows/toolchain/gcc-arm-none-eabi/bin/../lib/gcc/arm-none-eabi/11.2.1/thumb/v7e-m+fp/hard\libc_nano.a(lib_a-gdtoa-gethex.o)
                                                  c:/users/luke/desktop/mcha toolchain windows/toolchain/gcc-arm-none-eabi/bin/../lib/gcc/arm-none-eabi/11.2.1/thumb/v7e-m+fp/hard\libc_nano.a(lib_a-strtod.o)
                                                  c:/users/luke/desktop/mcha toolchain windows/toolchain/gcc-arm-none-eabi/bin/../lib/gcc/arm-none-eabi/11.2.1/thumb/v7e-m+fp/hard\libc_nano.a(lib_a-nano-vfprintf_float.o)
strncmp                                           c:/users/luke/desktop/mcha toolchain windows/toolchain/gcc-arm-none-eabi/bin/../lib/gcc/arm-none-eabi/11.2.1/thumb/v7e-m+fp/hard\libc_nano.a(lib_a-strncmp.o)
                                                  c:/users/luke/desktop/mcha toolchain windows/toolchain/gcc-arm-none-eabi/bin/../lib/gcc/arm-none-eabi/11.2.1/thumb/v7e-m+fp/hard\libc_nano.a(lib_a-gdtoa-gethex.o)
                                                  c:/users/luke/desktop/mcha toolchain windows/toolchain/gcc-arm-none-eabi/bin/../lib/gcc/arm-none-eabi/11.2.1/thumb/v7e-m+fp/hard\libc_nano.a(lib_a-strtod.o)
strtod                                            c:/users/luke/desktop/mcha toolchain windows/toolchain/gcc-arm-none-eabi/bin/../lib/gcc/arm-none-eabi/11.2.1/thumb/v7e-m+fp/hard\libc_nano.a(lib_a-strtod.o)
strtod_l                                          c:/users/luke/desktop/mcha toolchain windows/toolchain/gcc-arm-none-eabi/bin/../lib/gcc/arm-none-eabi/11.2.1/thumb/v7e-m+fp/hard\libc_nano.a(lib_a-strtod.o)
strtof                                            c:/users/luke/desktop/mcha toolchain windows/toolchain/gcc-arm-none-eabi/bin/../lib/gcc/arm-none-eabi/11.2.1/thumb/v7e-m+fp/hard\libc_nano.a(lib_a-strtod.o)
strtof_l                                          c:/users/luke/desktop/mcha toolchain windows/toolchain/gcc-arm-none-eabi/bin/../lib/gcc/arm-none-eabi/11.2.1/thumb/v7e-m+fp/hard\libc_nano.a(lib_a-strtod.o)
strtol                                            c:/users/luke/desktop/mcha toolchain windows/toolchain/gcc-arm-none-eabi/bin/../lib/gcc/arm-none-eabi/11.2.1/thumb/v7e-m+fp/hard\libc_nano.a(lib_a-strtol.o)
strtol_l                                          c:/users/luke/desktop/mcha toolchain windows/toolchain/gcc-arm-none-eabi/bin/../lib/gcc/arm-none-eabi/11.2.1/thumb/v7e-m+fp/hard\libc_nano.a(lib_a-strtol.o)
uart_init                                         build/uart.o
                                                  build/main.o
ucQueueGetQueueType                               build/FreeRTOS/queue.o
ucStreamBufferGetStreamBufferType                 build/FreeRTOS/stream_buffer.o
ulTaskNotifyTake                                  build/FreeRTOS/tasks.o
ulTaskNotifyValueClear                            build/FreeRTOS/tasks.o
uwTick                                            build/stm32f4_HAL/stm32f4xx_hal.o
uwTickFreq                                        build/stm32f4_HAL/stm32f4xx_hal.o
uwTickPrio                                        build/stm32f4_HAL/stm32f4xx_hal.o
                                                  build/stm32f4_HAL/stm32f4xx_hal_rcc_ex.o
                                                  build/stm32f4_HAL/stm32f4xx_hal_rcc.o
uxEventGroupGetNumber                             build/FreeRTOS/event_groups.o
uxListRemove                                      build/FreeRTOS/list.o
                                                  build/FreeRTOS/timers.o
                                                  build/FreeRTOS/tasks.o
uxQueueGetQueueNumber                             build/FreeRTOS/queue.o
uxQueueMessagesWaiting                            build/FreeRTOS/queue.o
                                                  build/FreeRTOS/cmsis_os2.o
uxQueueMessagesWaitingFromISR                     build/FreeRTOS/queue.o
                                                  build/FreeRTOS/cmsis_os2.o
uxQueueSpacesAvailable                            build/FreeRTOS/queue.o
                                                  build/FreeRTOS/cmsis_os2.o
uxStreamBufferGetStreamBufferNumber               build/FreeRTOS/stream_buffer.o
uxTaskGetNumberOfTasks                            build/FreeRTOS/tasks.o
                                                  build/FreeRTOS/cmsis_os2.o
uxTaskGetStackHighWaterMark                       build/FreeRTOS/tasks.o
                                                  build/FreeRTOS/cmsis_os2.o
uxTaskGetSystemState                              build/FreeRTOS/tasks.o
                                                  build/FreeRTOS/cmsis_os2.o
uxTaskGetTaskNumber                               build/FreeRTOS/tasks.o
uxTaskPriorityGet                                 build/FreeRTOS/tasks.o
                                                  build/FreeRTOS/cmsis_os2.o
uxTaskPriorityGetFromISR                          build/FreeRTOS/tasks.o
uxTaskResetEventItemValue                         build/FreeRTOS/tasks.o
                                                  build/FreeRTOS/event_groups.o
uxTimerGetReloadMode                              build/FreeRTOS/timers.o
uxTimerGetTimerNumber                             build/FreeRTOS/timers.o
vApplicationGetIdleTaskMemory                     build/FreeRTOS/cmsis_os2.o
                                                  build/FreeRTOS/tasks.o
vApplicationGetTimerTaskMemory                    build/FreeRTOS/cmsis_os2.o
                                                  build/FreeRTOS/timers.o
vEventGroupClearBitsCallback                      build/FreeRTOS/event_groups.o
vEventGroupDelete                                 build/FreeRTOS/event_groups.o
                                                  build/FreeRTOS/cmsis_os2.o
vEventGroupSetBitsCallback                        build/FreeRTOS/event_groups.o
vEventGroupSetNumber                              build/FreeRTOS/event_groups.o
vListInitialise                                   build/FreeRTOS/list.o
                                                  build/FreeRTOS/timers.o
                                                  build/FreeRTOS/tasks.o
                                                  build/FreeRTOS/queue.o
                                                  build/FreeRTOS/event_groups.o
vListInitialiseItem                               build/FreeRTOS/list.o
                                                  build/FreeRTOS/timers.o
                                                  build/FreeRTOS/tasks.o
vListInsert                                       build/FreeRTOS/list.o
                                                  build/FreeRTOS/timers.o
                                                  build/FreeRTOS/tasks.o
vListInsertEnd                                    build/FreeRTOS/list.o
                                                  build/FreeRTOS/tasks.o
vPortEndScheduler                                 build/FreeRTOS/port.o
                                                  build/FreeRTOS/tasks.o
vPortEnterCritical                                build/FreeRTOS/port.o
                                                  build/FreeRTOS/cmsis_os2.o
                                                  build/FreeRTOS/stream_buffer.o
                                                  build/FreeRTOS/timers.o
                                                  build/FreeRTOS/tasks.o
                                                  build/FreeRTOS/queue.o
                                                  build/FreeRTOS/event_groups.o
vPortExitCritical                                 build/FreeRTOS/port.o
                                                  build/FreeRTOS/cmsis_os2.o
                                                  build/FreeRTOS/stream_buffer.o
                                                  build/FreeRTOS/timers.o
                                                  build/FreeRTOS/tasks.o
                                                  build/FreeRTOS/queue.o
                                                  build/FreeRTOS/event_groups.o
vPortFree                                         build/FreeRTOS/heap_useNewlib.o
                                                  build/FreeRTOS/cmsis_os2.o
                                                  build/FreeRTOS/stream_buffer.o
                                                  build/FreeRTOS/timers.o
                                                  build/FreeRTOS/tasks.o
                                                  build/FreeRTOS/queue.o
                                                  build/FreeRTOS/event_groups.o
vPortInitialiseBlocks                             build/FreeRTOS/heap_useNewlib.o
vPortSetupTimerInterrupt                          build/FreeRTOS/port.o
vQueueDelete                                      build/FreeRTOS/queue.o
                                                  build/FreeRTOS/cmsis_os2.o
vQueueSetQueueNumber                              build/FreeRTOS/queue.o
vQueueWaitForMessageRestricted                    build/FreeRTOS/queue.o
                                                  build/FreeRTOS/timers.o
vStreamBufferDelete                               build/FreeRTOS/stream_buffer.o
vStreamBufferSetStreamBufferNumber                build/FreeRTOS/stream_buffer.o
vTaskDelay                                        build/FreeRTOS/tasks.o
                                                  build/FreeRTOS/cmsis_os2.o
vTaskDelayUntil                                   build/FreeRTOS/tasks.o
                                                  build/FreeRTOS/cmsis_os2.o
vTaskDelete                                       build/FreeRTOS/tasks.o
                                                  build/FreeRTOS/cmsis_os2.o
vTaskEndScheduler                                 build/FreeRTOS/tasks.o
vTaskGetInfo                                      build/FreeRTOS/tasks.o
vTaskInternalSetTimeOutState                      build/FreeRTOS/tasks.o
                                                  build/FreeRTOS/queue.o
vTaskMissedYield                                  build/FreeRTOS/tasks.o
                                                  build/FreeRTOS/queue.o
vTaskNotifyGiveFromISR                            build/FreeRTOS/tasks.o
vTaskPlaceOnEventList                             build/FreeRTOS/tasks.o
                                                  build/FreeRTOS/queue.o
vTaskPlaceOnEventListRestricted                   build/FreeRTOS/tasks.o
                                                  build/FreeRTOS/queue.o
vTaskPlaceOnUnorderedEventList                    build/FreeRTOS/tasks.o
                                                  build/FreeRTOS/event_groups.o
vTaskPriorityDisinheritAfterTimeout               build/FreeRTOS/tasks.o
                                                  build/FreeRTOS/queue.o
vTaskPrioritySet                                  build/FreeRTOS/tasks.o
                                                  build/FreeRTOS/cmsis_os2.o
vTaskRemoveFromUnorderedEventList                 build/FreeRTOS/tasks.o
                                                  build/FreeRTOS/event_groups.o
vTaskResume                                       build/FreeRTOS/tasks.o
                                                  build/FreeRTOS/cmsis_os2.o
vTaskSetTaskNumber                                build/FreeRTOS/tasks.o
vTaskSetTimeOutState                              build/FreeRTOS/tasks.o
                                                  build/FreeRTOS/stream_buffer.o
vTaskStartScheduler                               build/FreeRTOS/tasks.o
                                                  build/FreeRTOS/cmsis_os2.o
vTaskSuspend                                      build/FreeRTOS/tasks.o
                                                  build/FreeRTOS/cmsis_os2.o
vTaskSuspendAll                                   build/FreeRTOS/tasks.o
                                                  build/FreeRTOS/heap_useNewlib.o
                                                  build/FreeRTOS/cmsis_os2.o
                                                  build/FreeRTOS/stream_buffer.o
                                                  build/FreeRTOS/timers.o
                                                  build/FreeRTOS/queue.o
                                                  build/FreeRTOS/event_groups.o
vTaskSwitchContext                                build/FreeRTOS/tasks.o
                                                  build/FreeRTOS/port.o
vTimerSetReloadMode                               build/FreeRTOS/timers.o
vTimerSetTimerID                                  build/FreeRTOS/timers.o
vTimerSetTimerNumber                              build/FreeRTOS/timers.o
vfiprintf                                         c:/users/luke/desktop/mcha toolchain windows/toolchain/gcc-arm-none-eabi/bin/../lib/gcc/arm-none-eabi/11.2.1/thumb/v7e-m+fp/hard\libc_nano.a(lib_a-nano-vfprintf.o)
vfprintf                                          c:/users/luke/desktop/mcha toolchain windows/toolchain/gcc-arm-none-eabi/bin/../lib/gcc/arm-none-eabi/11.2.1/thumb/v7e-m+fp/hard\libc_nano.a(lib_a-nano-vfprintf.o)
viprintf                                          c:/users/luke/desktop/mcha toolchain windows/toolchain/gcc-arm-none-eabi/bin/../lib/gcc/arm-none-eabi/11.2.1/thumb/v7e-m+fp/hard\libc_nano.a(lib_a-vprintf.o)
vprintf                                           c:/users/luke/desktop/mcha toolchain windows/toolchain/gcc-arm-none-eabi/bin/../lib/gcc/arm-none-eabi/11.2.1/thumb/v7e-m+fp/hard\libc_nano.a(lib_a-vprintf.o)
                                                  build/uart.o
xEventGroupClearBits                              build/FreeRTOS/event_groups.o
                                                  build/FreeRTOS/cmsis_os2.o
xEventGroupClearBitsFromISR                       build/FreeRTOS/event_groups.o
                                                  build/FreeRTOS/cmsis_os2.o
xEventGroupCreate                                 build/FreeRTOS/event_groups.o
                                                  build/FreeRTOS/cmsis_os2.o
xEventGroupCreateStatic                           build/FreeRTOS/event_groups.o
                                                  build/FreeRTOS/cmsis_os2.o
xEventGroupGetBitsFromISR                         build/FreeRTOS/event_groups.o
                                                  build/FreeRTOS/cmsis_os2.o
xEventGroupSetBits                                build/FreeRTOS/event_groups.o
                                                  build/FreeRTOS/cmsis_os2.o
xEventGroupSetBitsFromISR                         build/FreeRTOS/event_groups.o
                                                  build/FreeRTOS/cmsis_os2.o
xEventGroupSync                                   build/FreeRTOS/event_groups.o
xEventGroupWaitBits                               build/FreeRTOS/event_groups.o
                                                  build/FreeRTOS/cmsis_os2.o
xPortGetFreeHeapSize                              build/FreeRTOS/heap_useNewlib.o
xPortStartScheduler                               build/FreeRTOS/port.o
                                                  build/FreeRTOS/tasks.o
xPortSysTickHandler                               build/FreeRTOS/port.o
                                                  build/FreeRTOS/cmsis_os2.o
xQueueCreateCountingSemaphore                     build/FreeRTOS/queue.o
                                                  build/FreeRTOS/cmsis_os2.o
xQueueCreateCountingSemaphoreStatic               build/FreeRTOS/queue.o
                                                  build/FreeRTOS/cmsis_os2.o
xQueueCreateMutex                                 build/FreeRTOS/queue.o
                                                  build/FreeRTOS/cmsis_os2.o
xQueueCreateMutexStatic                           build/FreeRTOS/queue.o
                                                  build/FreeRTOS/cmsis_os2.o
xQueueGenericCreate                               build/FreeRTOS/queue.o
                                                  build/FreeRTOS/cmsis_os2.o
xQueueGenericCreateStatic                         build/FreeRTOS/queue.o
                                                  build/FreeRTOS/cmsis_os2.o
                                                  build/FreeRTOS/timers.o
xQueueGenericReset                                build/FreeRTOS/queue.o
                                                  build/FreeRTOS/cmsis_os2.o
xQueueGenericSend                                 build/FreeRTOS/queue.o
                                                  build/FreeRTOS/cmsis_os2.o
                                                  build/FreeRTOS/timers.o
xQueueGenericSendFromISR                          build/FreeRTOS/queue.o
                                                  build/FreeRTOS/cmsis_os2.o
                                                  build/FreeRTOS/timers.o
xQueueGetMutexHolder                              build/FreeRTOS/queue.o
                                                  build/FreeRTOS/cmsis_os2.o
xQueueGetMutexHolderFromISR                       build/FreeRTOS/queue.o
xQueueGiveFromISR                                 build/FreeRTOS/queue.o
                                                  build/FreeRTOS/cmsis_os2.o
xQueueGiveMutexRecursive                          build/FreeRTOS/queue.o
                                                  build/FreeRTOS/cmsis_os2.o
xQueueIsQueueEmptyFromISR                         build/FreeRTOS/queue.o
xQueueIsQueueFullFromISR                          build/FreeRTOS/queue.o
xQueuePeek                                        build/FreeRTOS/queue.o
xQueuePeekFromISR                                 build/FreeRTOS/queue.o
xQueueReceive                                     build/FreeRTOS/queue.o
                                                  build/FreeRTOS/cmsis_os2.o
                                                  build/FreeRTOS/timers.o
xQueueReceiveFromISR                              build/FreeRTOS/queue.o
                                                  build/FreeRTOS/cmsis_os2.o
xQueueSemaphoreTake                               build/FreeRTOS/queue.o
                                                  build/FreeRTOS/cmsis_os2.o
xQueueTakeMutexRecursive                          build/FreeRTOS/queue.o
                                                  build/FreeRTOS/cmsis_os2.o
xStreamBufferBytesAvailable                       build/FreeRTOS/stream_buffer.o
xStreamBufferGenericCreate                        build/FreeRTOS/stream_buffer.o
xStreamBufferGenericCreateStatic                  build/FreeRTOS/stream_buffer.o
xStreamBufferIsEmpty                              build/FreeRTOS/stream_buffer.o
xStreamBufferIsFull                               build/FreeRTOS/stream_buffer.o
xStreamBufferNextMessageLengthBytes               build/FreeRTOS/stream_buffer.o
xStreamBufferReceive                              build/FreeRTOS/stream_buffer.o
xStreamBufferReceiveCompletedFromISR              build/FreeRTOS/stream_buffer.o
xStreamBufferReceiveFromISR                       build/FreeRTOS/stream_buffer.o
xStreamBufferReset                                build/FreeRTOS/stream_buffer.o
xStreamBufferSend                                 build/FreeRTOS/stream_buffer.o
xStreamBufferSendCompletedFromISR                 build/FreeRTOS/stream_buffer.o
xStreamBufferSendFromISR                          build/FreeRTOS/stream_buffer.o
xStreamBufferSetTriggerLevel                      build/FreeRTOS/stream_buffer.o
xStreamBufferSpacesAvailable                      build/FreeRTOS/stream_buffer.o
xTaskCatchUpTicks                                 build/FreeRTOS/tasks.o
xTaskCheckForTimeOut                              build/FreeRTOS/tasks.o
                                                  build/FreeRTOS/stream_buffer.o
                                                  build/FreeRTOS/queue.o
xTaskCreate                                       build/FreeRTOS/tasks.o
                                                  build/FreeRTOS/cmsis_os2.o
xTaskCreateStatic                                 build/FreeRTOS/tasks.o
                                                  build/FreeRTOS/cmsis_os2.o
                                                  build/FreeRTOS/timers.o
xTaskGenericNotify                                build/FreeRTOS/tasks.o
                                                  build/FreeRTOS/cmsis_os2.o
                                                  build/FreeRTOS/stream_buffer.o
xTaskGenericNotifyFromISR                         build/FreeRTOS/tasks.o
                                                  build/FreeRTOS/cmsis_os2.o
                                                  build/FreeRTOS/stream_buffer.o
xTaskGetCurrentTaskHandle                         build/FreeRTOS/tasks.o
                                                  build/FreeRTOS/cmsis_os2.o
                                                  build/FreeRTOS/stream_buffer.o
                                                  build/FreeRTOS/queue.o
xTaskGetSchedulerState                            build/FreeRTOS/tasks.o
                                                  build/FreeRTOS/cmsis_os2.o
                                                  build/FreeRTOS/timers.o
xTaskGetTickCount                                 build/FreeRTOS/tasks.o
                                                  build/FreeRTOS/cmsis_os2.o
                                                  build/FreeRTOS/timers.o
xTaskGetTickCountFromISR                          build/FreeRTOS/tasks.o
                                                  build/FreeRTOS/cmsis_os2.o
xTaskIncrementTick                                build/FreeRTOS/tasks.o
                                                  build/FreeRTOS/port.o
xTaskNotifyStateClear                             build/FreeRTOS/tasks.o
                                                  build/FreeRTOS/stream_buffer.o
xTaskNotifyWait                                   build/FreeRTOS/tasks.o
                                                  build/FreeRTOS/cmsis_os2.o
                                                  build/FreeRTOS/stream_buffer.o
xTaskPriorityDisinherit                           build/FreeRTOS/tasks.o
                                                  build/FreeRTOS/queue.o
xTaskPriorityInherit                              build/FreeRTOS/tasks.o
                                                  build/FreeRTOS/queue.o
xTaskRemoveFromEventList                          build/FreeRTOS/tasks.o
                                                  build/FreeRTOS/queue.o
xTaskResumeAll                                    build/FreeRTOS/tasks.o
                                                  build/FreeRTOS/heap_useNewlib.o
                                                  build/FreeRTOS/cmsis_os2.o
                                                  build/FreeRTOS/stream_buffer.o
                                                  build/FreeRTOS/timers.o
                                                  build/FreeRTOS/queue.o
                                                  build/FreeRTOS/event_groups.o
xTaskResumeFromISR                                build/FreeRTOS/tasks.o
xTimerCreate                                      build/FreeRTOS/timers.o
                                                  build/FreeRTOS/cmsis_os2.o
xTimerCreateStatic                                build/FreeRTOS/timers.o
                                                  build/FreeRTOS/cmsis_os2.o
xTimerCreateTimerTask                             build/FreeRTOS/timers.o
                                                  build/FreeRTOS/tasks.o
xTimerGenericCommand                              build/FreeRTOS/timers.o
                                                  build/FreeRTOS/cmsis_os2.o
xTimerGetExpiryTime                               build/FreeRTOS/timers.o
xTimerGetPeriod                                   build/FreeRTOS/timers.o
xTimerGetTimerDaemonTaskHandle                    build/FreeRTOS/timers.o
xTimerIsTimerActive                               build/FreeRTOS/timers.o
                                                  build/FreeRTOS/cmsis_os2.o
xTimerPendFunctionCall                            build/FreeRTOS/timers.o
xTimerPendFunctionCallFromISR                     build/FreeRTOS/timers.o
                                                  build/FreeRTOS/event_groups.o
